ARM GAS  C:\Users\Jeremias\AppData\Local\Temp\cckD3SuH.s 			page 1


   1              		.syntax unified
   2              		.cpu cortex-m0
   3              		.fpu softvfp
   4              		.eabi_attribute 20, 1
   5              		.eabi_attribute 21, 1
   6              		.eabi_attribute 23, 3
   7              		.eabi_attribute 24, 1
   8              		.eabi_attribute 25, 1
   9              		.eabi_attribute 26, 1
  10              		.eabi_attribute 30, 1
  11              		.eabi_attribute 34, 0
  12              		.eabi_attribute 18, 4
  13              		.thumb
  14              		.syntax unified
  15              		.file	"Comp_1.c"
  16              		.text
  17              	.Ltext0:
  18              		.cfi_sections	.debug_frame
  19              		.section	.text.Comp_1_Init,"ax",%progbits
  20              		.align	2
  21              		.global	Comp_1_Init
  22              		.code	16
  23              		.thumb_func
  24              		.type	Comp_1_Init, %function
  25              	Comp_1_Init:
  26              	.LFB0:
  27              		.file 1 "Generated_Source\\PSoC4\\Comp_1.c"
   1:Generated_Source\PSoC4/Comp_1.c **** /*******************************************************************************
   2:Generated_Source\PSoC4/Comp_1.c **** * File Name: Comp_1.c
   3:Generated_Source\PSoC4/Comp_1.c **** * Version 1.20
   4:Generated_Source\PSoC4/Comp_1.c **** *
   5:Generated_Source\PSoC4/Comp_1.c **** * Description:
   6:Generated_Source\PSoC4/Comp_1.c **** *  This file provides the source code to the API for the Comparator component
   7:Generated_Source\PSoC4/Comp_1.c **** *
   8:Generated_Source\PSoC4/Comp_1.c **** * Note:
   9:Generated_Source\PSoC4/Comp_1.c **** *  None
  10:Generated_Source\PSoC4/Comp_1.c **** *
  11:Generated_Source\PSoC4/Comp_1.c **** ********************************************************************************
  12:Generated_Source\PSoC4/Comp_1.c **** * Copyright 2013-2015, Cypress Semiconductor Corporation.  All rights reserved.
  13:Generated_Source\PSoC4/Comp_1.c **** * You may use this file only in accordance with the license, terms, conditions,
  14:Generated_Source\PSoC4/Comp_1.c **** * disclaimers, and limitations in the end user license agreement accompanying
  15:Generated_Source\PSoC4/Comp_1.c **** * the software package with which this file was provided.
  16:Generated_Source\PSoC4/Comp_1.c **** *******************************************************************************/
  17:Generated_Source\PSoC4/Comp_1.c **** 
  18:Generated_Source\PSoC4/Comp_1.c **** #include "Comp_1.h"
  19:Generated_Source\PSoC4/Comp_1.c **** 
  20:Generated_Source\PSoC4/Comp_1.c **** uint8 Comp_1_initVar = 0u; /* Defines if component was initialized */
  21:Generated_Source\PSoC4/Comp_1.c **** static uint32 Comp_1_internalSpeed = 0u; /* Defines component Speed value */
  22:Generated_Source\PSoC4/Comp_1.c **** 
  23:Generated_Source\PSoC4/Comp_1.c **** 
  24:Generated_Source\PSoC4/Comp_1.c **** /*******************************************************************************
  25:Generated_Source\PSoC4/Comp_1.c **** * Function Name: Comp_1_Init
  26:Generated_Source\PSoC4/Comp_1.c **** ********************************************************************************
  27:Generated_Source\PSoC4/Comp_1.c **** *
  28:Generated_Source\PSoC4/Comp_1.c **** * Summary:
  29:Generated_Source\PSoC4/Comp_1.c **** *  Initializes or restores the component according to the customizer Configure 
  30:Generated_Source\PSoC4/Comp_1.c **** *  dialog settings. It is not necessary to call Init() because the Start() API 
ARM GAS  C:\Users\Jeremias\AppData\Local\Temp\cckD3SuH.s 			page 2


  31:Generated_Source\PSoC4/Comp_1.c **** *  calls this function and is the preferred method to begin the component operation.
  32:Generated_Source\PSoC4/Comp_1.c **** *
  33:Generated_Source\PSoC4/Comp_1.c **** * Parameters:
  34:Generated_Source\PSoC4/Comp_1.c **** *  None
  35:Generated_Source\PSoC4/Comp_1.c **** *
  36:Generated_Source\PSoC4/Comp_1.c **** * Return:
  37:Generated_Source\PSoC4/Comp_1.c **** *  None
  38:Generated_Source\PSoC4/Comp_1.c **** *
  39:Generated_Source\PSoC4/Comp_1.c **** *******************************************************************************/
  40:Generated_Source\PSoC4/Comp_1.c **** void Comp_1_Init(void)
  41:Generated_Source\PSoC4/Comp_1.c **** {
  28              		.loc 1 41 0
  29              		.cfi_startproc
  30              		@ args = 0, pretend = 0, frame = 0
  31              		@ frame_needed = 0, uses_anonymous_args = 0
  32 0000 10B5     		push	{r4, lr}
  33              		.cfi_def_cfa_offset 8
  34              		.cfi_offset 4, -8
  35              		.cfi_offset 14, -4
  42:Generated_Source\PSoC4/Comp_1.c ****     uint8 enableInterrupts;
  43:Generated_Source\PSoC4/Comp_1.c ****     
  44:Generated_Source\PSoC4/Comp_1.c ****     Comp_1_internalSpeed = Comp_1_POWER;
  36              		.loc 1 44 0
  37 0002 0222     		movs	r2, #2
  38 0004 084B     		ldr	r3, .L2
  39 0006 1A60     		str	r2, [r3]
  45:Generated_Source\PSoC4/Comp_1.c ****     Comp_1_CTB_CTRL_REG = Comp_1_DEFAULT_CTB_CTRL;
  40              		.loc 1 45 0
  41 0008 8022     		movs	r2, #128
  42 000a 1206     		lsls	r2, r2, #24
  43 000c 074B     		ldr	r3, .L2+4
  44 000e 1A60     		str	r2, [r3]
  46:Generated_Source\PSoC4/Comp_1.c ****     Comp_1_OA_RES_CTRL_REG = Comp_1_DEFAULT_OA_RES_CTRL;
  45              		.loc 1 46 0
  46 0010 7022     		movs	r2, #112
  47 0012 074B     		ldr	r3, .L2+8
  48 0014 1A60     		str	r2, [r3]
  47:Generated_Source\PSoC4/Comp_1.c ****     
  48:Generated_Source\PSoC4/Comp_1.c ****     enableInterrupts = CyEnterCriticalSection();
  49              		.loc 1 48 0
  50 0016 FFF7FEFF 		bl	CyEnterCriticalSection
  51              	.LVL0:
  49:Generated_Source\PSoC4/Comp_1.c ****     Comp_1_INTR_MASK_REG |= Comp_1_INTR_MASK_REG_DEFAULT;
  52              		.loc 1 49 0
  53 001a 064B     		ldr	r3, .L2+12
  54 001c 1A68     		ldr	r2, [r3]
  55 001e 1A60     		str	r2, [r3]
  50:Generated_Source\PSoC4/Comp_1.c ****     CyExitCriticalSection(enableInterrupts);
  56              		.loc 1 50 0
  57 0020 FFF7FEFF 		bl	CyExitCriticalSection
  58              	.LVL1:
  51:Generated_Source\PSoC4/Comp_1.c **** }
  59              		.loc 1 51 0
  60              		@ sp needed
  61 0024 10BD     		pop	{r4, pc}
  62              	.L3:
  63 0026 C046     		.align	2
ARM GAS  C:\Users\Jeremias\AppData\Local\Temp\cckD3SuH.s 			page 3


  64              	.L2:
  65 0028 00000000 		.word	.LANCHOR0
  66 002c 00001040 		.word	1074790400
  67 0030 04001040 		.word	1074790404
  68 0034 28001040 		.word	1074790440
  69              		.cfi_endproc
  70              	.LFE0:
  71              		.size	Comp_1_Init, .-Comp_1_Init
  72              		.section	.text.Comp_1_Enable,"ax",%progbits
  73              		.align	2
  74              		.global	Comp_1_Enable
  75              		.code	16
  76              		.thumb_func
  77              		.type	Comp_1_Enable, %function
  78              	Comp_1_Enable:
  79              	.LFB1:
  52:Generated_Source\PSoC4/Comp_1.c **** 
  53:Generated_Source\PSoC4/Comp_1.c **** 
  54:Generated_Source\PSoC4/Comp_1.c **** /*******************************************************************************
  55:Generated_Source\PSoC4/Comp_1.c **** * Function Name: Comp_1_Enable
  56:Generated_Source\PSoC4/Comp_1.c **** ********************************************************************************
  57:Generated_Source\PSoC4/Comp_1.c **** *
  58:Generated_Source\PSoC4/Comp_1.c **** * Summary:
  59:Generated_Source\PSoC4/Comp_1.c **** *  Activates the hardware and begins the component operation. It is not necessary to 
  60:Generated_Source\PSoC4/Comp_1.c **** *  call Enable() because the Start() API calls this function, which is the 
  61:Generated_Source\PSoC4/Comp_1.c **** *  preferred method to begin the component operation.
  62:Generated_Source\PSoC4/Comp_1.c **** *
  63:Generated_Source\PSoC4/Comp_1.c **** * Parameters:
  64:Generated_Source\PSoC4/Comp_1.c **** *  None
  65:Generated_Source\PSoC4/Comp_1.c **** *
  66:Generated_Source\PSoC4/Comp_1.c **** * Return:
  67:Generated_Source\PSoC4/Comp_1.c **** *  None
  68:Generated_Source\PSoC4/Comp_1.c **** *
  69:Generated_Source\PSoC4/Comp_1.c **** *******************************************************************************/
  70:Generated_Source\PSoC4/Comp_1.c **** void Comp_1_Enable(void)
  71:Generated_Source\PSoC4/Comp_1.c **** {
  80              		.loc 1 71 0
  81              		.cfi_startproc
  82              		@ args = 0, pretend = 0, frame = 0
  83              		@ frame_needed = 0, uses_anonymous_args = 0
  84              		@ link register save eliminated.
  72:Generated_Source\PSoC4/Comp_1.c ****     Comp_1_OA_RES_CTRL_REG |= Comp_1_internalSpeed | \
  85              		.loc 1 72 0
  86 0000 044A     		ldr	r2, .L5
  87 0002 1168     		ldr	r1, [r2]
  88 0004 044B     		ldr	r3, .L5+4
  89 0006 1B68     		ldr	r3, [r3]
  90 0008 0B43     		orrs	r3, r1
  91 000a 8021     		movs	r1, #128
  92 000c 0901     		lsls	r1, r1, #4
  93 000e 0B43     		orrs	r3, r1
  94 0010 1360     		str	r3, [r2]
  73:Generated_Source\PSoC4/Comp_1.c ****                                         Comp_1_OA_PUMP_EN;
  74:Generated_Source\PSoC4/Comp_1.c **** }
  95              		.loc 1 74 0
  96              		@ sp needed
  97 0012 7047     		bx	lr
ARM GAS  C:\Users\Jeremias\AppData\Local\Temp\cckD3SuH.s 			page 4


  98              	.L6:
  99              		.align	2
 100              	.L5:
 101 0014 04001040 		.word	1074790404
 102 0018 00000000 		.word	.LANCHOR0
 103              		.cfi_endproc
 104              	.LFE1:
 105              		.size	Comp_1_Enable, .-Comp_1_Enable
 106              		.section	.text.Comp_1_Start,"ax",%progbits
 107              		.align	2
 108              		.global	Comp_1_Start
 109              		.code	16
 110              		.thumb_func
 111              		.type	Comp_1_Start, %function
 112              	Comp_1_Start:
 113              	.LFB2:
  75:Generated_Source\PSoC4/Comp_1.c **** 
  76:Generated_Source\PSoC4/Comp_1.c **** 
  77:Generated_Source\PSoC4/Comp_1.c **** /*******************************************************************************
  78:Generated_Source\PSoC4/Comp_1.c **** * Function Name: Comp_1_Start
  79:Generated_Source\PSoC4/Comp_1.c **** ********************************************************************************
  80:Generated_Source\PSoC4/Comp_1.c **** *
  81:Generated_Source\PSoC4/Comp_1.c **** * Summary:
  82:Generated_Source\PSoC4/Comp_1.c **** *  Performs all of the required initialization for the component and enables 
  83:Generated_Source\PSoC4/Comp_1.c **** *  power to the block. The first time the routine is executed, the speed/power 
  84:Generated_Source\PSoC4/Comp_1.c **** *  level, and hysteresis are set. When called to restart the comparator 
  85:Generated_Source\PSoC4/Comp_1.c **** *  following a Stop() call, the current component parameter settings are retained.
  86:Generated_Source\PSoC4/Comp_1.c **** *
  87:Generated_Source\PSoC4/Comp_1.c **** * Parameters:
  88:Generated_Source\PSoC4/Comp_1.c **** *  None
  89:Generated_Source\PSoC4/Comp_1.c **** *
  90:Generated_Source\PSoC4/Comp_1.c **** * Return:
  91:Generated_Source\PSoC4/Comp_1.c **** *  None
  92:Generated_Source\PSoC4/Comp_1.c **** *
  93:Generated_Source\PSoC4/Comp_1.c **** * Global variables:
  94:Generated_Source\PSoC4/Comp_1.c **** *  Comp_1_initVar: Is modified when this function is called for the
  95:Generated_Source\PSoC4/Comp_1.c **** *   first time. Is used to ensure that initialization happens only once.
  96:Generated_Source\PSoC4/Comp_1.c **** *
  97:Generated_Source\PSoC4/Comp_1.c **** *******************************************************************************/
  98:Generated_Source\PSoC4/Comp_1.c **** void Comp_1_Start(void)
  99:Generated_Source\PSoC4/Comp_1.c **** {
 114              		.loc 1 99 0
 115              		.cfi_startproc
 116              		@ args = 0, pretend = 0, frame = 0
 117              		@ frame_needed = 0, uses_anonymous_args = 0
 118 0000 10B5     		push	{r4, lr}
 119              		.cfi_def_cfa_offset 8
 120              		.cfi_offset 4, -8
 121              		.cfi_offset 14, -4
 100:Generated_Source\PSoC4/Comp_1.c ****     if( 0u == Comp_1_initVar)
 122              		.loc 1 100 0
 123 0002 064B     		ldr	r3, .L9
 124 0004 1B79     		ldrb	r3, [r3, #4]
 125 0006 002B     		cmp	r3, #0
 126 0008 04D1     		bne	.L8
 101:Generated_Source\PSoC4/Comp_1.c ****     {
 102:Generated_Source\PSoC4/Comp_1.c ****         Comp_1_Init();
ARM GAS  C:\Users\Jeremias\AppData\Local\Temp\cckD3SuH.s 			page 5


 127              		.loc 1 102 0
 128 000a FFF7FEFF 		bl	Comp_1_Init
 129              	.LVL2:
 103:Generated_Source\PSoC4/Comp_1.c ****         Comp_1_initVar = 1u;
 130              		.loc 1 103 0
 131 000e 0122     		movs	r2, #1
 132 0010 024B     		ldr	r3, .L9
 133 0012 1A71     		strb	r2, [r3, #4]
 134              	.L8:
 104:Generated_Source\PSoC4/Comp_1.c ****     }
 105:Generated_Source\PSoC4/Comp_1.c ****     Comp_1_Enable();
 135              		.loc 1 105 0
 136 0014 FFF7FEFF 		bl	Comp_1_Enable
 137              	.LVL3:
 106:Generated_Source\PSoC4/Comp_1.c **** }
 138              		.loc 1 106 0
 139              		@ sp needed
 140 0018 10BD     		pop	{r4, pc}
 141              	.L10:
 142 001a C046     		.align	2
 143              	.L9:
 144 001c 00000000 		.word	.LANCHOR0
 145              		.cfi_endproc
 146              	.LFE2:
 147              		.size	Comp_1_Start, .-Comp_1_Start
 148              		.section	.text.Comp_1_Stop,"ax",%progbits
 149              		.align	2
 150              		.global	Comp_1_Stop
 151              		.code	16
 152              		.thumb_func
 153              		.type	Comp_1_Stop, %function
 154              	Comp_1_Stop:
 155              	.LFB3:
 107:Generated_Source\PSoC4/Comp_1.c **** 
 108:Generated_Source\PSoC4/Comp_1.c **** 
 109:Generated_Source\PSoC4/Comp_1.c **** /*******************************************************************************
 110:Generated_Source\PSoC4/Comp_1.c **** * Function Name: Comp_1_Stop
 111:Generated_Source\PSoC4/Comp_1.c **** ********************************************************************************
 112:Generated_Source\PSoC4/Comp_1.c **** *
 113:Generated_Source\PSoC4/Comp_1.c **** * Summary:
 114:Generated_Source\PSoC4/Comp_1.c **** *  Turns off the comparator block.
 115:Generated_Source\PSoC4/Comp_1.c **** *
 116:Generated_Source\PSoC4/Comp_1.c **** * Parameters:
 117:Generated_Source\PSoC4/Comp_1.c **** *  None
 118:Generated_Source\PSoC4/Comp_1.c **** *
 119:Generated_Source\PSoC4/Comp_1.c **** * Return:
 120:Generated_Source\PSoC4/Comp_1.c **** *  None
 121:Generated_Source\PSoC4/Comp_1.c **** *
 122:Generated_Source\PSoC4/Comp_1.c **** * Side Effects:
 123:Generated_Source\PSoC4/Comp_1.c **** *  Does not affect the comparator speed settings.
 124:Generated_Source\PSoC4/Comp_1.c **** *
 125:Generated_Source\PSoC4/Comp_1.c **** *******************************************************************************/
 126:Generated_Source\PSoC4/Comp_1.c **** void Comp_1_Stop(void)
 127:Generated_Source\PSoC4/Comp_1.c **** {
 156              		.loc 1 127 0
 157              		.cfi_startproc
 158              		@ args = 0, pretend = 0, frame = 0
ARM GAS  C:\Users\Jeremias\AppData\Local\Temp\cckD3SuH.s 			page 6


 159              		@ frame_needed = 0, uses_anonymous_args = 0
 160              		@ link register save eliminated.
 128:Generated_Source\PSoC4/Comp_1.c ****     Comp_1_OA_CTRL_REG &= ((uint32)~(Comp_1_OA_PWR_MODE_MASK | \
 161              		.loc 1 128 0
 162 0000 024A     		ldr	r2, .L12
 163 0002 1168     		ldr	r1, [r2]
 164 0004 024B     		ldr	r3, .L12+4
 165 0006 0B40     		ands	r3, r1
 166 0008 1360     		str	r3, [r2]
 129:Generated_Source\PSoC4/Comp_1.c ****                                                Comp_1_OA_PUMP_EN));
 130:Generated_Source\PSoC4/Comp_1.c **** }
 167              		.loc 1 130 0
 168              		@ sp needed
 169 000a 7047     		bx	lr
 170              	.L13:
 171              		.align	2
 172              	.L12:
 173 000c 04001040 		.word	1074790404
 174 0010 FCF7FFFF 		.word	-2052
 175              		.cfi_endproc
 176              	.LFE3:
 177              		.size	Comp_1_Stop, .-Comp_1_Stop
 178              		.section	.text.Comp_1_SetSpeed,"ax",%progbits
 179              		.align	2
 180              		.global	Comp_1_SetSpeed
 181              		.code	16
 182              		.thumb_func
 183              		.type	Comp_1_SetSpeed, %function
 184              	Comp_1_SetSpeed:
 185              	.LFB4:
 131:Generated_Source\PSoC4/Comp_1.c **** 
 132:Generated_Source\PSoC4/Comp_1.c **** 
 133:Generated_Source\PSoC4/Comp_1.c **** /*******************************************************************************
 134:Generated_Source\PSoC4/Comp_1.c **** * Function Name: Comp_1_SetSpeed
 135:Generated_Source\PSoC4/Comp_1.c **** ********************************************************************************
 136:Generated_Source\PSoC4/Comp_1.c **** *
 137:Generated_Source\PSoC4/Comp_1.c **** * Summary:
 138:Generated_Source\PSoC4/Comp_1.c **** *  Sets the speed to one of three settings: slow, medium, or fast.
 139:Generated_Source\PSoC4/Comp_1.c **** *
 140:Generated_Source\PSoC4/Comp_1.c **** * Parameters:
 141:Generated_Source\PSoC4/Comp_1.c **** *  speed: Enumerated speed mode value.
 142:Generated_Source\PSoC4/Comp_1.c **** *   Comp_1_SLOW_SPEED  - Slow speed
 143:Generated_Source\PSoC4/Comp_1.c **** *   Comp_1_MED_SPEED   - Medium speed
 144:Generated_Source\PSoC4/Comp_1.c **** *   Comp_1_FAST_SPEED  - Fast speed
 145:Generated_Source\PSoC4/Comp_1.c **** *
 146:Generated_Source\PSoC4/Comp_1.c **** * Return:
 147:Generated_Source\PSoC4/Comp_1.c **** *  None
 148:Generated_Source\PSoC4/Comp_1.c **** *
 149:Generated_Source\PSoC4/Comp_1.c **** *******************************************************************************/
 150:Generated_Source\PSoC4/Comp_1.c **** void Comp_1_SetSpeed(uint32 speed)
 151:Generated_Source\PSoC4/Comp_1.c **** {
 186              		.loc 1 151 0
 187              		.cfi_startproc
 188              		@ args = 0, pretend = 0, frame = 0
 189              		@ frame_needed = 0, uses_anonymous_args = 0
 190              		@ link register save eliminated.
 191              	.LVL4:
ARM GAS  C:\Users\Jeremias\AppData\Local\Temp\cckD3SuH.s 			page 7


 152:Generated_Source\PSoC4/Comp_1.c ****     uint32 tmp;
 153:Generated_Source\PSoC4/Comp_1.c ****     
 154:Generated_Source\PSoC4/Comp_1.c ****     Comp_1_internalSpeed = Comp_1_GET_OA_PWR_MODE(speed);
 192              		.loc 1 154 0
 193 0000 0321     		movs	r1, #3
 194 0002 0840     		ands	r0, r1
 195              	.LVL5:
 196 0004 034B     		ldr	r3, .L15
 197 0006 1860     		str	r0, [r3]
 155:Generated_Source\PSoC4/Comp_1.c ****     tmp = Comp_1_OA_RES_CTRL_REG & \
 198              		.loc 1 155 0
 199 0008 034A     		ldr	r2, .L15+4
 200 000a 1368     		ldr	r3, [r2]
 201 000c 8B43     		bics	r3, r1
 202              	.LVL6:
 156:Generated_Source\PSoC4/Comp_1.c ****            (uint32)~Comp_1_OA_PWR_MODE_MASK;
 157:Generated_Source\PSoC4/Comp_1.c ****     Comp_1_OA_RES_CTRL_REG = tmp | Comp_1_internalSpeed;
 203              		.loc 1 157 0
 204 000e 1843     		orrs	r0, r3
 205 0010 1060     		str	r0, [r2]
 158:Generated_Source\PSoC4/Comp_1.c **** }
 206              		.loc 1 158 0
 207              		@ sp needed
 208 0012 7047     		bx	lr
 209              	.L16:
 210              		.align	2
 211              	.L15:
 212 0014 00000000 		.word	.LANCHOR0
 213 0018 04001040 		.word	1074790404
 214              		.cfi_endproc
 215              	.LFE4:
 216              		.size	Comp_1_SetSpeed, .-Comp_1_SetSpeed
 217              		.section	.text.Comp_1_LoadTrim,"ax",%progbits
 218              		.align	2
 219              		.global	Comp_1_LoadTrim
 220              		.code	16
 221              		.thumb_func
 222              		.type	Comp_1_LoadTrim, %function
 223              	Comp_1_LoadTrim:
 224              	.LFB6:
 159:Generated_Source\PSoC4/Comp_1.c **** 
 160:Generated_Source\PSoC4/Comp_1.c **** 
 161:Generated_Source\PSoC4/Comp_1.c **** /*******************************************************************************
 162:Generated_Source\PSoC4/Comp_1.c **** * Function Name: Comp_1_ZeroCal
 163:Generated_Source\PSoC4/Comp_1.c **** ********************************************************************************
 164:Generated_Source\PSoC4/Comp_1.c **** *
 165:Generated_Source\PSoC4/Comp_1.c **** * Summary:
 166:Generated_Source\PSoC4/Comp_1.c **** *  Performs custom calibration of the input offset to minimize the error for a 
 167:Generated_Source\PSoC4/Comp_1.c **** *  specific set of conditions: the comparator reference voltage, supply voltage, 
 168:Generated_Source\PSoC4/Comp_1.c **** *  and operating temperature. A reference voltage in the range at which the 
 169:Generated_Source\PSoC4/Comp_1.c **** *  comparator will be used must be applied to the Negative and Positive inputs 
 170:Generated_Source\PSoC4/Comp_1.c **** *  of the comparator while the offset calibration is performed. This can be done 
 171:Generated_Source\PSoC4/Comp_1.c **** *  external to the device or by using an internal analog mux on the positive input 
 172:Generated_Source\PSoC4/Comp_1.c **** *  that selects between the positive input signal for normal operation and the 
 173:Generated_Source\PSoC4/Comp_1.c **** *  negative input signal for calibration.
 174:Generated_Source\PSoC4/Comp_1.c **** *
 175:Generated_Source\PSoC4/Comp_1.c **** * Parameters:
ARM GAS  C:\Users\Jeremias\AppData\Local\Temp\cckD3SuH.s 			page 8


 176:Generated_Source\PSoC4/Comp_1.c **** *  None
 177:Generated_Source\PSoC4/Comp_1.c **** *
 178:Generated_Source\PSoC4/Comp_1.c **** * Return:
 179:Generated_Source\PSoC4/Comp_1.c **** *  (uint32): The value from the comparator trim register after the offset 
 180:Generated_Source\PSoC4/Comp_1.c **** *  calibration is complete. This value has the same format as the input parameter 
 181:Generated_Source\PSoC4/Comp_1.c **** *  for the LoadTrim() API routine.
 182:Generated_Source\PSoC4/Comp_1.c **** *
 183:Generated_Source\PSoC4/Comp_1.c **** *
 184:Generated_Source\PSoC4/Comp_1.c **** * Side Effects:
 185:Generated_Source\PSoC4/Comp_1.c **** *  During the calibration procedure, the comparator output may behave erratically. 
 186:Generated_Source\PSoC4/Comp_1.c **** *  The comparator output should be ignored during calibration.
 187:Generated_Source\PSoC4/Comp_1.c **** *
 188:Generated_Source\PSoC4/Comp_1.c **** *******************************************************************************/
 189:Generated_Source\PSoC4/Comp_1.c **** uint32 Comp_1_ZeroCal(void)
 190:Generated_Source\PSoC4/Comp_1.c **** {
 191:Generated_Source\PSoC4/Comp_1.c ****     uint32 cmpOut;
 192:Generated_Source\PSoC4/Comp_1.c ****     uint32 i;
 193:Generated_Source\PSoC4/Comp_1.c ****     
 194:Generated_Source\PSoC4/Comp_1.c ****     /* Clear trim registers before trimming */
 195:Generated_Source\PSoC4/Comp_1.c ****     Comp_1_OA_OFFSET_TRIM_REG       = 0u;
 196:Generated_Source\PSoC4/Comp_1.c ****     Comp_1_OA_SLOPE_OFFSET_TRIM_REG = 0u;
 197:Generated_Source\PSoC4/Comp_1.c ****     
 198:Generated_Source\PSoC4/Comp_1.c ****     /* Check comparator's output state */
 199:Generated_Source\PSoC4/Comp_1.c ****     cmpOut = Comp_1_GetCompare();
 200:Generated_Source\PSoC4/Comp_1.c ****     
 201:Generated_Source\PSoC4/Comp_1.c ****     /* Connect the outputs of trim IDACs to the positive
 202:Generated_Source\PSoC4/Comp_1.c ****     * output leg of the folded cascade 
 203:Generated_Source\PSoC4/Comp_1.c ****     */
 204:Generated_Source\PSoC4/Comp_1.c ****     if(cmpOut == 0u)
 205:Generated_Source\PSoC4/Comp_1.c ****     {
 206:Generated_Source\PSoC4/Comp_1.c ****         Comp_1_OA_OFFSET_TRIM_REG       = ((uint32) 1u << Comp_1_COMP_TRIM_SIGN_SHIFT);
 207:Generated_Source\PSoC4/Comp_1.c ****         Comp_1_OA_SLOPE_OFFSET_TRIM_REG = ((uint32) 1u << Comp_1_COMP_TRIM_SIGN_SHIFT);
 208:Generated_Source\PSoC4/Comp_1.c ****     }
 209:Generated_Source\PSoC4/Comp_1.c ****         
 210:Generated_Source\PSoC4/Comp_1.c ****     /* Searching offset trim setting, 
 211:Generated_Source\PSoC4/Comp_1.c ****     * that flips comparator output 
 212:Generated_Source\PSoC4/Comp_1.c ****     */
 213:Generated_Source\PSoC4/Comp_1.c ****     for(i = Comp_1_COMP_TRIM_MAX_VALUE; i != 0u; i--)
 214:Generated_Source\PSoC4/Comp_1.c ****     {
 215:Generated_Source\PSoC4/Comp_1.c ****         Comp_1_OA_OFFSET_TRIM_REG++;
 216:Generated_Source\PSoC4/Comp_1.c ****         CyDelayUs(Comp_1_COMP_CALIBRATION_DELAY);
 217:Generated_Source\PSoC4/Comp_1.c ****         if(cmpOut != Comp_1_GetCompare())
 218:Generated_Source\PSoC4/Comp_1.c ****         {
 219:Generated_Source\PSoC4/Comp_1.c ****             break;
 220:Generated_Source\PSoC4/Comp_1.c ****         }
 221:Generated_Source\PSoC4/Comp_1.c ****     }
 222:Generated_Source\PSoC4/Comp_1.c ****     
 223:Generated_Source\PSoC4/Comp_1.c ****     /* Returns offset trim value */
 224:Generated_Source\PSoC4/Comp_1.c ****     return (Comp_1_OA_OFFSET_TRIM_REG);
 225:Generated_Source\PSoC4/Comp_1.c **** }
 226:Generated_Source\PSoC4/Comp_1.c **** 
 227:Generated_Source\PSoC4/Comp_1.c **** 
 228:Generated_Source\PSoC4/Comp_1.c **** /*******************************************************************************
 229:Generated_Source\PSoC4/Comp_1.c **** * Function Name: Comp_1_LoadTrim
 230:Generated_Source\PSoC4/Comp_1.c **** ********************************************************************************
 231:Generated_Source\PSoC4/Comp_1.c **** *
 232:Generated_Source\PSoC4/Comp_1.c **** * Summary:
ARM GAS  C:\Users\Jeremias\AppData\Local\Temp\cckD3SuH.s 			page 9


 233:Generated_Source\PSoC4/Comp_1.c **** *  This function writes a value into the comparator offset trim register.
 234:Generated_Source\PSoC4/Comp_1.c **** *
 235:Generated_Source\PSoC4/Comp_1.c **** * Parameters:
 236:Generated_Source\PSoC4/Comp_1.c **** *  uint32 trimVal: Value to be stored in the comparator offset trim register. 
 237:Generated_Source\PSoC4/Comp_1.c **** *  This value has the same format as the parameter returned by the ZeroCal() 
 238:Generated_Source\PSoC4/Comp_1.c **** *  routine.
 239:Generated_Source\PSoC4/Comp_1.c **** *
 240:Generated_Source\PSoC4/Comp_1.c **** * Return:
 241:Generated_Source\PSoC4/Comp_1.c **** *  None
 242:Generated_Source\PSoC4/Comp_1.c **** *
 243:Generated_Source\PSoC4/Comp_1.c **** *******************************************************************************/
 244:Generated_Source\PSoC4/Comp_1.c **** void Comp_1_LoadTrim(uint32 trimVal)
 245:Generated_Source\PSoC4/Comp_1.c **** {
 225              		.loc 1 245 0
 226              		.cfi_startproc
 227              		@ args = 0, pretend = 0, frame = 0
 228              		@ frame_needed = 0, uses_anonymous_args = 0
 229              		@ link register save eliminated.
 230              	.LVL7:
 246:Generated_Source\PSoC4/Comp_1.c ****     Comp_1_OA_OFFSET_TRIM_REG = trimVal;
 231              		.loc 1 246 0
 232 0000 014B     		ldr	r3, .L18
 233 0002 1860     		str	r0, [r3]
 247:Generated_Source\PSoC4/Comp_1.c **** }
 234              		.loc 1 247 0
 235              		@ sp needed
 236 0004 7047     		bx	lr
 237              	.L19:
 238 0006 C046     		.align	2
 239              	.L18:
 240 0008 000F1040 		.word	1074794240
 241              		.cfi_endproc
 242              	.LFE6:
 243              		.size	Comp_1_LoadTrim, .-Comp_1_LoadTrim
 244              		.section	.text.Comp_1_GetCompare,"ax",%progbits
 245              		.align	2
 246              		.global	Comp_1_GetCompare
 247              		.code	16
 248              		.thumb_func
 249              		.type	Comp_1_GetCompare, %function
 250              	Comp_1_GetCompare:
 251              	.LFB7:
 248:Generated_Source\PSoC4/Comp_1.c **** 
 249:Generated_Source\PSoC4/Comp_1.c **** 
 250:Generated_Source\PSoC4/Comp_1.c **** /*******************************************************************************
 251:Generated_Source\PSoC4/Comp_1.c **** * Function Name: Comp_1_GetCompare
 252:Generated_Source\PSoC4/Comp_1.c **** ********************************************************************************
 253:Generated_Source\PSoC4/Comp_1.c **** *
 254:Generated_Source\PSoC4/Comp_1.c **** * Summary:
 255:Generated_Source\PSoC4/Comp_1.c **** *  This function returns a non-zero value when the voltage connected to the positive 
 256:Generated_Source\PSoC4/Comp_1.c **** *  input is greater than the negative input voltage. This value is not affected by 
 257:Generated_Source\PSoC4/Comp_1.c **** *  the Polarity parameter. This value always reflects a non-inverted state 
 258:Generated_Source\PSoC4/Comp_1.c **** *  configuration.
 259:Generated_Source\PSoC4/Comp_1.c **** *  This function reads the direct (unflopped) comparator output which can also be 
 260:Generated_Source\PSoC4/Comp_1.c **** *  metastable (since it may result in incorrect data).
 261:Generated_Source\PSoC4/Comp_1.c **** *
 262:Generated_Source\PSoC4/Comp_1.c **** * Parameters:
ARM GAS  C:\Users\Jeremias\AppData\Local\Temp\cckD3SuH.s 			page 10


 263:Generated_Source\PSoC4/Comp_1.c **** *   None
 264:Generated_Source\PSoC4/Comp_1.c **** *
 265:Generated_Source\PSoC4/Comp_1.c **** * Return:
 266:Generated_Source\PSoC4/Comp_1.c **** *  The comparator output state. A non-zero value when the positive input voltage is 
 267:Generated_Source\PSoC4/Comp_1.c **** *  greater than the negative input voltage; otherwise, the return value is zero.
 268:Generated_Source\PSoC4/Comp_1.c **** *
 269:Generated_Source\PSoC4/Comp_1.c **** *******************************************************************************/
 270:Generated_Source\PSoC4/Comp_1.c **** uint32 Comp_1_GetCompare(void)
 271:Generated_Source\PSoC4/Comp_1.c **** {
 252              		.loc 1 271 0
 253              		.cfi_startproc
 254              		@ args = 0, pretend = 0, frame = 0
 255              		@ frame_needed = 0, uses_anonymous_args = 0
 256              		@ link register save eliminated.
 272:Generated_Source\PSoC4/Comp_1.c ****     return ((uint32)(Comp_1_OA_COMP_STAT_REG >> Comp_1_OA_COMP_SHIFT) & 1u);
 257              		.loc 1 272 0
 258 0000 024B     		ldr	r3, .L21
 259 0002 1B68     		ldr	r3, [r3]
 260 0004 0120     		movs	r0, #1
 261 0006 1840     		ands	r0, r3
 273:Generated_Source\PSoC4/Comp_1.c **** }
 262              		.loc 1 273 0
 263              		@ sp needed
 264 0008 7047     		bx	lr
 265              	.L22:
 266 000a C046     		.align	2
 267              	.L21:
 268 000c 0C001040 		.word	1074790412
 269              		.cfi_endproc
 270              	.LFE7:
 271              		.size	Comp_1_GetCompare, .-Comp_1_GetCompare
 272              		.section	.text.Comp_1_ZeroCal,"ax",%progbits
 273              		.align	2
 274              		.global	Comp_1_ZeroCal
 275              		.code	16
 276              		.thumb_func
 277              		.type	Comp_1_ZeroCal, %function
 278              	Comp_1_ZeroCal:
 279              	.LFB5:
 190:Generated_Source\PSoC4/Comp_1.c ****     uint32 cmpOut;
 280              		.loc 1 190 0
 281              		.cfi_startproc
 282              		@ args = 0, pretend = 0, frame = 0
 283              		@ frame_needed = 0, uses_anonymous_args = 0
 284 0000 70B5     		push	{r4, r5, r6, lr}
 285              		.cfi_def_cfa_offset 16
 286              		.cfi_offset 4, -16
 287              		.cfi_offset 5, -12
 288              		.cfi_offset 6, -8
 289              		.cfi_offset 14, -4
 195:Generated_Source\PSoC4/Comp_1.c ****     Comp_1_OA_SLOPE_OFFSET_TRIM_REG = 0u;
 290              		.loc 1 195 0
 291 0002 0023     		movs	r3, #0
 292 0004 0F4A     		ldr	r2, .L28
 293 0006 1360     		str	r3, [r2]
 196:Generated_Source\PSoC4/Comp_1.c ****     
 294              		.loc 1 196 0
ARM GAS  C:\Users\Jeremias\AppData\Local\Temp\cckD3SuH.s 			page 11


 295 0008 0F4A     		ldr	r2, .L28+4
 296 000a 1360     		str	r3, [r2]
 199:Generated_Source\PSoC4/Comp_1.c ****     
 297              		.loc 1 199 0
 298 000c FFF7FEFF 		bl	Comp_1_GetCompare
 299              	.LVL8:
 300 0010 051E     		subs	r5, r0, #0
 301              	.LVL9:
 204:Generated_Source\PSoC4/Comp_1.c ****     {
 302              		.loc 1 204 0
 303 0012 04D1     		bne	.L24
 206:Generated_Source\PSoC4/Comp_1.c ****         Comp_1_OA_SLOPE_OFFSET_TRIM_REG = ((uint32) 1u << Comp_1_COMP_TRIM_SIGN_SHIFT);
 304              		.loc 1 206 0
 305 0014 2023     		movs	r3, #32
 306 0016 0B4A     		ldr	r2, .L28
 307 0018 1360     		str	r3, [r2]
 207:Generated_Source\PSoC4/Comp_1.c ****     }
 308              		.loc 1 207 0
 309 001a 0B4A     		ldr	r2, .L28+4
 310 001c 1360     		str	r3, [r2]
 311              	.L24:
 190:Generated_Source\PSoC4/Comp_1.c ****     uint32 cmpOut;
 312              		.loc 1 190 0 discriminator 1
 313 001e 2024     		movs	r4, #32
 314 0020 0BE0     		b	.L25
 315              	.LVL10:
 316              	.L27:
 215:Generated_Source\PSoC4/Comp_1.c ****         CyDelayUs(Comp_1_COMP_CALIBRATION_DELAY);
 317              		.loc 1 215 0
 318 0022 084A     		ldr	r2, .L28
 319 0024 1368     		ldr	r3, [r2]
 320 0026 0133     		adds	r3, r3, #1
 321 0028 1360     		str	r3, [r2]
 216:Generated_Source\PSoC4/Comp_1.c ****         if(cmpOut != Comp_1_GetCompare())
 322              		.loc 1 216 0
 323 002a 0A20     		movs	r0, #10
 324 002c FFF7FEFF 		bl	CyDelayUs
 325              	.LVL11:
 217:Generated_Source\PSoC4/Comp_1.c ****         {
 326              		.loc 1 217 0
 327 0030 FFF7FEFF 		bl	Comp_1_GetCompare
 328              	.LVL12:
 329 0034 8542     		cmp	r5, r0
 330 0036 02D1     		bne	.L26
 213:Generated_Source\PSoC4/Comp_1.c ****     {
 331              		.loc 1 213 0 discriminator 2
 332 0038 013C     		subs	r4, r4, #1
 333              	.LVL13:
 334              	.L25:
 213:Generated_Source\PSoC4/Comp_1.c ****     {
 335              		.loc 1 213 0 is_stmt 0 discriminator 1
 336 003a 002C     		cmp	r4, #0
 337 003c F1D1     		bne	.L27
 338              	.L26:
 224:Generated_Source\PSoC4/Comp_1.c **** }
 339              		.loc 1 224 0 is_stmt 1
 340 003e 014B     		ldr	r3, .L28
ARM GAS  C:\Users\Jeremias\AppData\Local\Temp\cckD3SuH.s 			page 12


 341 0040 1868     		ldr	r0, [r3]
 225:Generated_Source\PSoC4/Comp_1.c **** 
 342              		.loc 1 225 0
 343              		@ sp needed
 344              	.LVL14:
 345              	.LVL15:
 346 0042 70BD     		pop	{r4, r5, r6, pc}
 347              	.L29:
 348              		.align	2
 349              	.L28:
 350 0044 000F1040 		.word	1074794240
 351 0048 040F1040 		.word	1074794244
 352              		.cfi_endproc
 353              	.LFE5:
 354              		.size	Comp_1_ZeroCal, .-Comp_1_ZeroCal
 355              		.section	.text.Comp_1_GetInterruptSource,"ax",%progbits
 356              		.align	2
 357              		.global	Comp_1_GetInterruptSource
 358              		.code	16
 359              		.thumb_func
 360              		.type	Comp_1_GetInterruptSource, %function
 361              	Comp_1_GetInterruptSource:
 362              	.LFB8:
 274:Generated_Source\PSoC4/Comp_1.c **** 
 275:Generated_Source\PSoC4/Comp_1.c **** 
 276:Generated_Source\PSoC4/Comp_1.c **** /*******************************************************************************
 277:Generated_Source\PSoC4/Comp_1.c **** * Function Name: Comp_1_GetInterruptSource
 278:Generated_Source\PSoC4/Comp_1.c **** ********************************************************************************
 279:Generated_Source\PSoC4/Comp_1.c **** *
 280:Generated_Source\PSoC4/Comp_1.c **** * Summary:
 281:Generated_Source\PSoC4/Comp_1.c **** *  Gets the interrupt requests. This function is for use when using the combined
 282:Generated_Source\PSoC4/Comp_1.c **** *  interrupt signal from the global signal reference. This function from either
 283:Generated_Source\PSoC4/Comp_1.c **** *  component instance can be used to determine the interrupt source for all the
 284:Generated_Source\PSoC4/Comp_1.c **** *  comparator interrupts combined.
 285:Generated_Source\PSoC4/Comp_1.c **** *
 286:Generated_Source\PSoC4/Comp_1.c **** * Parameters:
 287:Generated_Source\PSoC4/Comp_1.c **** *  None
 288:Generated_Source\PSoC4/Comp_1.c **** *
 289:Generated_Source\PSoC4/Comp_1.c **** * Return:
 290:Generated_Source\PSoC4/Comp_1.c **** *  uint32: Interrupt source. Each component instance has a mask value:
 291:Generated_Source\PSoC4/Comp_1.c **** *  Comp_1_INTR.
 292:Generated_Source\PSoC4/Comp_1.c **** *
 293:Generated_Source\PSoC4/Comp_1.c **** *******************************************************************************/
 294:Generated_Source\PSoC4/Comp_1.c **** uint32 Comp_1_GetInterruptSource(void)
 295:Generated_Source\PSoC4/Comp_1.c **** {
 363              		.loc 1 295 0
 364              		.cfi_startproc
 365              		@ args = 0, pretend = 0, frame = 0
 366              		@ frame_needed = 0, uses_anonymous_args = 0
 367              		@ link register save eliminated.
 296:Generated_Source\PSoC4/Comp_1.c ****     return (Comp_1_INTR_REG); 
 368              		.loc 1 296 0
 369 0000 014B     		ldr	r3, .L31
 370 0002 1868     		ldr	r0, [r3]
 297:Generated_Source\PSoC4/Comp_1.c **** }
 371              		.loc 1 297 0
 372              		@ sp needed
ARM GAS  C:\Users\Jeremias\AppData\Local\Temp\cckD3SuH.s 			page 13


 373 0004 7047     		bx	lr
 374              	.L32:
 375 0006 C046     		.align	2
 376              	.L31:
 377 0008 20001040 		.word	1074790432
 378              		.cfi_endproc
 379              	.LFE8:
 380              		.size	Comp_1_GetInterruptSource, .-Comp_1_GetInterruptSource
 381              		.section	.text.Comp_1_ClearInterrupt,"ax",%progbits
 382              		.align	2
 383              		.global	Comp_1_ClearInterrupt
 384              		.code	16
 385              		.thumb_func
 386              		.type	Comp_1_ClearInterrupt, %function
 387              	Comp_1_ClearInterrupt:
 388              	.LFB9:
 298:Generated_Source\PSoC4/Comp_1.c **** 
 299:Generated_Source\PSoC4/Comp_1.c **** 
 300:Generated_Source\PSoC4/Comp_1.c **** /*******************************************************************************
 301:Generated_Source\PSoC4/Comp_1.c **** * Function Name: Comp_1_ClearInterrupt
 302:Generated_Source\PSoC4/Comp_1.c **** ********************************************************************************
 303:Generated_Source\PSoC4/Comp_1.c **** *
 304:Generated_Source\PSoC4/Comp_1.c **** * Summary:
 305:Generated_Source\PSoC4/Comp_1.c **** *  Clears the interrupt request. This function is for use when using the
 306:Generated_Source\PSoC4/Comp_1.c **** *  combined interrupt signal from the global signal reference. This function
 307:Generated_Source\PSoC4/Comp_1.c **** *  from either component instance can be used to clear either or both
 308:Generated_Source\PSoC4/Comp_1.c **** *  interrupts.
 309:Generated_Source\PSoC4/Comp_1.c **** *
 310:Generated_Source\PSoC4/Comp_1.c **** * Parameters:
 311:Generated_Source\PSoC4/Comp_1.c **** *  uint32 interruptMask: Mask of interrupts to clear. Each component instance
 312:Generated_Source\PSoC4/Comp_1.c **** *  has a mask value: Comp_1_INTR.
 313:Generated_Source\PSoC4/Comp_1.c **** *
 314:Generated_Source\PSoC4/Comp_1.c **** * Return:
 315:Generated_Source\PSoC4/Comp_1.c **** *  None
 316:Generated_Source\PSoC4/Comp_1.c **** *
 317:Generated_Source\PSoC4/Comp_1.c **** *******************************************************************************/
 318:Generated_Source\PSoC4/Comp_1.c **** void Comp_1_ClearInterrupt(uint32 interruptMask)
 319:Generated_Source\PSoC4/Comp_1.c **** {   
 389              		.loc 1 319 0
 390              		.cfi_startproc
 391              		@ args = 0, pretend = 0, frame = 0
 392              		@ frame_needed = 0, uses_anonymous_args = 0
 393              		@ link register save eliminated.
 394              	.LVL16:
 320:Generated_Source\PSoC4/Comp_1.c ****     Comp_1_INTR_REG = interruptMask;
 395              		.loc 1 320 0
 396 0000 014B     		ldr	r3, .L34
 397 0002 1860     		str	r0, [r3]
 321:Generated_Source\PSoC4/Comp_1.c **** }
 398              		.loc 1 321 0
 399              		@ sp needed
 400 0004 7047     		bx	lr
 401              	.L35:
 402 0006 C046     		.align	2
 403              	.L34:
 404 0008 20001040 		.word	1074790432
 405              		.cfi_endproc
ARM GAS  C:\Users\Jeremias\AppData\Local\Temp\cckD3SuH.s 			page 14


 406              	.LFE9:
 407              		.size	Comp_1_ClearInterrupt, .-Comp_1_ClearInterrupt
 408              		.section	.text.Comp_1_SetInterrupt,"ax",%progbits
 409              		.align	2
 410              		.global	Comp_1_SetInterrupt
 411              		.code	16
 412              		.thumb_func
 413              		.type	Comp_1_SetInterrupt, %function
 414              	Comp_1_SetInterrupt:
 415              	.LFB10:
 322:Generated_Source\PSoC4/Comp_1.c **** 
 323:Generated_Source\PSoC4/Comp_1.c **** 
 324:Generated_Source\PSoC4/Comp_1.c **** /*******************************************************************************
 325:Generated_Source\PSoC4/Comp_1.c **** * Function Name: Comp_1_SetInterrupt
 326:Generated_Source\PSoC4/Comp_1.c **** ********************************************************************************
 327:Generated_Source\PSoC4/Comp_1.c **** *
 328:Generated_Source\PSoC4/Comp_1.c **** * Summary:
 329:Generated_Source\PSoC4/Comp_1.c **** *  Sets a software interrupt request. This function is for use when using the
 330:Generated_Source\PSoC4/Comp_1.c **** *  combined interrupt signal from the global signal reference. This function
 331:Generated_Source\PSoC4/Comp_1.c **** *  from either component instance can be used to trigger either or both software
 332:Generated_Source\PSoC4/Comp_1.c **** *  interrupts.
 333:Generated_Source\PSoC4/Comp_1.c **** *
 334:Generated_Source\PSoC4/Comp_1.c **** * Parameters:
 335:Generated_Source\PSoC4/Comp_1.c **** *  uint32 interruptMask: Mask of interrupts to set. Each component instance has
 336:Generated_Source\PSoC4/Comp_1.c **** *  a mask value: Comp_1_INTR_SET.
 337:Generated_Source\PSoC4/Comp_1.c **** *
 338:Generated_Source\PSoC4/Comp_1.c **** * Return:
 339:Generated_Source\PSoC4/Comp_1.c **** *  None
 340:Generated_Source\PSoC4/Comp_1.c **** *
 341:Generated_Source\PSoC4/Comp_1.c **** *******************************************************************************/
 342:Generated_Source\PSoC4/Comp_1.c **** void Comp_1_SetInterrupt(uint32 interruptMask)
 343:Generated_Source\PSoC4/Comp_1.c **** {
 416              		.loc 1 343 0
 417              		.cfi_startproc
 418              		@ args = 0, pretend = 0, frame = 0
 419              		@ frame_needed = 0, uses_anonymous_args = 0
 420              	.LVL17:
 421 0000 10B5     		push	{r4, lr}
 422              		.cfi_def_cfa_offset 8
 423              		.cfi_offset 4, -8
 424              		.cfi_offset 14, -4
 425 0002 0400     		movs	r4, r0
 344:Generated_Source\PSoC4/Comp_1.c ****     uint8 enableInterrupts;
 345:Generated_Source\PSoC4/Comp_1.c ****     
 346:Generated_Source\PSoC4/Comp_1.c ****     enableInterrupts = CyEnterCriticalSection();
 426              		.loc 1 346 0
 427 0004 FFF7FEFF 		bl	CyEnterCriticalSection
 428              	.LVL18:
 347:Generated_Source\PSoC4/Comp_1.c ****     Comp_1_INTR_SET_REG |= interruptMask;
 429              		.loc 1 347 0
 430 0008 034B     		ldr	r3, .L37
 431 000a 1A68     		ldr	r2, [r3]
 432 000c 1443     		orrs	r4, r2
 433              	.LVL19:
 434 000e 1C60     		str	r4, [r3]
 348:Generated_Source\PSoC4/Comp_1.c ****     CyExitCriticalSection(enableInterrupts);
 435              		.loc 1 348 0
ARM GAS  C:\Users\Jeremias\AppData\Local\Temp\cckD3SuH.s 			page 15


 436 0010 FFF7FEFF 		bl	CyExitCriticalSection
 437              	.LVL20:
 349:Generated_Source\PSoC4/Comp_1.c **** }
 438              		.loc 1 349 0
 439              		@ sp needed
 440 0014 10BD     		pop	{r4, pc}
 441              	.L38:
 442 0016 C046     		.align	2
 443              	.L37:
 444 0018 24001040 		.word	1074790436
 445              		.cfi_endproc
 446              	.LFE10:
 447              		.size	Comp_1_SetInterrupt, .-Comp_1_SetInterrupt
 448              		.section	.text.Comp_1_SetInterruptMask,"ax",%progbits
 449              		.align	2
 450              		.global	Comp_1_SetInterruptMask
 451              		.code	16
 452              		.thumb_func
 453              		.type	Comp_1_SetInterruptMask, %function
 454              	Comp_1_SetInterruptMask:
 455              	.LFB11:
 350:Generated_Source\PSoC4/Comp_1.c **** 
 351:Generated_Source\PSoC4/Comp_1.c **** 
 352:Generated_Source\PSoC4/Comp_1.c **** /*******************************************************************************
 353:Generated_Source\PSoC4/Comp_1.c **** * Function Name: Comp_1_SetInterruptMask
 354:Generated_Source\PSoC4/Comp_1.c **** ********************************************************************************
 355:Generated_Source\PSoC4/Comp_1.c **** *
 356:Generated_Source\PSoC4/Comp_1.c **** * Summary:
 357:Generated_Source\PSoC4/Comp_1.c **** *  Configures the interrupt mask for all comparators in the system.
 358:Generated_Source\PSoC4/Comp_1.c **** *
 359:Generated_Source\PSoC4/Comp_1.c **** * Parameters:
 360:Generated_Source\PSoC4/Comp_1.c **** *  uint32 interruptMask: Bit-mask of interrupt sources to be enabled. Each 
 361:Generated_Source\PSoC4/Comp_1.c **** *  component instance has a mask value: Comp_1_INTR_MASK.
 362:Generated_Source\PSoC4/Comp_1.c **** *
 363:Generated_Source\PSoC4/Comp_1.c **** * Return:
 364:Generated_Source\PSoC4/Comp_1.c **** *  None
 365:Generated_Source\PSoC4/Comp_1.c **** *
 366:Generated_Source\PSoC4/Comp_1.c **** *******************************************************************************/
 367:Generated_Source\PSoC4/Comp_1.c **** void Comp_1_SetInterruptMask(uint32 interruptMask)
 368:Generated_Source\PSoC4/Comp_1.c **** {
 456              		.loc 1 368 0
 457              		.cfi_startproc
 458              		@ args = 0, pretend = 0, frame = 0
 459              		@ frame_needed = 0, uses_anonymous_args = 0
 460              		@ link register save eliminated.
 461              	.LVL21:
 369:Generated_Source\PSoC4/Comp_1.c ****     Comp_1_INTR_MASK_REG = interruptMask;
 462              		.loc 1 369 0
 463 0000 014B     		ldr	r3, .L40
 464 0002 1860     		str	r0, [r3]
 370:Generated_Source\PSoC4/Comp_1.c **** }
 465              		.loc 1 370 0
 466              		@ sp needed
 467 0004 7047     		bx	lr
 468              	.L41:
 469 0006 C046     		.align	2
 470              	.L40:
ARM GAS  C:\Users\Jeremias\AppData\Local\Temp\cckD3SuH.s 			page 16


 471 0008 28001040 		.word	1074790440
 472              		.cfi_endproc
 473              	.LFE11:
 474              		.size	Comp_1_SetInterruptMask, .-Comp_1_SetInterruptMask
 475              		.section	.text.Comp_1_GetInterruptMask,"ax",%progbits
 476              		.align	2
 477              		.global	Comp_1_GetInterruptMask
 478              		.code	16
 479              		.thumb_func
 480              		.type	Comp_1_GetInterruptMask, %function
 481              	Comp_1_GetInterruptMask:
 482              	.LFB12:
 371:Generated_Source\PSoC4/Comp_1.c **** 
 372:Generated_Source\PSoC4/Comp_1.c **** 
 373:Generated_Source\PSoC4/Comp_1.c **** /*******************************************************************************
 374:Generated_Source\PSoC4/Comp_1.c **** * Function Name: Comp_1_GetInterruptMask
 375:Generated_Source\PSoC4/Comp_1.c **** ********************************************************************************
 376:Generated_Source\PSoC4/Comp_1.c **** *
 377:Generated_Source\PSoC4/Comp_1.c **** * Summary:
 378:Generated_Source\PSoC4/Comp_1.c **** *  Returns interrupt mask for all comparators.
 379:Generated_Source\PSoC4/Comp_1.c **** *
 380:Generated_Source\PSoC4/Comp_1.c **** * Parameters:
 381:Generated_Source\PSoC4/Comp_1.c **** *  None
 382:Generated_Source\PSoC4/Comp_1.c **** *
 383:Generated_Source\PSoC4/Comp_1.c **** * Return:
 384:Generated_Source\PSoC4/Comp_1.c **** *  uint32:  Mask of enabled interrupt source. Each component instance 
 385:Generated_Source\PSoC4/Comp_1.c **** *  has a mask value: Comp_1_INTR_MASK.
 386:Generated_Source\PSoC4/Comp_1.c **** *
 387:Generated_Source\PSoC4/Comp_1.c **** *******************************************************************************/
 388:Generated_Source\PSoC4/Comp_1.c **** uint32 Comp_1_GetInterruptMask(void)
 389:Generated_Source\PSoC4/Comp_1.c **** {
 483              		.loc 1 389 0
 484              		.cfi_startproc
 485              		@ args = 0, pretend = 0, frame = 0
 486              		@ frame_needed = 0, uses_anonymous_args = 0
 487              		@ link register save eliminated.
 390:Generated_Source\PSoC4/Comp_1.c ****     return (Comp_1_INTR_MASK_REG);
 488              		.loc 1 390 0
 489 0000 014B     		ldr	r3, .L43
 490 0002 1868     		ldr	r0, [r3]
 391:Generated_Source\PSoC4/Comp_1.c **** }
 491              		.loc 1 391 0
 492              		@ sp needed
 493 0004 7047     		bx	lr
 494              	.L44:
 495 0006 C046     		.align	2
 496              	.L43:
 497 0008 28001040 		.word	1074790440
 498              		.cfi_endproc
 499              	.LFE12:
 500              		.size	Comp_1_GetInterruptMask, .-Comp_1_GetInterruptMask
 501              		.section	.text.Comp_1_GetInterruptSourceMasked,"ax",%progbits
 502              		.align	2
 503              		.global	Comp_1_GetInterruptSourceMasked
 504              		.code	16
 505              		.thumb_func
 506              		.type	Comp_1_GetInterruptSourceMasked, %function
ARM GAS  C:\Users\Jeremias\AppData\Local\Temp\cckD3SuH.s 			page 17


 507              	Comp_1_GetInterruptSourceMasked:
 508              	.LFB13:
 392:Generated_Source\PSoC4/Comp_1.c **** 
 393:Generated_Source\PSoC4/Comp_1.c **** 
 394:Generated_Source\PSoC4/Comp_1.c **** /*******************************************************************************
 395:Generated_Source\PSoC4/Comp_1.c **** * Function Name: Comp_1_GetInterruptSourceMasked
 396:Generated_Source\PSoC4/Comp_1.c **** ********************************************************************************
 397:Generated_Source\PSoC4/Comp_1.c **** *
 398:Generated_Source\PSoC4/Comp_1.c **** * Summary:
 399:Generated_Source\PSoC4/Comp_1.c **** *  Returns interrupt request register masked by interrupt mask for all comparators. 
 400:Generated_Source\PSoC4/Comp_1.c **** *  Returns the result of bitwise AND operation between corresponding interrupt 
 401:Generated_Source\PSoC4/Comp_1.c **** *  request and mask bits.
 402:Generated_Source\PSoC4/Comp_1.c **** *
 403:Generated_Source\PSoC4/Comp_1.c **** * Parameters:
 404:Generated_Source\PSoC4/Comp_1.c **** *  None
 405:Generated_Source\PSoC4/Comp_1.c **** *
 406:Generated_Source\PSoC4/Comp_1.c **** * Return:
 407:Generated_Source\PSoC4/Comp_1.c **** *  uint32: Status of enabled interrupt source. Each component instance 
 408:Generated_Source\PSoC4/Comp_1.c **** *  has a mask value: Comp_1_INTR_MASKED.
 409:Generated_Source\PSoC4/Comp_1.c **** *
 410:Generated_Source\PSoC4/Comp_1.c **** *******************************************************************************/
 411:Generated_Source\PSoC4/Comp_1.c **** uint32 Comp_1_GetInterruptSourceMasked(void)
 412:Generated_Source\PSoC4/Comp_1.c **** {
 509              		.loc 1 412 0
 510              		.cfi_startproc
 511              		@ args = 0, pretend = 0, frame = 0
 512              		@ frame_needed = 0, uses_anonymous_args = 0
 513              		@ link register save eliminated.
 413:Generated_Source\PSoC4/Comp_1.c ****     return (Comp_1_INTR_MASKED_REG);
 514              		.loc 1 413 0
 515 0000 014B     		ldr	r3, .L46
 516 0002 1868     		ldr	r0, [r3]
 414:Generated_Source\PSoC4/Comp_1.c **** }
 517              		.loc 1 414 0
 518              		@ sp needed
 519 0004 7047     		bx	lr
 520              	.L47:
 521 0006 C046     		.align	2
 522              	.L46:
 523 0008 2C001040 		.word	1074790444
 524              		.cfi_endproc
 525              	.LFE13:
 526              		.size	Comp_1_GetInterruptSourceMasked, .-Comp_1_GetInterruptSourceMasked
 527              		.section	.text.Comp_1_SetInterruptMode,"ax",%progbits
 528              		.align	2
 529              		.global	Comp_1_SetInterruptMode
 530              		.code	16
 531              		.thumb_func
 532              		.type	Comp_1_SetInterruptMode, %function
 533              	Comp_1_SetInterruptMode:
 534              	.LFB14:
 415:Generated_Source\PSoC4/Comp_1.c **** 
 416:Generated_Source\PSoC4/Comp_1.c **** /*******************************************************************************
 417:Generated_Source\PSoC4/Comp_1.c **** * Function Name: Comp_1_SetInterruptMode
 418:Generated_Source\PSoC4/Comp_1.c **** ********************************************************************************
 419:Generated_Source\PSoC4/Comp_1.c **** *
 420:Generated_Source\PSoC4/Comp_1.c **** * Summary:
ARM GAS  C:\Users\Jeremias\AppData\Local\Temp\cckD3SuH.s 			page 18


 421:Generated_Source\PSoC4/Comp_1.c **** *  Sets the interrupt edge detect mode.
 422:Generated_Source\PSoC4/Comp_1.c **** *
 423:Generated_Source\PSoC4/Comp_1.c **** * Parameters:
 424:Generated_Source\PSoC4/Comp_1.c **** *  uint32 mode: Enumerated edge detect mode value:
 425:Generated_Source\PSoC4/Comp_1.c **** *  Comp_1_INTR_DISABLE - Disable
 426:Generated_Source\PSoC4/Comp_1.c **** *  Comp_1_INTR_RISING  - Rising edge detect
 427:Generated_Source\PSoC4/Comp_1.c **** *  Comp_1_INTR_FALLING - Falling edge detect
 428:Generated_Source\PSoC4/Comp_1.c **** *  Comp_1_INTR_BOTH    - Detect both edges
 429:Generated_Source\PSoC4/Comp_1.c **** *
 430:Generated_Source\PSoC4/Comp_1.c **** * Return:
 431:Generated_Source\PSoC4/Comp_1.c **** *  None
 432:Generated_Source\PSoC4/Comp_1.c **** *
 433:Generated_Source\PSoC4/Comp_1.c **** *******************************************************************************/
 434:Generated_Source\PSoC4/Comp_1.c **** void Comp_1_SetInterruptMode(uint32 mode)
 435:Generated_Source\PSoC4/Comp_1.c **** {
 535              		.loc 1 435 0
 536              		.cfi_startproc
 537              		@ args = 0, pretend = 0, frame = 0
 538              		@ frame_needed = 0, uses_anonymous_args = 0
 539              		@ link register save eliminated.
 540              	.LVL22:
 436:Generated_Source\PSoC4/Comp_1.c ****     uint32 tmp;
 437:Generated_Source\PSoC4/Comp_1.c **** 
 438:Generated_Source\PSoC4/Comp_1.c ****     tmp = Comp_1_OA_RES_CTRL_REG & (uint32)~Comp_1_OA_COMPINT_MASK;
 541              		.loc 1 438 0
 542 0000 0549     		ldr	r1, .L49
 543 0002 0A68     		ldr	r2, [r1]
 544 0004 054B     		ldr	r3, .L49+4
 545 0006 1A40     		ands	r2, r3
 546              	.LVL23:
 439:Generated_Source\PSoC4/Comp_1.c ****     Comp_1_OA_RES_CTRL_REG = tmp | Comp_1_GET_OA_COMPINT(mode);
 547              		.loc 1 439 0
 548 0008 0002     		lsls	r0, r0, #8
 549              	.LVL24:
 550 000a C023     		movs	r3, #192
 551 000c 9B00     		lsls	r3, r3, #2
 552 000e 1840     		ands	r0, r3
 553 0010 1043     		orrs	r0, r2
 554 0012 0860     		str	r0, [r1]
 440:Generated_Source\PSoC4/Comp_1.c **** }
 555              		.loc 1 440 0
 556              		@ sp needed
 557 0014 7047     		bx	lr
 558              	.L50:
 559 0016 C046     		.align	2
 560              	.L49:
 561 0018 04001040 		.word	1074790404
 562 001c FFFCFFFF 		.word	-769
 563              		.cfi_endproc
 564              	.LFE14:
 565              		.size	Comp_1_SetInterruptMode, .-Comp_1_SetInterruptMode
 566              		.section	.text.Comp_1_DisableInterruptOutput,"ax",%progbits
 567              		.align	2
 568              		.global	Comp_1_DisableInterruptOutput
 569              		.code	16
 570              		.thumb_func
 571              		.type	Comp_1_DisableInterruptOutput, %function
ARM GAS  C:\Users\Jeremias\AppData\Local\Temp\cckD3SuH.s 			page 19


 572              	Comp_1_DisableInterruptOutput:
 573              	.LFB15:
 441:Generated_Source\PSoC4/Comp_1.c **** 
 442:Generated_Source\PSoC4/Comp_1.c **** /*******************************************************************************
 443:Generated_Source\PSoC4/Comp_1.c **** * Function Name: Comp_1_DisableInterruptOutput
 444:Generated_Source\PSoC4/Comp_1.c **** ********************************************************************************
 445:Generated_Source\PSoC4/Comp_1.c **** *
 446:Generated_Source\PSoC4/Comp_1.c **** * Summary:
 447:Generated_Source\PSoC4/Comp_1.c **** *  Disables the interrupt output so that it will not be ORed to the global 
 448:Generated_Source\PSoC4/Comp_1.c **** *  Signal CTBmInt with the other comparator interrupt outputs.  
 449:Generated_Source\PSoC4/Comp_1.c **** *
 450:Generated_Source\PSoC4/Comp_1.c **** * Parameters:
 451:Generated_Source\PSoC4/Comp_1.c **** *  None
 452:Generated_Source\PSoC4/Comp_1.c **** *
 453:Generated_Source\PSoC4/Comp_1.c **** * Return:
 454:Generated_Source\PSoC4/Comp_1.c **** *  None
 455:Generated_Source\PSoC4/Comp_1.c **** *
 456:Generated_Source\PSoC4/Comp_1.c **** *******************************************************************************/
 457:Generated_Source\PSoC4/Comp_1.c **** void Comp_1_DisableInterruptOutput(void)
 458:Generated_Source\PSoC4/Comp_1.c **** {
 574              		.loc 1 458 0
 575              		.cfi_startproc
 576              		@ args = 0, pretend = 0, frame = 0
 577              		@ frame_needed = 0, uses_anonymous_args = 0
 578 0000 10B5     		push	{r4, lr}
 579              		.cfi_def_cfa_offset 8
 580              		.cfi_offset 4, -8
 581              		.cfi_offset 14, -4
 459:Generated_Source\PSoC4/Comp_1.c ****     uint8 enableInterrupts;
 460:Generated_Source\PSoC4/Comp_1.c **** 
 461:Generated_Source\PSoC4/Comp_1.c ****     enableInterrupts = CyEnterCriticalSection();
 582              		.loc 1 461 0
 583 0002 FFF7FEFF 		bl	CyEnterCriticalSection
 584              	.LVL25:
 462:Generated_Source\PSoC4/Comp_1.c ****     Comp_1_INTR_MASK_REG &= ~Comp_1_INTR_MASK;
 585              		.loc 1 462 0
 586 0006 044A     		ldr	r2, .L52
 587 0008 1368     		ldr	r3, [r2]
 588 000a 0121     		movs	r1, #1
 589 000c 8B43     		bics	r3, r1
 590 000e 1360     		str	r3, [r2]
 463:Generated_Source\PSoC4/Comp_1.c ****     CyExitCriticalSection(enableInterrupts);
 591              		.loc 1 463 0
 592 0010 FFF7FEFF 		bl	CyExitCriticalSection
 593              	.LVL26:
 464:Generated_Source\PSoC4/Comp_1.c **** }
 594              		.loc 1 464 0
 595              		@ sp needed
 596 0014 10BD     		pop	{r4, pc}
 597              	.L53:
 598 0016 C046     		.align	2
 599              	.L52:
 600 0018 28001040 		.word	1074790440
 601              		.cfi_endproc
 602              	.LFE15:
 603              		.size	Comp_1_DisableInterruptOutput, .-Comp_1_DisableInterruptOutput
 604              		.global	Comp_1_initVar
ARM GAS  C:\Users\Jeremias\AppData\Local\Temp\cckD3SuH.s 			page 20


 605              		.bss
 606              		.align	2
 607              		.set	.LANCHOR0,. + 0
 608              		.type	Comp_1_internalSpeed, %object
 609              		.size	Comp_1_internalSpeed, 4
 610              	Comp_1_internalSpeed:
 611 0000 00000000 		.space	4
 612              		.type	Comp_1_initVar, %object
 613              		.size	Comp_1_initVar, 1
 614              	Comp_1_initVar:
 615 0004 00       		.space	1
 616              		.text
 617              	.Letext0:
 618              		.file 2 "Generated_Source\\PSoC4\\cytypes.h"
 619              		.file 3 "Generated_Source\\PSoC4\\CyLib.h"