ARM GAS  C:\Users\Jeremias\AppData\Local\Temp\cceCiwLh.s 			page 1


   1              		.syntax unified
   2              		.cpu cortex-m0
   3              		.fpu softvfp
   4              		.eabi_attribute 20, 1
   5              		.eabi_attribute 21, 1
   6              		.eabi_attribute 23, 3
   7              		.eabi_attribute 24, 1
   8              		.eabi_attribute 25, 1
   9              		.eabi_attribute 26, 1
  10              		.eabi_attribute 30, 1
  11              		.eabi_attribute 34, 0
  12              		.eabi_attribute 18, 4
  13              		.thumb
  14              		.syntax unified
  15              		.file	"cyfitter_cfg.c"
  16              		.text
  17              	.Ltext0:
  18              		.cfi_sections	.debug_frame
  19              		.section	.text.cfg_write_bytes32,"ax",%progbits
  20              		.align	2
  21              		.code	16
  22              		.thumb_func
  23              		.type	cfg_write_bytes32, %function
  24              	cfg_write_bytes32:
  25              	.LFB3:
  26              		.file 1 "Generated_Source\\PSoC4\\cyfitter_cfg.c"
   1:Generated_Source\PSoC4/cyfitter_cfg.c **** 
   2:Generated_Source\PSoC4/cyfitter_cfg.c **** /*******************************************************************************
   3:Generated_Source\PSoC4/cyfitter_cfg.c **** * File Name: cyfitter_cfg.c
   4:Generated_Source\PSoC4/cyfitter_cfg.c **** * 
   5:Generated_Source\PSoC4/cyfitter_cfg.c **** * PSoC Creator  4.4
   6:Generated_Source\PSoC4/cyfitter_cfg.c **** *
   7:Generated_Source\PSoC4/cyfitter_cfg.c **** * Description:
   8:Generated_Source\PSoC4/cyfitter_cfg.c **** * This file contains device initialization code.
   9:Generated_Source\PSoC4/cyfitter_cfg.c **** * Except for the user defined sections in CyClockStartupError(), this file should not be modified.
  10:Generated_Source\PSoC4/cyfitter_cfg.c **** * This file is automatically generated by PSoC Creator.
  11:Generated_Source\PSoC4/cyfitter_cfg.c **** *
  12:Generated_Source\PSoC4/cyfitter_cfg.c **** ********************************************************************************
  13:Generated_Source\PSoC4/cyfitter_cfg.c **** * Copyright (c) 2007-2020 Cypress Semiconductor.  All rights reserved.
  14:Generated_Source\PSoC4/cyfitter_cfg.c **** * You may use this file only in accordance with the license, terms, conditions, 
  15:Generated_Source\PSoC4/cyfitter_cfg.c **** * disclaimers, and limitations in the end user license agreement accompanying 
  16:Generated_Source\PSoC4/cyfitter_cfg.c **** * the software package with which this file was provided.
  17:Generated_Source\PSoC4/cyfitter_cfg.c **** ********************************************************************************/
  18:Generated_Source\PSoC4/cyfitter_cfg.c **** 
  19:Generated_Source\PSoC4/cyfitter_cfg.c **** #include <string.h>
  20:Generated_Source\PSoC4/cyfitter_cfg.c **** #include "cytypes.h"
  21:Generated_Source\PSoC4/cyfitter_cfg.c **** #include "cydevice_trm.h"
  22:Generated_Source\PSoC4/cyfitter_cfg.c **** #include "cyfitter.h"
  23:Generated_Source\PSoC4/cyfitter_cfg.c **** #include "CyLib.h"
  24:Generated_Source\PSoC4/cyfitter_cfg.c **** #include "CyLFClk.h"
  25:Generated_Source\PSoC4/cyfitter_cfg.c **** #include "cyfitter_cfg.h"
  26:Generated_Source\PSoC4/cyfitter_cfg.c **** #include "cyapicallbacks.h"
  27:Generated_Source\PSoC4/cyfitter_cfg.c **** 
  28:Generated_Source\PSoC4/cyfitter_cfg.c **** 
  29:Generated_Source\PSoC4/cyfitter_cfg.c **** #if defined(__GNUC__) || defined(__ARMCC_VERSION)
  30:Generated_Source\PSoC4/cyfitter_cfg.c ****     #define CYPACKED 
  31:Generated_Source\PSoC4/cyfitter_cfg.c ****     #define CYPACKED_ATTR __attribute__ ((packed))
ARM GAS  C:\Users\Jeremias\AppData\Local\Temp\cceCiwLh.s 			page 2


  32:Generated_Source\PSoC4/cyfitter_cfg.c ****     #define CYALIGNED __attribute__ ((aligned))
  33:Generated_Source\PSoC4/cyfitter_cfg.c ****     #define CY_CFG_UNUSED __attribute__ ((unused))
  34:Generated_Source\PSoC4/cyfitter_cfg.c ****     #ifndef CY_CFG_SECTION
  35:Generated_Source\PSoC4/cyfitter_cfg.c ****         #define CY_CFG_SECTION __attribute__ ((section(".psocinit")))
  36:Generated_Source\PSoC4/cyfitter_cfg.c ****     #endif
  37:Generated_Source\PSoC4/cyfitter_cfg.c ****     
  38:Generated_Source\PSoC4/cyfitter_cfg.c ****     #if defined(__ARMCC_VERSION)
  39:Generated_Source\PSoC4/cyfitter_cfg.c ****         #define CY_CFG_MEMORY_BARRIER() __memory_changed()
  40:Generated_Source\PSoC4/cyfitter_cfg.c ****     #else
  41:Generated_Source\PSoC4/cyfitter_cfg.c ****         #define CY_CFG_MEMORY_BARRIER() __sync_synchronize()
  42:Generated_Source\PSoC4/cyfitter_cfg.c ****     #endif
  43:Generated_Source\PSoC4/cyfitter_cfg.c ****     
  44:Generated_Source\PSoC4/cyfitter_cfg.c **** #elif defined(__ICCARM__)
  45:Generated_Source\PSoC4/cyfitter_cfg.c ****     #include <intrinsics.h>
  46:Generated_Source\PSoC4/cyfitter_cfg.c **** 
  47:Generated_Source\PSoC4/cyfitter_cfg.c ****     #define CYPACKED __packed
  48:Generated_Source\PSoC4/cyfitter_cfg.c ****     #define CYPACKED_ATTR 
  49:Generated_Source\PSoC4/cyfitter_cfg.c ****     #define CYALIGNED _Pragma("data_alignment=4")
  50:Generated_Source\PSoC4/cyfitter_cfg.c ****     #define CY_CFG_UNUSED _Pragma("diag_suppress=Pe177")
  51:Generated_Source\PSoC4/cyfitter_cfg.c ****     #define CY_CFG_SECTION _Pragma("location=\".psocinit\"")
  52:Generated_Source\PSoC4/cyfitter_cfg.c ****     
  53:Generated_Source\PSoC4/cyfitter_cfg.c ****     #define CY_CFG_MEMORY_BARRIER() __DMB()
  54:Generated_Source\PSoC4/cyfitter_cfg.c ****     
  55:Generated_Source\PSoC4/cyfitter_cfg.c **** #else
  56:Generated_Source\PSoC4/cyfitter_cfg.c ****     #error Unsupported toolchain
  57:Generated_Source\PSoC4/cyfitter_cfg.c **** #endif
  58:Generated_Source\PSoC4/cyfitter_cfg.c **** 
  59:Generated_Source\PSoC4/cyfitter_cfg.c **** #ifndef CYCODE
  60:Generated_Source\PSoC4/cyfitter_cfg.c ****     #define CYCODE
  61:Generated_Source\PSoC4/cyfitter_cfg.c **** #endif
  62:Generated_Source\PSoC4/cyfitter_cfg.c **** #ifndef CYDATA
  63:Generated_Source\PSoC4/cyfitter_cfg.c ****     #define CYDATA
  64:Generated_Source\PSoC4/cyfitter_cfg.c **** #endif
  65:Generated_Source\PSoC4/cyfitter_cfg.c **** #ifndef CYFAR
  66:Generated_Source\PSoC4/cyfitter_cfg.c ****     #define CYFAR
  67:Generated_Source\PSoC4/cyfitter_cfg.c **** #endif
  68:Generated_Source\PSoC4/cyfitter_cfg.c **** #ifndef CYXDATA
  69:Generated_Source\PSoC4/cyfitter_cfg.c ****     #define CYXDATA
  70:Generated_Source\PSoC4/cyfitter_cfg.c **** #endif
  71:Generated_Source\PSoC4/cyfitter_cfg.c **** 
  72:Generated_Source\PSoC4/cyfitter_cfg.c **** 
  73:Generated_Source\PSoC4/cyfitter_cfg.c **** CY_CFG_UNUSED
  74:Generated_Source\PSoC4/cyfitter_cfg.c **** static void CYMEMZERO(void *s, size_t n);
  75:Generated_Source\PSoC4/cyfitter_cfg.c **** CY_CFG_UNUSED
  76:Generated_Source\PSoC4/cyfitter_cfg.c **** static void CYMEMZERO(void *s, size_t n)
  77:Generated_Source\PSoC4/cyfitter_cfg.c **** {
  78:Generated_Source\PSoC4/cyfitter_cfg.c **** 	(void)memset(s, 0, n);
  79:Generated_Source\PSoC4/cyfitter_cfg.c **** }
  80:Generated_Source\PSoC4/cyfitter_cfg.c **** CY_CFG_UNUSED
  81:Generated_Source\PSoC4/cyfitter_cfg.c **** static void CYCONFIGCPY(void *dest, const void *src, size_t n);
  82:Generated_Source\PSoC4/cyfitter_cfg.c **** CY_CFG_UNUSED
  83:Generated_Source\PSoC4/cyfitter_cfg.c **** static void CYCONFIGCPY(void *dest, const void *src, size_t n)
  84:Generated_Source\PSoC4/cyfitter_cfg.c **** {
  85:Generated_Source\PSoC4/cyfitter_cfg.c **** 	(void)memcpy(dest, src, n);
  86:Generated_Source\PSoC4/cyfitter_cfg.c **** }
  87:Generated_Source\PSoC4/cyfitter_cfg.c **** CY_CFG_UNUSED
  88:Generated_Source\PSoC4/cyfitter_cfg.c **** static void CYCONFIGCPYCODE(void *dest, const void *src, size_t n);
ARM GAS  C:\Users\Jeremias\AppData\Local\Temp\cceCiwLh.s 			page 3


  89:Generated_Source\PSoC4/cyfitter_cfg.c **** CY_CFG_UNUSED
  90:Generated_Source\PSoC4/cyfitter_cfg.c **** static void CYCONFIGCPYCODE(void *dest, const void *src, size_t n)
  91:Generated_Source\PSoC4/cyfitter_cfg.c **** {
  92:Generated_Source\PSoC4/cyfitter_cfg.c **** 	(void)memcpy(dest, src, n);
  93:Generated_Source\PSoC4/cyfitter_cfg.c **** }
  94:Generated_Source\PSoC4/cyfitter_cfg.c **** 
  95:Generated_Source\PSoC4/cyfitter_cfg.c **** 
  96:Generated_Source\PSoC4/cyfitter_cfg.c **** 
  97:Generated_Source\PSoC4/cyfitter_cfg.c **** 
  98:Generated_Source\PSoC4/cyfitter_cfg.c **** /* Clock startup error codes                                                   */
  99:Generated_Source\PSoC4/cyfitter_cfg.c **** #define CYCLOCKSTART_NO_ERROR    0u
 100:Generated_Source\PSoC4/cyfitter_cfg.c **** #define CYCLOCKSTART_XTAL_ERROR  1u
 101:Generated_Source\PSoC4/cyfitter_cfg.c **** #define CYCLOCKSTART_32KHZ_ERROR 2u
 102:Generated_Source\PSoC4/cyfitter_cfg.c **** #define CYCLOCKSTART_PLL_ERROR   3u
 103:Generated_Source\PSoC4/cyfitter_cfg.c **** #define CYCLOCKSTART_FLL_ERROR   4u
 104:Generated_Source\PSoC4/cyfitter_cfg.c **** #define CYCLOCKSTART_WCO_ERROR   5u
 105:Generated_Source\PSoC4/cyfitter_cfg.c **** 
 106:Generated_Source\PSoC4/cyfitter_cfg.c **** 
 107:Generated_Source\PSoC4/cyfitter_cfg.c **** #ifdef CY_NEED_CYCLOCKSTARTUPERROR
 108:Generated_Source\PSoC4/cyfitter_cfg.c **** /*******************************************************************************
 109:Generated_Source\PSoC4/cyfitter_cfg.c **** * Function Name: CyClockStartupError
 110:Generated_Source\PSoC4/cyfitter_cfg.c **** ********************************************************************************
 111:Generated_Source\PSoC4/cyfitter_cfg.c **** * Summary:
 112:Generated_Source\PSoC4/cyfitter_cfg.c **** *  If an error is encountered during clock configuration (crystal startup error,
 113:Generated_Source\PSoC4/cyfitter_cfg.c **** *  PLL lock error, etc.), the system will end up here.  Unless reimplemented by
 114:Generated_Source\PSoC4/cyfitter_cfg.c **** *  the customer, this function will stop in an infinite loop.
 115:Generated_Source\PSoC4/cyfitter_cfg.c **** *
 116:Generated_Source\PSoC4/cyfitter_cfg.c **** * Parameters:
 117:Generated_Source\PSoC4/cyfitter_cfg.c **** *   void
 118:Generated_Source\PSoC4/cyfitter_cfg.c **** *
 119:Generated_Source\PSoC4/cyfitter_cfg.c **** * Return:
 120:Generated_Source\PSoC4/cyfitter_cfg.c **** *   void
 121:Generated_Source\PSoC4/cyfitter_cfg.c **** *
 122:Generated_Source\PSoC4/cyfitter_cfg.c **** *******************************************************************************/
 123:Generated_Source\PSoC4/cyfitter_cfg.c **** CY_CFG_UNUSED
 124:Generated_Source\PSoC4/cyfitter_cfg.c **** static void CyClockStartupError(uint8 errorCode);
 125:Generated_Source\PSoC4/cyfitter_cfg.c **** CY_CFG_UNUSED
 126:Generated_Source\PSoC4/cyfitter_cfg.c **** static void CyClockStartupError(uint8 errorCode)
 127:Generated_Source\PSoC4/cyfitter_cfg.c **** {
 128:Generated_Source\PSoC4/cyfitter_cfg.c ****     /* To remove the compiler warning if errorCode not used.                */
 129:Generated_Source\PSoC4/cyfitter_cfg.c ****     errorCode = errorCode;
 130:Generated_Source\PSoC4/cyfitter_cfg.c **** 
 131:Generated_Source\PSoC4/cyfitter_cfg.c ****     /* If we have a clock startup error (bad MHz crystal, PLL lock, etc.),  */
 132:Generated_Source\PSoC4/cyfitter_cfg.c ****     /* we will end up here to allow the customer to implement something to  */
 133:Generated_Source\PSoC4/cyfitter_cfg.c ****     /* deal with the clock condition.                                       */
 134:Generated_Source\PSoC4/cyfitter_cfg.c **** 
 135:Generated_Source\PSoC4/cyfitter_cfg.c **** #ifdef CY_CFG_CLOCK_STARTUP_ERROR_CALLBACK
 136:Generated_Source\PSoC4/cyfitter_cfg.c ****     CY_CFG_Clock_Startup_ErrorCallback();
 137:Generated_Source\PSoC4/cyfitter_cfg.c **** #else
 138:Generated_Source\PSoC4/cyfitter_cfg.c ****     /*  If not using CY_CFG_CLOCK_STARTUP_ERROR_CALLBACK, place your clock startup code here. */
 139:Generated_Source\PSoC4/cyfitter_cfg.c ****     /* `#START CyClockStartupError` */
 140:Generated_Source\PSoC4/cyfitter_cfg.c **** 
 141:Generated_Source\PSoC4/cyfitter_cfg.c **** 
 142:Generated_Source\PSoC4/cyfitter_cfg.c **** 
 143:Generated_Source\PSoC4/cyfitter_cfg.c ****     /* `#END` */
 144:Generated_Source\PSoC4/cyfitter_cfg.c **** 
 145:Generated_Source\PSoC4/cyfitter_cfg.c ****     while(1) {}
ARM GAS  C:\Users\Jeremias\AppData\Local\Temp\cceCiwLh.s 			page 4


 146:Generated_Source\PSoC4/cyfitter_cfg.c **** #endif /* CY_CFG_CLOCK_STARTUP_ERROR_CALLBACK */
 147:Generated_Source\PSoC4/cyfitter_cfg.c **** }
 148:Generated_Source\PSoC4/cyfitter_cfg.c **** #endif
 149:Generated_Source\PSoC4/cyfitter_cfg.c **** 
 150:Generated_Source\PSoC4/cyfitter_cfg.c **** #define CY_CFG_BASE_ADDR_COUNT 6u
 151:Generated_Source\PSoC4/cyfitter_cfg.c **** CYPACKED typedef struct
 152:Generated_Source\PSoC4/cyfitter_cfg.c **** {
 153:Generated_Source\PSoC4/cyfitter_cfg.c **** 	uint8 offset;
 154:Generated_Source\PSoC4/cyfitter_cfg.c **** 	uint8 value;
 155:Generated_Source\PSoC4/cyfitter_cfg.c **** } CYPACKED_ATTR cy_cfg_addrvalue_t;
 156:Generated_Source\PSoC4/cyfitter_cfg.c **** 
 157:Generated_Source\PSoC4/cyfitter_cfg.c **** 
 158:Generated_Source\PSoC4/cyfitter_cfg.c **** 
 159:Generated_Source\PSoC4/cyfitter_cfg.c **** /*******************************************************************************
 160:Generated_Source\PSoC4/cyfitter_cfg.c **** * Function Name: cfg_write_bytes32
 161:Generated_Source\PSoC4/cyfitter_cfg.c **** ********************************************************************************
 162:Generated_Source\PSoC4/cyfitter_cfg.c **** * Summary:
 163:Generated_Source\PSoC4/cyfitter_cfg.c **** *  This function is used for setting up the chip configuration areas that
 164:Generated_Source\PSoC4/cyfitter_cfg.c **** *  contain relatively sparse data.
 165:Generated_Source\PSoC4/cyfitter_cfg.c **** *
 166:Generated_Source\PSoC4/cyfitter_cfg.c **** * Parameters:
 167:Generated_Source\PSoC4/cyfitter_cfg.c **** *   void
 168:Generated_Source\PSoC4/cyfitter_cfg.c **** *
 169:Generated_Source\PSoC4/cyfitter_cfg.c **** * Return:
 170:Generated_Source\PSoC4/cyfitter_cfg.c **** *   void
 171:Generated_Source\PSoC4/cyfitter_cfg.c **** *
 172:Generated_Source\PSoC4/cyfitter_cfg.c **** *******************************************************************************/
 173:Generated_Source\PSoC4/cyfitter_cfg.c **** static void cfg_write_bytes32(const uint32 addr_table[], const cy_cfg_addrvalue_t data_table[]);
 174:Generated_Source\PSoC4/cyfitter_cfg.c **** static void cfg_write_bytes32(const uint32 addr_table[], const cy_cfg_addrvalue_t data_table[])
 175:Generated_Source\PSoC4/cyfitter_cfg.c **** {
  27              		.loc 1 175 0
  28              		.cfi_startproc
  29              		@ args = 0, pretend = 0, frame = 0
  30              		@ frame_needed = 0, uses_anonymous_args = 0
  31              	.LVL0:
  32 0000 F0B5     		push	{r4, r5, r6, r7, lr}
  33              		.cfi_def_cfa_offset 20
  34              		.cfi_offset 4, -20
  35              		.cfi_offset 5, -16
  36              		.cfi_offset 6, -12
  37              		.cfi_offset 7, -8
  38              		.cfi_offset 14, -4
  39              	.LVL1:
 176:Generated_Source\PSoC4/cyfitter_cfg.c **** 	/* For 32-bit little-endian architectures */
 177:Generated_Source\PSoC4/cyfitter_cfg.c **** 	uint32 i, j = 0u;
  40              		.loc 1 177 0
  41 0002 0025     		movs	r5, #0
 178:Generated_Source\PSoC4/cyfitter_cfg.c **** 	for (i = 0u; i < CY_CFG_BASE_ADDR_COUNT; i++)
  42              		.loc 1 178 0
  43 0004 0027     		movs	r7, #0
  44 0006 11E0     		b	.L2
  45              	.LVL2:
  46              	.L5:
  47              	.LBB2:
 179:Generated_Source\PSoC4/cyfitter_cfg.c **** 	{
 180:Generated_Source\PSoC4/cyfitter_cfg.c **** 		uint32 baseAddr = addr_table[i];
  48              		.loc 1 180 0
ARM GAS  C:\Users\Jeremias\AppData\Local\Temp\cceCiwLh.s 			page 5


  49 0008 BB00     		lsls	r3, r7, #2
  50 000a C658     		ldr	r6, [r0, r3]
  51              	.LVL3:
 181:Generated_Source\PSoC4/cyfitter_cfg.c **** 		uint8 count = (uint8)baseAddr;
  52              		.loc 1 181 0
  53 000c F3B2     		uxtb	r3, r6
  54              	.LVL4:
 182:Generated_Source\PSoC4/cyfitter_cfg.c **** 		baseAddr &= 0xFFFFFF00u;
  55              		.loc 1 182 0
  56 000e FF22     		movs	r2, #255
  57 0010 9643     		bics	r6, r2
  58              	.LVL5:
 183:Generated_Source\PSoC4/cyfitter_cfg.c **** 		while (count != 0u)
  59              		.loc 1 183 0
  60 0012 08E0     		b	.L3
  61              	.L4:
 184:Generated_Source\PSoC4/cyfitter_cfg.c **** 		{
 185:Generated_Source\PSoC4/cyfitter_cfg.c **** 			CY_SET_REG8((void *)(baseAddr + data_table[j].offset), data_table[j].value);
  62              		.loc 1 185 0
  63 0014 6A00     		lsls	r2, r5, #1
  64 0016 8A18     		adds	r2, r1, r2
  65 0018 1478     		ldrb	r4, [r2]
  66 001a A419     		adds	r4, r4, r6
  67 001c 5278     		ldrb	r2, [r2, #1]
  68 001e 2270     		strb	r2, [r4]
 186:Generated_Source\PSoC4/cyfitter_cfg.c **** 			j++;
  69              		.loc 1 186 0
  70 0020 0135     		adds	r5, r5, #1
  71              	.LVL6:
 187:Generated_Source\PSoC4/cyfitter_cfg.c **** 			count--;
  72              		.loc 1 187 0
  73 0022 013B     		subs	r3, r3, #1
  74              	.LVL7:
  75 0024 DBB2     		uxtb	r3, r3
  76              	.LVL8:
  77              	.L3:
 183:Generated_Source\PSoC4/cyfitter_cfg.c **** 		{
  78              		.loc 1 183 0
  79 0026 002B     		cmp	r3, #0
  80 0028 F4D1     		bne	.L4
  81              	.LBE2:
 178:Generated_Source\PSoC4/cyfitter_cfg.c **** 	{
  82              		.loc 1 178 0 discriminator 2
  83 002a 0137     		adds	r7, r7, #1
  84              	.LVL9:
  85              	.L2:
 178:Generated_Source\PSoC4/cyfitter_cfg.c **** 	{
  86              		.loc 1 178 0 is_stmt 0 discriminator 1
  87 002c 052F     		cmp	r7, #5
  88 002e EBD9     		bls	.L5
 188:Generated_Source\PSoC4/cyfitter_cfg.c **** 		}
 189:Generated_Source\PSoC4/cyfitter_cfg.c **** 	}
 190:Generated_Source\PSoC4/cyfitter_cfg.c **** }
  89              		.loc 1 190 0 is_stmt 1
  90              		@ sp needed
  91              	.LVL10:
  92              	.LVL11:
ARM GAS  C:\Users\Jeremias\AppData\Local\Temp\cceCiwLh.s 			page 6


  93 0030 F0BD     		pop	{r4, r5, r6, r7, pc}
  94              		.cfi_endproc
  95              	.LFE3:
  96              		.size	cfg_write_bytes32, .-cfg_write_bytes32
  97 0032 C046     		.section	.text.CYMEMZERO,"ax",%progbits
  98              		.align	2
  99              		.code	16
 100              		.thumb_func
 101              		.type	CYMEMZERO, %function
 102              	CYMEMZERO:
 103              	.LFB0:
  77:Generated_Source\PSoC4/cyfitter_cfg.c **** 	(void)memset(s, 0, n);
 104              		.loc 1 77 0
 105              		.cfi_startproc
 106              		@ args = 0, pretend = 0, frame = 0
 107              		@ frame_needed = 0, uses_anonymous_args = 0
 108              	.LVL12:
 109 0000 10B5     		push	{r4, lr}
 110              		.cfi_def_cfa_offset 8
 111              		.cfi_offset 4, -8
 112              		.cfi_offset 14, -4
 113 0002 0A00     		movs	r2, r1
  78:Generated_Source\PSoC4/cyfitter_cfg.c **** }
 114              		.loc 1 78 0
 115 0004 0021     		movs	r1, #0
 116              	.LVL13:
 117 0006 FFF7FEFF 		bl	memset
 118              	.LVL14:
  79:Generated_Source\PSoC4/cyfitter_cfg.c **** CY_CFG_UNUSED
 119              		.loc 1 79 0
 120              		@ sp needed
 121 000a 10BD     		pop	{r4, pc}
 122              		.cfi_endproc
 123              	.LFE0:
 124              		.size	CYMEMZERO, .-CYMEMZERO
 125              		.section	.psocinit,"ax",%progbits
 126              		.align	2
 127              		.code	16
 128              		.thumb_func
 129              		.type	ClockSetup, %function
 130              	ClockSetup:
 131              	.LFB4:
 191:Generated_Source\PSoC4/cyfitter_cfg.c **** 
 192:Generated_Source\PSoC4/cyfitter_cfg.c **** 
 193:Generated_Source\PSoC4/cyfitter_cfg.c **** /*******************************************************************************
 194:Generated_Source\PSoC4/cyfitter_cfg.c **** * Function Name: ClockSetup
 195:Generated_Source\PSoC4/cyfitter_cfg.c **** ********************************************************************************
 196:Generated_Source\PSoC4/cyfitter_cfg.c **** *
 197:Generated_Source\PSoC4/cyfitter_cfg.c **** * Summary:
 198:Generated_Source\PSoC4/cyfitter_cfg.c **** *   Performs the initialization of all of the clocks in the device based on the
 199:Generated_Source\PSoC4/cyfitter_cfg.c **** *   settings in the Clock tab of the DWR.  This includes enabling the requested
 200:Generated_Source\PSoC4/cyfitter_cfg.c **** *   clocks and setting the necessary dividers to produce the desired frequency. 
 201:Generated_Source\PSoC4/cyfitter_cfg.c **** *
 202:Generated_Source\PSoC4/cyfitter_cfg.c **** * Parameters:
 203:Generated_Source\PSoC4/cyfitter_cfg.c **** *   void
 204:Generated_Source\PSoC4/cyfitter_cfg.c **** *
 205:Generated_Source\PSoC4/cyfitter_cfg.c **** * Return:
ARM GAS  C:\Users\Jeremias\AppData\Local\Temp\cceCiwLh.s 			page 7


 206:Generated_Source\PSoC4/cyfitter_cfg.c **** *   void
 207:Generated_Source\PSoC4/cyfitter_cfg.c **** *
 208:Generated_Source\PSoC4/cyfitter_cfg.c **** *******************************************************************************/
 209:Generated_Source\PSoC4/cyfitter_cfg.c **** static void ClockSetup(void);
 210:Generated_Source\PSoC4/cyfitter_cfg.c **** CY_CFG_SECTION
 211:Generated_Source\PSoC4/cyfitter_cfg.c **** static void ClockSetup(void)
 212:Generated_Source\PSoC4/cyfitter_cfg.c **** {
 132              		.loc 1 212 0
 133              		.cfi_startproc
 134              		@ args = 0, pretend = 0, frame = 0
 135              		@ frame_needed = 0, uses_anonymous_args = 0
 136 0000 70B5     		push	{r4, r5, r6, lr}
 137              		.cfi_def_cfa_offset 16
 138              		.cfi_offset 4, -16
 139              		.cfi_offset 5, -12
 140              		.cfi_offset 6, -8
 141              		.cfi_offset 14, -4
 213:Generated_Source\PSoC4/cyfitter_cfg.c **** 	/* Enable HALF_EN before trimming for the flash accelerator. */
 214:Generated_Source\PSoC4/cyfitter_cfg.c **** 	CY_SET_REG32((void CYXDATA *)(CYREG_CLK_SELECT), (CY_GET_REG32((void *)CYREG_CLK_SELECT) | 0x00040
 142              		.loc 1 214 0
 143 0002 114C     		ldr	r4, .L8
 144 0004 2368     		ldr	r3, [r4]
 145 0006 8025     		movs	r5, #128
 146 0008 ED02     		lsls	r5, r5, #11
 147 000a 2B43     		orrs	r3, r5
 148 000c 2360     		str	r3, [r4]
 215:Generated_Source\PSoC4/cyfitter_cfg.c **** 
 216:Generated_Source\PSoC4/cyfitter_cfg.c **** 	/* Setup and trim IMO based on desired frequency. */
 217:Generated_Source\PSoC4/cyfitter_cfg.c **** 	CySysClkWriteImoFreq(48u);
 149              		.loc 1 217 0
 150 000e 3020     		movs	r0, #48
 151 0010 FFF7FEFF 		bl	CySysClkWriteImoFreq
 152              	.LVL15:
 218:Generated_Source\PSoC4/cyfitter_cfg.c **** 	/* CYDEV_CLK_ILO_CONFIG Starting address: CYDEV_CLK_ILO_CONFIG */
 219:Generated_Source\PSoC4/cyfitter_cfg.c **** 	CY_SET_REG32((void *)(CYREG_CLK_ILO_CONFIG), 0x80000006u);
 153              		.loc 1 219 0
 154 0014 0D4A     		ldr	r2, .L8+4
 155 0016 0E4B     		ldr	r3, .L8+8
 156 0018 1A60     		str	r2, [r3]
 220:Generated_Source\PSoC4/cyfitter_cfg.c **** 
 221:Generated_Source\PSoC4/cyfitter_cfg.c **** 
 222:Generated_Source\PSoC4/cyfitter_cfg.c **** 	/* CYDEV_CLK_SELECT00 Starting address: CYDEV_CLK_SELECT00 */
 223:Generated_Source\PSoC4/cyfitter_cfg.c **** 	CY_SET_REG32((void *)(CYREG_CLK_SELECT08), 0x00000010u);
 157              		.loc 1 223 0
 158 001a 1022     		movs	r2, #16
 159 001c 0D4B     		ldr	r3, .L8+12
 160 001e 1A60     		str	r2, [r3]
 224:Generated_Source\PSoC4/cyfitter_cfg.c **** 
 225:Generated_Source\PSoC4/cyfitter_cfg.c **** 	/* CYDEV_CLK_IMO_CONFIG Starting address: CYDEV_CLK_IMO_CONFIG */
 226:Generated_Source\PSoC4/cyfitter_cfg.c **** 	CY_SET_REG32((void *)(CYREG_CLK_IMO_CONFIG), 0x82000000u);
 161              		.loc 1 226 0
 162 0020 8222     		movs	r2, #130
 163 0022 1206     		lsls	r2, r2, #24
 164 0024 0C4B     		ldr	r3, .L8+16
 165 0026 1A60     		str	r2, [r3]
 227:Generated_Source\PSoC4/cyfitter_cfg.c **** 
 228:Generated_Source\PSoC4/cyfitter_cfg.c **** 	/* CYDEV_CLK_SELECT Starting address: CYDEV_CLK_SELECT */
ARM GAS  C:\Users\Jeremias\AppData\Local\Temp\cceCiwLh.s 			page 8


 229:Generated_Source\PSoC4/cyfitter_cfg.c **** 	CY_SET_REG32((void *)(CYREG_CLK_SELECT), 0x00040000u);
 166              		.loc 1 229 0
 167 0028 2560     		str	r5, [r4]
 230:Generated_Source\PSoC4/cyfitter_cfg.c **** 
 231:Generated_Source\PSoC4/cyfitter_cfg.c **** 	/* CYDEV_CLK_DIVIDER_A00 Starting address: CYDEV_CLK_DIVIDER_A00 */
 232:Generated_Source\PSoC4/cyfitter_cfg.c **** 	CY_SET_REG32((void *)(CYREG_CLK_DIVIDER_A00), 0x8000006Au);
 168              		.loc 1 232 0
 169 002a 0C4A     		ldr	r2, .L8+20
 170 002c 0C4B     		ldr	r3, .L8+24
 171 002e 1A60     		str	r2, [r3]
 233:Generated_Source\PSoC4/cyfitter_cfg.c **** 
 234:Generated_Source\PSoC4/cyfitter_cfg.c **** 	(void)CyIntSetVector(9u, &CySysWdtIsr);
 172              		.loc 1 234 0
 173 0030 0C49     		ldr	r1, .L8+28
 174 0032 0920     		movs	r0, #9
 175 0034 FFF7FEFF 		bl	CyIntSetVector
 176              	.LVL16:
 235:Generated_Source\PSoC4/cyfitter_cfg.c **** 	CyIntEnable(9u);
 177              		.loc 1 235 0
 178 0038 0920     		movs	r0, #9
 179 003a FFF7FEFF 		bl	CyIntEnable
 180              	.LVL17:
 236:Generated_Source\PSoC4/cyfitter_cfg.c **** 	CY_SET_REG32((void *)(CYREG_WDT_CONFIG), 0x00000000u);
 181              		.loc 1 236 0
 182 003e 0022     		movs	r2, #0
 183 0040 094B     		ldr	r3, .L8+32
 184 0042 1A60     		str	r2, [r3]
 237:Generated_Source\PSoC4/cyfitter_cfg.c **** }
 185              		.loc 1 237 0
 186              		@ sp needed
 187 0044 70BD     		pop	{r4, r5, r6, pc}
 188              	.L9:
 189 0046 C046     		.align	2
 190              	.L8:
 191 0048 00010B40 		.word	1074462976
 192 004c 06000080 		.word	-2147483642
 193 0050 04010B40 		.word	1074462980
 194 0054 20020240 		.word	1073873440
 195 0058 08010B40 		.word	1074462984
 196 005c 6A000080 		.word	-2147483542
 197 0060 00000240 		.word	1073872896
 198 0064 00000000 		.word	CySysWdtIsr
 199 0068 0C020B40 		.word	1074463244
 200              		.cfi_endproc
 201              	.LFE4:
 202              		.size	ClockSetup, .-ClockSetup
 203              		.section	.text.SetAnalogRoutingPumps,"ax",%progbits
 204              		.align	2
 205              		.global	SetAnalogRoutingPumps
 206              		.code	16
 207              		.thumb_func
 208              		.type	SetAnalogRoutingPumps, %function
 209              	SetAnalogRoutingPumps:
 210              	.LFB6:
 238:Generated_Source\PSoC4/cyfitter_cfg.c **** 
 239:Generated_Source\PSoC4/cyfitter_cfg.c **** 
 240:Generated_Source\PSoC4/cyfitter_cfg.c **** /* Analog API Functions */
ARM GAS  C:\Users\Jeremias\AppData\Local\Temp\cceCiwLh.s 			page 9


 241:Generated_Source\PSoC4/cyfitter_cfg.c **** 
 242:Generated_Source\PSoC4/cyfitter_cfg.c **** 
 243:Generated_Source\PSoC4/cyfitter_cfg.c **** /*******************************************************************************
 244:Generated_Source\PSoC4/cyfitter_cfg.c **** * Function Name: AnalogSetDefault
 245:Generated_Source\PSoC4/cyfitter_cfg.c **** ********************************************************************************
 246:Generated_Source\PSoC4/cyfitter_cfg.c **** *
 247:Generated_Source\PSoC4/cyfitter_cfg.c **** * Summary:
 248:Generated_Source\PSoC4/cyfitter_cfg.c **** *  Sets up the analog portions of the chip to default values based on chip
 249:Generated_Source\PSoC4/cyfitter_cfg.c **** *  configuration options from the project.
 250:Generated_Source\PSoC4/cyfitter_cfg.c **** *
 251:Generated_Source\PSoC4/cyfitter_cfg.c **** * Parameters:
 252:Generated_Source\PSoC4/cyfitter_cfg.c **** *  void
 253:Generated_Source\PSoC4/cyfitter_cfg.c **** *
 254:Generated_Source\PSoC4/cyfitter_cfg.c **** * Return:
 255:Generated_Source\PSoC4/cyfitter_cfg.c **** *  void
 256:Generated_Source\PSoC4/cyfitter_cfg.c **** *
 257:Generated_Source\PSoC4/cyfitter_cfg.c **** *******************************************************************************/
 258:Generated_Source\PSoC4/cyfitter_cfg.c **** static void AnalogSetDefault(void);
 259:Generated_Source\PSoC4/cyfitter_cfg.c **** static void AnalogSetDefault(void)
 260:Generated_Source\PSoC4/cyfitter_cfg.c **** {
 261:Generated_Source\PSoC4/cyfitter_cfg.c **** 	CY_SET_XTND_REG32((void CYFAR *)CYREG_CTBM_OA0_SW, 0x00000104u);
 262:Generated_Source\PSoC4/cyfitter_cfg.c **** 	SetAnalogRoutingPumps(1);
 263:Generated_Source\PSoC4/cyfitter_cfg.c **** }
 264:Generated_Source\PSoC4/cyfitter_cfg.c **** 
 265:Generated_Source\PSoC4/cyfitter_cfg.c **** 
 266:Generated_Source\PSoC4/cyfitter_cfg.c **** /*******************************************************************************
 267:Generated_Source\PSoC4/cyfitter_cfg.c **** * Function Name: SetAnalogRoutingPumps
 268:Generated_Source\PSoC4/cyfitter_cfg.c **** ********************************************************************************
 269:Generated_Source\PSoC4/cyfitter_cfg.c **** *
 270:Generated_Source\PSoC4/cyfitter_cfg.c **** * Summary:
 271:Generated_Source\PSoC4/cyfitter_cfg.c **** * Enables or disables the analog pumps feeding analog routing switches.
 272:Generated_Source\PSoC4/cyfitter_cfg.c **** * Intended to be called at startup, based on the Vdda system configuration;
 273:Generated_Source\PSoC4/cyfitter_cfg.c **** * may be called during operation when the user informs us that the Vdda voltage crossed the pump th
 274:Generated_Source\PSoC4/cyfitter_cfg.c **** *
 275:Generated_Source\PSoC4/cyfitter_cfg.c **** * Parameters:
 276:Generated_Source\PSoC4/cyfitter_cfg.c **** *  enabled - 1 to enable the pumps, 0 to disable the pumps
 277:Generated_Source\PSoC4/cyfitter_cfg.c **** *
 278:Generated_Source\PSoC4/cyfitter_cfg.c **** * Return:
 279:Generated_Source\PSoC4/cyfitter_cfg.c **** *  void
 280:Generated_Source\PSoC4/cyfitter_cfg.c **** *
 281:Generated_Source\PSoC4/cyfitter_cfg.c **** *******************************************************************************/
 282:Generated_Source\PSoC4/cyfitter_cfg.c **** void SetAnalogRoutingPumps(uint8 enabled)
 283:Generated_Source\PSoC4/cyfitter_cfg.c **** {
 211              		.loc 1 283 0
 212              		.cfi_startproc
 213              		@ args = 0, pretend = 0, frame = 0
 214              		@ frame_needed = 0, uses_anonymous_args = 0
 215              		@ link register save eliminated.
 216              	.LVL18:
 284:Generated_Source\PSoC4/cyfitter_cfg.c **** 	uint32 regValue = CY_GET_XTND_REG32((void *)(CYREG_SAR_PUMP_CTRL));
 217              		.loc 1 284 0
 218 0000 064B     		ldr	r3, .L13
 219 0002 1B68     		ldr	r3, [r3]
 220              	.LVL19:
 285:Generated_Source\PSoC4/cyfitter_cfg.c **** 	if (enabled != 0u)
 221              		.loc 1 285 0
 222 0004 0028     		cmp	r0, #0
ARM GAS  C:\Users\Jeremias\AppData\Local\Temp\cceCiwLh.s 			page 10


 223 0006 03D0     		beq	.L11
 286:Generated_Source\PSoC4/cyfitter_cfg.c **** 	{
 287:Generated_Source\PSoC4/cyfitter_cfg.c **** 		regValue |= 0x80000000u;
 224              		.loc 1 287 0
 225 0008 8022     		movs	r2, #128
 226 000a 1206     		lsls	r2, r2, #24
 227 000c 1343     		orrs	r3, r2
 228              	.LVL20:
 229 000e 01E0     		b	.L12
 230              	.L11:
 288:Generated_Source\PSoC4/cyfitter_cfg.c **** 	}
 289:Generated_Source\PSoC4/cyfitter_cfg.c **** 	else
 290:Generated_Source\PSoC4/cyfitter_cfg.c **** 	{
 291:Generated_Source\PSoC4/cyfitter_cfg.c **** 		regValue &= ~0x80000000u;
 231              		.loc 1 291 0
 232 0010 5B00     		lsls	r3, r3, #1
 233              	.LVL21:
 234 0012 5B08     		lsrs	r3, r3, #1
 235              	.LVL22:
 236              	.L12:
 292:Generated_Source\PSoC4/cyfitter_cfg.c **** 	}
 293:Generated_Source\PSoC4/cyfitter_cfg.c **** 	CY_SET_XTND_REG32((void *)(CYREG_SAR_PUMP_CTRL), regValue);
 237              		.loc 1 293 0
 238 0014 014A     		ldr	r2, .L13
 239 0016 1360     		str	r3, [r2]
 294:Generated_Source\PSoC4/cyfitter_cfg.c **** }
 240              		.loc 1 294 0
 241              		@ sp needed
 242 0018 7047     		bx	lr
 243              	.L14:
 244 001a C046     		.align	2
 245              	.L13:
 246 001c 80031A40 		.word	1075446656
 247              		.cfi_endproc
 248              	.LFE6:
 249              		.size	SetAnalogRoutingPumps, .-SetAnalogRoutingPumps
 250              		.section	.text.AnalogSetDefault,"ax",%progbits
 251              		.align	2
 252              		.code	16
 253              		.thumb_func
 254              		.type	AnalogSetDefault, %function
 255              	AnalogSetDefault:
 256              	.LFB5:
 260:Generated_Source\PSoC4/cyfitter_cfg.c **** 	CY_SET_XTND_REG32((void CYFAR *)CYREG_CTBM_OA0_SW, 0x00000104u);
 257              		.loc 1 260 0
 258              		.cfi_startproc
 259              		@ args = 0, pretend = 0, frame = 0
 260              		@ frame_needed = 0, uses_anonymous_args = 0
 261 0000 10B5     		push	{r4, lr}
 262              		.cfi_def_cfa_offset 8
 263              		.cfi_offset 4, -8
 264              		.cfi_offset 14, -4
 261:Generated_Source\PSoC4/cyfitter_cfg.c **** 	SetAnalogRoutingPumps(1);
 265              		.loc 1 261 0
 266 0002 8222     		movs	r2, #130
 267 0004 5200     		lsls	r2, r2, #1
 268 0006 034B     		ldr	r3, .L16
ARM GAS  C:\Users\Jeremias\AppData\Local\Temp\cceCiwLh.s 			page 11


 269 0008 1A60     		str	r2, [r3]
 262:Generated_Source\PSoC4/cyfitter_cfg.c **** }
 270              		.loc 1 262 0
 271 000a 0120     		movs	r0, #1
 272 000c FFF7FEFF 		bl	SetAnalogRoutingPumps
 273              	.LVL23:
 263:Generated_Source\PSoC4/cyfitter_cfg.c **** 
 274              		.loc 1 263 0
 275              		@ sp needed
 276 0010 10BD     		pop	{r4, pc}
 277              	.L17:
 278 0012 C046     		.align	2
 279              	.L16:
 280 0014 80001040 		.word	1074790528
 281              		.cfi_endproc
 282              	.LFE5:
 283              		.size	AnalogSetDefault, .-AnalogSetDefault
 284              		.section	.text.AMux_Set,"ax",%progbits
 285              		.align	2
 286              		.global	AMux_Set
 287              		.code	16
 288              		.thumb_func
 289              		.type	AMux_Set, %function
 290              	AMux_Set:
 291              	.LFB7:
 295:Generated_Source\PSoC4/cyfitter_cfg.c **** 
 296:Generated_Source\PSoC4/cyfitter_cfg.c **** 
 297:Generated_Source\PSoC4/cyfitter_cfg.c **** #define CY_AMUX_UNUSED CYREG_CM0_ROM_DWT
 298:Generated_Source\PSoC4/cyfitter_cfg.c **** /*******************************************************************************
 299:Generated_Source\PSoC4/cyfitter_cfg.c **** * Function Name: AMux_Set
 300:Generated_Source\PSoC4/cyfitter_cfg.c **** ********************************************************************************
 301:Generated_Source\PSoC4/cyfitter_cfg.c **** * Summary:
 302:Generated_Source\PSoC4/cyfitter_cfg.c **** *  This function is used to set a particular channel as active on the AMux.
 303:Generated_Source\PSoC4/cyfitter_cfg.c **** *
 304:Generated_Source\PSoC4/cyfitter_cfg.c **** * Parameters:  
 305:Generated_Source\PSoC4/cyfitter_cfg.c **** *   channel - The mux channel input to set as active
 306:Generated_Source\PSoC4/cyfitter_cfg.c **** *
 307:Generated_Source\PSoC4/cyfitter_cfg.c **** * Return:
 308:Generated_Source\PSoC4/cyfitter_cfg.c **** *   void
 309:Generated_Source\PSoC4/cyfitter_cfg.c **** *
 310:Generated_Source\PSoC4/cyfitter_cfg.c **** *******************************************************************************/
 311:Generated_Source\PSoC4/cyfitter_cfg.c **** void AMux_Set(uint8 channel)
 312:Generated_Source\PSoC4/cyfitter_cfg.c **** {
 292              		.loc 1 312 0
 293              		.cfi_startproc
 294              		@ args = 0, pretend = 0, frame = 0
 295              		@ frame_needed = 0, uses_anonymous_args = 0
 296              		@ link register save eliminated.
 297              	.LVL24:
 313:Generated_Source\PSoC4/cyfitter_cfg.c **** 	switch (channel) {
 298              		.loc 1 313 0
 299 0000 0028     		cmp	r0, #0
 300 0002 02D0     		beq	.L20
 301 0004 0128     		cmp	r0, #1
 302 0006 07D0     		beq	.L21
 303 0008 0CE0     		b	.L18
 304              	.L20:
ARM GAS  C:\Users\Jeremias\AppData\Local\Temp\cceCiwLh.s 			page 12


 314:Generated_Source\PSoC4/cyfitter_cfg.c **** 		case 0u:
 315:Generated_Source\PSoC4/cyfitter_cfg.c **** 			CY_SET_REG32((void CYXDATA *)CYREG_HSIOM_PORT_SEL1, (CY_GET_REG32((void CYXDATA *)CYREG_HSIOM_PO
 305              		.loc 1 315 0
 306 000a 074A     		ldr	r2, .L22
 307 000c 1368     		ldr	r3, [r2]
 308 000e C021     		movs	r1, #192
 309 0010 C902     		lsls	r1, r1, #11
 310 0012 0B43     		orrs	r3, r1
 311 0014 1360     		str	r3, [r2]
 316:Generated_Source\PSoC4/cyfitter_cfg.c **** 			break;
 312              		.loc 1 316 0
 313 0016 05E0     		b	.L18
 314              	.L21:
 317:Generated_Source\PSoC4/cyfitter_cfg.c **** 		case 1u:
 318:Generated_Source\PSoC4/cyfitter_cfg.c **** 			CY_SET_REG32((void CYXDATA *)CYREG_HSIOM_PORT_SEL1, (CY_GET_REG32((void CYXDATA *)CYREG_HSIOM_PO
 315              		.loc 1 318 0
 316 0018 034A     		ldr	r2, .L22
 317 001a 1368     		ldr	r3, [r2]
 318 001c C021     		movs	r1, #192
 319 001e C900     		lsls	r1, r1, #3
 320 0020 0B43     		orrs	r3, r1
 321 0022 1360     		str	r3, [r2]
 322              	.L18:
 319:Generated_Source\PSoC4/cyfitter_cfg.c **** 			break;
 320:Generated_Source\PSoC4/cyfitter_cfg.c **** 		default:
 321:Generated_Source\PSoC4/cyfitter_cfg.c **** 			break;
 322:Generated_Source\PSoC4/cyfitter_cfg.c **** 	}
 323:Generated_Source\PSoC4/cyfitter_cfg.c **** }
 323              		.loc 1 323 0
 324              		@ sp needed
 325 0024 7047     		bx	lr
 326              	.L23:
 327 0026 C046     		.align	2
 328              	.L22:
 329 0028 04000140 		.word	1073807364
 330              		.cfi_endproc
 331              	.LFE7:
 332              		.size	AMux_Set, .-AMux_Set
 333              		.section	.text.AMux_Unset,"ax",%progbits
 334              		.align	2
 335              		.global	AMux_Unset
 336              		.code	16
 337              		.thumb_func
 338              		.type	AMux_Unset, %function
 339              	AMux_Unset:
 340              	.LFB8:
 324:Generated_Source\PSoC4/cyfitter_cfg.c **** 
 325:Generated_Source\PSoC4/cyfitter_cfg.c **** /*******************************************************************************
 326:Generated_Source\PSoC4/cyfitter_cfg.c **** * Function Name: AMux_Unset
 327:Generated_Source\PSoC4/cyfitter_cfg.c **** ********************************************************************************
 328:Generated_Source\PSoC4/cyfitter_cfg.c **** * Summary:
 329:Generated_Source\PSoC4/cyfitter_cfg.c **** *  This function is used to clear a particular channel from being active on the
 330:Generated_Source\PSoC4/cyfitter_cfg.c **** *  AMux.
 331:Generated_Source\PSoC4/cyfitter_cfg.c **** *
 332:Generated_Source\PSoC4/cyfitter_cfg.c **** * Parameters:  
 333:Generated_Source\PSoC4/cyfitter_cfg.c **** *   channel - The mux channel input to mark inactive
 334:Generated_Source\PSoC4/cyfitter_cfg.c **** *
ARM GAS  C:\Users\Jeremias\AppData\Local\Temp\cceCiwLh.s 			page 13


 335:Generated_Source\PSoC4/cyfitter_cfg.c **** * Return:
 336:Generated_Source\PSoC4/cyfitter_cfg.c **** *   void
 337:Generated_Source\PSoC4/cyfitter_cfg.c **** *
 338:Generated_Source\PSoC4/cyfitter_cfg.c **** *******************************************************************************/
 339:Generated_Source\PSoC4/cyfitter_cfg.c **** void AMux_Unset(uint8 channel)
 340:Generated_Source\PSoC4/cyfitter_cfg.c **** {
 341              		.loc 1 340 0
 342              		.cfi_startproc
 343              		@ args = 0, pretend = 0, frame = 0
 344              		@ frame_needed = 0, uses_anonymous_args = 0
 345              		@ link register save eliminated.
 346              	.LVL25:
 341:Generated_Source\PSoC4/cyfitter_cfg.c **** 	switch (channel) {
 347              		.loc 1 341 0
 348 0000 0028     		cmp	r0, #0
 349 0002 02D0     		beq	.L26
 350 0004 0128     		cmp	r0, #1
 351 0006 06D0     		beq	.L27
 352 0008 0AE0     		b	.L24
 353              	.L26:
 342:Generated_Source\PSoC4/cyfitter_cfg.c **** 		case 0u:
 343:Generated_Source\PSoC4/cyfitter_cfg.c **** 			CY_SET_REG32((void CYXDATA *)CYREG_HSIOM_PORT_SEL1, (CY_GET_REG32((void CYXDATA *)CYREG_HSIOM_PO
 354              		.loc 1 343 0
 355 000a 064A     		ldr	r2, .L28
 356 000c 1168     		ldr	r1, [r2]
 357 000e 064B     		ldr	r3, .L28+4
 358 0010 0B40     		ands	r3, r1
 359 0012 1360     		str	r3, [r2]
 344:Generated_Source\PSoC4/cyfitter_cfg.c **** 			break;
 360              		.loc 1 344 0
 361 0014 04E0     		b	.L24
 362              	.L27:
 345:Generated_Source\PSoC4/cyfitter_cfg.c **** 		case 1u:
 346:Generated_Source\PSoC4/cyfitter_cfg.c **** 			CY_SET_REG32((void CYXDATA *)CYREG_HSIOM_PORT_SEL1, (CY_GET_REG32((void CYXDATA *)CYREG_HSIOM_PO
 363              		.loc 1 346 0
 364 0016 034A     		ldr	r2, .L28
 365 0018 1168     		ldr	r1, [r2]
 366 001a 044B     		ldr	r3, .L28+8
 367 001c 0B40     		ands	r3, r1
 368 001e 1360     		str	r3, [r2]
 369              	.L24:
 347:Generated_Source\PSoC4/cyfitter_cfg.c **** 			break;
 348:Generated_Source\PSoC4/cyfitter_cfg.c **** 		default:
 349:Generated_Source\PSoC4/cyfitter_cfg.c **** 			break;
 350:Generated_Source\PSoC4/cyfitter_cfg.c **** 	}
 351:Generated_Source\PSoC4/cyfitter_cfg.c **** }
 370              		.loc 1 351 0
 371              		@ sp needed
 372 0020 7047     		bx	lr
 373              	.L29:
 374 0022 C046     		.align	2
 375              	.L28:
 376 0024 04000140 		.word	1073807364
 377 0028 FFFFF9FF 		.word	-393217
 378 002c FFF9FFFF 		.word	-1537
 379              		.cfi_endproc
 380              	.LFE8:
ARM GAS  C:\Users\Jeremias\AppData\Local\Temp\cceCiwLh.s 			page 14


 381              		.size	AMux_Unset, .-AMux_Unset
 382              		.section	.psocinit
 383              		.align	2
 384              		.global	cyfitter_cfg
 385              		.code	16
 386              		.thumb_func
 387              		.type	cyfitter_cfg, %function
 388              	cyfitter_cfg:
 389              	.LFB9:
 352:Generated_Source\PSoC4/cyfitter_cfg.c **** 
 353:Generated_Source\PSoC4/cyfitter_cfg.c **** 
 354:Generated_Source\PSoC4/cyfitter_cfg.c **** 
 355:Generated_Source\PSoC4/cyfitter_cfg.c **** /*******************************************************************************
 356:Generated_Source\PSoC4/cyfitter_cfg.c **** * Function Name: cyfitter_cfg
 357:Generated_Source\PSoC4/cyfitter_cfg.c **** ********************************************************************************
 358:Generated_Source\PSoC4/cyfitter_cfg.c **** * Summary:
 359:Generated_Source\PSoC4/cyfitter_cfg.c **** *  This function is called by the start-up code for the selected device. It
 360:Generated_Source\PSoC4/cyfitter_cfg.c **** *  performs all of the necessary device configuration based on the design
 361:Generated_Source\PSoC4/cyfitter_cfg.c **** *  settings.  This includes settings from the Design Wide Resources (DWR) such
 362:Generated_Source\PSoC4/cyfitter_cfg.c **** *  as Clocks and Pins as well as any component configuration that is necessary.
 363:Generated_Source\PSoC4/cyfitter_cfg.c **** *
 364:Generated_Source\PSoC4/cyfitter_cfg.c **** * Parameters:
 365:Generated_Source\PSoC4/cyfitter_cfg.c **** *   void
 366:Generated_Source\PSoC4/cyfitter_cfg.c **** *
 367:Generated_Source\PSoC4/cyfitter_cfg.c **** * Return:
 368:Generated_Source\PSoC4/cyfitter_cfg.c **** *   void
 369:Generated_Source\PSoC4/cyfitter_cfg.c **** *
 370:Generated_Source\PSoC4/cyfitter_cfg.c **** *******************************************************************************/
 371:Generated_Source\PSoC4/cyfitter_cfg.c **** CY_CFG_SECTION
 372:Generated_Source\PSoC4/cyfitter_cfg.c **** void cyfitter_cfg(void)
 373:Generated_Source\PSoC4/cyfitter_cfg.c **** {
 390              		.loc 1 373 0
 391              		.cfi_startproc
 392              		@ args = 0, pretend = 0, frame = 0
 393              		@ frame_needed = 0, uses_anonymous_args = 0
 394 006c 10B5     		push	{r4, lr}
 395              		.cfi_def_cfa_offset 8
 396              		.cfi_offset 4, -8
 397              		.cfi_offset 14, -4
 374:Generated_Source\PSoC4/cyfitter_cfg.c **** 	/* Disable interrupts by default. Let user enable if/when they want. */
 375:Generated_Source\PSoC4/cyfitter_cfg.c **** 	CyGlobalIntDisable;
 398              		.loc 1 375 0
 399              		.syntax divided
 400              	@ 375 "Generated_Source\PSoC4\cyfitter_cfg.c" 1
 401 006e 72B6     		CPSID   i
 402              	@ 0 "" 2
 403              	.LVL26:
 404              		.thumb
 405              		.syntax unified
 406              	.LBB3:
 376:Generated_Source\PSoC4/cyfitter_cfg.c **** 
 377:Generated_Source\PSoC4/cyfitter_cfg.c **** 	{
 378:Generated_Source\PSoC4/cyfitter_cfg.c **** 		static const uint32 CYCODE cy_cfg_addr_table[] = {
 379:Generated_Source\PSoC4/cyfitter_cfg.c **** 			0x400F3004u, /* Base address: 0x400F3000 Count: 4 */
 380:Generated_Source\PSoC4/cyfitter_cfg.c **** 			0x400F3101u, /* Base address: 0x400F3100 Count: 1 */
 381:Generated_Source\PSoC4/cyfitter_cfg.c **** 			0x400F3303u, /* Base address: 0x400F3300 Count: 3 */
 382:Generated_Source\PSoC4/cyfitter_cfg.c **** 			0x400F410Cu, /* Base address: 0x400F4100 Count: 12 */
ARM GAS  C:\Users\Jeremias\AppData\Local\Temp\cceCiwLh.s 			page 15


 383:Generated_Source\PSoC4/cyfitter_cfg.c **** 			0x400F4204u, /* Base address: 0x400F4200 Count: 4 */
 384:Generated_Source\PSoC4/cyfitter_cfg.c **** 			0x400F4307u, /* Base address: 0x400F4300 Count: 7 */
 385:Generated_Source\PSoC4/cyfitter_cfg.c **** 		};
 386:Generated_Source\PSoC4/cyfitter_cfg.c **** 
 387:Generated_Source\PSoC4/cyfitter_cfg.c **** 		static const cy_cfg_addrvalue_t CYCODE cy_cfg_data_table[] = {
 388:Generated_Source\PSoC4/cyfitter_cfg.c **** 			{0x38u, 0x80u},
 389:Generated_Source\PSoC4/cyfitter_cfg.c **** 			{0x3Eu, 0x40u},
 390:Generated_Source\PSoC4/cyfitter_cfg.c **** 			{0x58u, 0x04u},
 391:Generated_Source\PSoC4/cyfitter_cfg.c **** 			{0x5Fu, 0x01u},
 392:Generated_Source\PSoC4/cyfitter_cfg.c **** 			{0x1Bu, 0x40u},
 393:Generated_Source\PSoC4/cyfitter_cfg.c **** 			{0xABu, 0x40u},
 394:Generated_Source\PSoC4/cyfitter_cfg.c **** 			{0xE6u, 0x08u},
 395:Generated_Source\PSoC4/cyfitter_cfg.c **** 			{0xE8u, 0x04u},
 396:Generated_Source\PSoC4/cyfitter_cfg.c **** 			{0x56u, 0x40u},
 397:Generated_Source\PSoC4/cyfitter_cfg.c **** 			{0x5Cu, 0x04u},
 398:Generated_Source\PSoC4/cyfitter_cfg.c **** 			{0x64u, 0x08u},
 399:Generated_Source\PSoC4/cyfitter_cfg.c **** 			{0x66u, 0x40u},
 400:Generated_Source\PSoC4/cyfitter_cfg.c **** 			{0x84u, 0x08u},
 401:Generated_Source\PSoC4/cyfitter_cfg.c **** 			{0x90u, 0x04u},
 402:Generated_Source\PSoC4/cyfitter_cfg.c **** 			{0xA8u, 0x04u},
 403:Generated_Source\PSoC4/cyfitter_cfg.c **** 			{0xD4u, 0x40u},
 404:Generated_Source\PSoC4/cyfitter_cfg.c **** 			{0xD6u, 0x80u},
 405:Generated_Source\PSoC4/cyfitter_cfg.c **** 			{0xD8u, 0x80u},
 406:Generated_Source\PSoC4/cyfitter_cfg.c **** 			{0xE6u, 0x10u},
 407:Generated_Source\PSoC4/cyfitter_cfg.c **** 			{0xEAu, 0x20u},
 408:Generated_Source\PSoC4/cyfitter_cfg.c **** 			{0x28u, 0x04u},
 409:Generated_Source\PSoC4/cyfitter_cfg.c **** 			{0x6Cu, 0x80u},
 410:Generated_Source\PSoC4/cyfitter_cfg.c **** 			{0xCAu, 0x08u},
 411:Generated_Source\PSoC4/cyfitter_cfg.c **** 			{0xDCu, 0x02u},
 412:Generated_Source\PSoC4/cyfitter_cfg.c **** 			{0x1Bu, 0x01u},
 413:Generated_Source\PSoC4/cyfitter_cfg.c **** 			{0x64u, 0x04u},
 414:Generated_Source\PSoC4/cyfitter_cfg.c **** 			{0x87u, 0x01u},
 415:Generated_Source\PSoC4/cyfitter_cfg.c **** 			{0x98u, 0x04u},
 416:Generated_Source\PSoC4/cyfitter_cfg.c **** 			{0xA8u, 0x80u},
 417:Generated_Source\PSoC4/cyfitter_cfg.c **** 			{0xC6u, 0x08u},
 418:Generated_Source\PSoC4/cyfitter_cfg.c **** 			{0xD8u, 0x01u},
 419:Generated_Source\PSoC4/cyfitter_cfg.c **** 		};
 420:Generated_Source\PSoC4/cyfitter_cfg.c **** 
 421:Generated_Source\PSoC4/cyfitter_cfg.c **** 
 422:Generated_Source\PSoC4/cyfitter_cfg.c **** 
 423:Generated_Source\PSoC4/cyfitter_cfg.c **** 		CYPACKED typedef struct {
 424:Generated_Source\PSoC4/cyfitter_cfg.c **** 			void CYFAR *address;
 425:Generated_Source\PSoC4/cyfitter_cfg.c **** 			uint16 size;
 426:Generated_Source\PSoC4/cyfitter_cfg.c **** 		} CYPACKED_ATTR cfg_memset_t;
 427:Generated_Source\PSoC4/cyfitter_cfg.c **** 
 428:Generated_Source\PSoC4/cyfitter_cfg.c **** 		static const cfg_memset_t CYCODE cfg_memset_list[] = {
 429:Generated_Source\PSoC4/cyfitter_cfg.c **** 			/* address, size */
 430:Generated_Source\PSoC4/cyfitter_cfg.c **** 			{(void CYFAR *)(CYDEV_UDB_P0_U0_BASE), 1024u},
 431:Generated_Source\PSoC4/cyfitter_cfg.c **** 			{(void CYFAR *)(CYDEV_UDB_DSI0_BASE), 1024u},
 432:Generated_Source\PSoC4/cyfitter_cfg.c **** 		};
 433:Generated_Source\PSoC4/cyfitter_cfg.c **** 
 434:Generated_Source\PSoC4/cyfitter_cfg.c **** 		uint8 CYDATA i;
 435:Generated_Source\PSoC4/cyfitter_cfg.c **** 
 436:Generated_Source\PSoC4/cyfitter_cfg.c **** 		/* Zero out critical memory blocks before beginning configuration */
 437:Generated_Source\PSoC4/cyfitter_cfg.c **** 		for (i = 0u; i < (sizeof(cfg_memset_list)/sizeof(cfg_memset_list[0])); i++)
 407              		.loc 1 437 0
 408 0070 0024     		movs	r4, #0
ARM GAS  C:\Users\Jeremias\AppData\Local\Temp\cceCiwLh.s 			page 16


 409 0072 0FE0     		b	.L31
 410              	.LVL27:
 411              	.L32:
 412              	.LBB4:
 438:Generated_Source\PSoC4/cyfitter_cfg.c **** 		{
 439:Generated_Source\PSoC4/cyfitter_cfg.c **** 			const cfg_memset_t CYCODE * CYDATA ms = &cfg_memset_list[i];
 440:Generated_Source\PSoC4/cyfitter_cfg.c **** 			CYMEMZERO(ms->address, (size_t)(uint32)(ms->size));
 413              		.loc 1 440 0 discriminator 3
 414 0074 3248     		ldr	r0, .L33
 415 0076 6200     		lsls	r2, r4, #1
 416 0078 1319     		adds	r3, r2, r4
 417 007a 5900     		lsls	r1, r3, #1
 418 007c 0B00     		movs	r3, r1
 419 007e 4118     		adds	r1, r0, r1
 420 0080 8988     		ldrh	r1, [r1, #4]
 421 0082 1A5A     		ldrh	r2, [r3, r0]
 422 0084 C318     		adds	r3, r0, r3
 423 0086 5888     		ldrh	r0, [r3, #2]
 424 0088 0004     		lsls	r0, r0, #16
 425 008a 1043     		orrs	r0, r2
 426 008c FFF7FEFF 		bl	CYMEMZERO
 427              	.LVL28:
 428              	.LBE4:
 437:Generated_Source\PSoC4/cyfitter_cfg.c **** 		{
 429              		.loc 1 437 0 discriminator 3
 430 0090 0134     		adds	r4, r4, #1
 431              	.LVL29:
 432 0092 E4B2     		uxtb	r4, r4
 433              	.LVL30:
 434              	.L31:
 437:Generated_Source\PSoC4/cyfitter_cfg.c **** 		{
 435              		.loc 1 437 0 is_stmt 0 discriminator 1
 436 0094 012C     		cmp	r4, #1
 437 0096 EDD9     		bls	.L32
 441:Generated_Source\PSoC4/cyfitter_cfg.c **** 		}
 442:Generated_Source\PSoC4/cyfitter_cfg.c **** 
 443:Generated_Source\PSoC4/cyfitter_cfg.c **** 		cfg_write_bytes32(cy_cfg_addr_table, cy_cfg_data_table);
 438              		.loc 1 443 0 is_stmt 1
 439 0098 2948     		ldr	r0, .L33
 440 009a 0100     		movs	r1, r0
 441 009c 0C31     		adds	r1, r1, #12
 442 009e 4C30     		adds	r0, r0, #76
 443 00a0 FFF7FEFF 		bl	cfg_write_bytes32
 444              	.LVL31:
 444:Generated_Source\PSoC4/cyfitter_cfg.c **** 
 445:Generated_Source\PSoC4/cyfitter_cfg.c **** 		/* HSIOM Starting address: CYDEV_HSIOM_BASE */
 446:Generated_Source\PSoC4/cyfitter_cfg.c **** 		CY_SET_REG32((void *)(CYREG_HSIOM_PORT_SEL1), 0x03000000u);
 445              		.loc 1 446 0
 446 00a4 C022     		movs	r2, #192
 447 00a6 9204     		lsls	r2, r2, #18
 448 00a8 264B     		ldr	r3, .L33+4
 449 00aa 1A60     		str	r2, [r3]
 447:Generated_Source\PSoC4/cyfitter_cfg.c **** 		CY_SET_REG32((void *)(CYREG_HSIOM_PORT_SEL3), 0x30000000u);
 450              		.loc 1 447 0
 451 00ac C022     		movs	r2, #192
 452 00ae 9205     		lsls	r2, r2, #22
 453 00b0 254B     		ldr	r3, .L33+8
ARM GAS  C:\Users\Jeremias\AppData\Local\Temp\cceCiwLh.s 			page 17


 454 00b2 1A60     		str	r2, [r3]
 448:Generated_Source\PSoC4/cyfitter_cfg.c **** 
 449:Generated_Source\PSoC4/cyfitter_cfg.c **** 		/* UDB_PA_0 Starting address: CYDEV_UDB_PA0_BASE */
 450:Generated_Source\PSoC4/cyfitter_cfg.c **** 		CY_SET_REG32((void *)(CYDEV_UDB_PA0_BASE), 0x00990000u);
 455              		.loc 1 450 0
 456 00b4 9923     		movs	r3, #153
 457 00b6 1B04     		lsls	r3, r3, #16
 458 00b8 244A     		ldr	r2, .L33+12
 459 00ba 1360     		str	r3, [r2]
 451:Generated_Source\PSoC4/cyfitter_cfg.c **** 
 452:Generated_Source\PSoC4/cyfitter_cfg.c **** 		/* UDB_PA_1 Starting address: CYDEV_UDB_PA1_BASE */
 453:Generated_Source\PSoC4/cyfitter_cfg.c **** 		CY_SET_REG32((void *)(CYDEV_UDB_PA1_BASE), 0x00990000u);
 460              		.loc 1 453 0
 461 00bc 244A     		ldr	r2, .L33+16
 462 00be 1360     		str	r3, [r2]
 454:Generated_Source\PSoC4/cyfitter_cfg.c **** 		CY_SET_REG32((void *)(CYREG_UDB_PA1_CFG8), 0x31100000u);
 463              		.loc 1 454 0
 464 00c0 2449     		ldr	r1, .L33+20
 465 00c2 254A     		ldr	r2, .L33+24
 466 00c4 1160     		str	r1, [r2]
 455:Generated_Source\PSoC4/cyfitter_cfg.c **** 
 456:Generated_Source\PSoC4/cyfitter_cfg.c **** 		/* UDB_PA_2 Starting address: CYDEV_UDB_PA2_BASE */
 457:Generated_Source\PSoC4/cyfitter_cfg.c **** 		CY_SET_REG32((void *)(CYDEV_UDB_PA2_BASE), 0x00990000u);
 467              		.loc 1 457 0
 468 00c6 254A     		ldr	r2, .L33+28
 469 00c8 1360     		str	r3, [r2]
 458:Generated_Source\PSoC4/cyfitter_cfg.c **** 
 459:Generated_Source\PSoC4/cyfitter_cfg.c **** 		/* UDB_PA_3 Starting address: CYDEV_UDB_PA3_BASE */
 460:Generated_Source\PSoC4/cyfitter_cfg.c **** 		CY_SET_REG32((void *)(CYDEV_UDB_PA3_BASE), 0x00990000u);
 470              		.loc 1 460 0
 471 00ca 254A     		ldr	r2, .L33+32
 472 00cc 1360     		str	r3, [r2]
 461:Generated_Source\PSoC4/cyfitter_cfg.c **** 		CY_SET_REG32((void *)(CYREG_UDB_PA3_CFG8), 0xC0000000u);
 473              		.loc 1 461 0
 474 00ce C022     		movs	r2, #192
 475 00d0 1206     		lsls	r2, r2, #24
 476 00d2 244B     		ldr	r3, .L33+36
 477 00d4 1A60     		str	r2, [r3]
 462:Generated_Source\PSoC4/cyfitter_cfg.c **** 
 463:Generated_Source\PSoC4/cyfitter_cfg.c **** 		/* Enable UDB array and digital routing */
 464:Generated_Source\PSoC4/cyfitter_cfg.c **** 		CY_SET_XTND_REG8((void *)CYREG_UDB_UDBIF_WAIT_CFG, (uint8)((CY_GET_XTND_REG8((void *)CYREG_UDB_UD
 478              		.loc 1 464 0
 479 00d6 2449     		ldr	r1, .L33+40
 480 00d8 0B78     		ldrb	r3, [r1]
 481 00da 3C22     		movs	r2, #60
 482 00dc 9343     		bics	r3, r2
 483 00de 1422     		movs	r2, #20
 484 00e0 1343     		orrs	r3, r2
 485 00e2 DBB2     		uxtb	r3, r3
 486 00e4 0B70     		strb	r3, [r1]
 465:Generated_Source\PSoC4/cyfitter_cfg.c **** 		CY_SET_XTND_REG8((void *)CYREG_UDB_UDBIF_BANK_CTL, (uint8)(CY_GET_XTND_REG8((void *)CYREG_UDB_UDB
 487              		.loc 1 465 0
 488 00e6 214A     		ldr	r2, .L33+44
 489 00e8 1178     		ldrb	r1, [r2]
 490 00ea 1623     		movs	r3, #22
 491 00ec 0B43     		orrs	r3, r1
 492 00ee DBB2     		uxtb	r3, r3
ARM GAS  C:\Users\Jeremias\AppData\Local\Temp\cceCiwLh.s 			page 18


 493 00f0 1370     		strb	r3, [r2]
 494              	.LBE3:
 466:Generated_Source\PSoC4/cyfitter_cfg.c **** 	}
 467:Generated_Source\PSoC4/cyfitter_cfg.c **** 
 468:Generated_Source\PSoC4/cyfitter_cfg.c **** 	/* Perform second pass device configuration. These items must be configured in specific order afte
 469:Generated_Source\PSoC4/cyfitter_cfg.c **** 	/* IOPINS0_0 Starting address: CYDEV_PRT0_BASE */
 470:Generated_Source\PSoC4/cyfitter_cfg.c **** 	CY_SET_REG32((void *)(CYREG_PRT0_PC), 0x001B6DB6u);
 495              		.loc 1 470 0
 496 00f2 1F4A     		ldr	r2, .L33+48
 497 00f4 1F4B     		ldr	r3, .L33+52
 498 00f6 1A60     		str	r2, [r3]
 471:Generated_Source\PSoC4/cyfitter_cfg.c **** 
 472:Generated_Source\PSoC4/cyfitter_cfg.c **** 	/* IOPINS0_1 Starting address: CYDEV_PRT1_BASE */
 473:Generated_Source\PSoC4/cyfitter_cfg.c **** 	CY_SET_REG32((void *)(CYDEV_PRT1_BASE), 0x000000D7u);
 499              		.loc 1 473 0
 500 00f8 D722     		movs	r2, #215
 501 00fa 1F4B     		ldr	r3, .L33+56
 502 00fc 1A60     		str	r2, [r3]
 474:Generated_Source\PSoC4/cyfitter_cfg.c **** 	CY_SET_REG32((void *)(CYREG_PRT1_PC), 0x00580000u);
 503              		.loc 1 474 0
 504 00fe B022     		movs	r2, #176
 505 0100 D203     		lsls	r2, r2, #15
 506 0102 1E4B     		ldr	r3, .L33+60
 507 0104 1A60     		str	r2, [r3]
 475:Generated_Source\PSoC4/cyfitter_cfg.c **** 	CY_SET_REG32((void *)(CYREG_PRT1_INTCFG), 0x00008000u);
 508              		.loc 1 475 0
 509 0106 8022     		movs	r2, #128
 510 0108 1202     		lsls	r2, r2, #8
 511 010a 1D4B     		ldr	r3, .L33+64
 512 010c 1A60     		str	r2, [r3]
 476:Generated_Source\PSoC4/cyfitter_cfg.c **** 	CY_SET_REG32((void *)(CYREG_PRT1_PC2), 0x00000017u);
 513              		.loc 1 476 0
 514 010e 1722     		movs	r2, #23
 515 0110 1C4B     		ldr	r3, .L33+68
 516 0112 1A60     		str	r2, [r3]
 477:Generated_Source\PSoC4/cyfitter_cfg.c **** 
 478:Generated_Source\PSoC4/cyfitter_cfg.c **** 	/* IOPINS0_2 Starting address: CYDEV_PRT2_BASE */
 479:Generated_Source\PSoC4/cyfitter_cfg.c **** 	CY_SET_REG32((void *)(CYDEV_PRT2_BASE), 0x00000001u);
 517              		.loc 1 479 0
 518 0114 163A     		subs	r2, r2, #22
 519 0116 1C4B     		ldr	r3, .L33+72
 520 0118 1A60     		str	r2, [r3]
 480:Generated_Source\PSoC4/cyfitter_cfg.c **** 	CY_SET_REG32((void *)(CYREG_PRT2_PC), 0x00000002u);
 521              		.loc 1 480 0
 522 011a 0223     		movs	r3, #2
 523 011c 1B4A     		ldr	r2, .L33+76
 524 011e 1360     		str	r3, [r2]
 481:Generated_Source\PSoC4/cyfitter_cfg.c **** 	CY_SET_REG32((void *)(CYREG_PRT2_INTCFG), 0x00000002u);
 525              		.loc 1 481 0
 526 0120 1B4A     		ldr	r2, .L33+80
 527 0122 1360     		str	r3, [r2]
 482:Generated_Source\PSoC4/cyfitter_cfg.c **** 
 483:Generated_Source\PSoC4/cyfitter_cfg.c **** 	/* IOPINS0_3 Starting address: CYDEV_PRT3_BASE */
 484:Generated_Source\PSoC4/cyfitter_cfg.c **** 	CY_SET_REG32((void *)(CYDEV_PRT3_BASE), 0x00000081u);
 528              		.loc 1 484 0
 529 0124 8121     		movs	r1, #129
 530 0126 1B4A     		ldr	r2, .L33+84
ARM GAS  C:\Users\Jeremias\AppData\Local\Temp\cceCiwLh.s 			page 19


 531 0128 1160     		str	r1, [r2]
 485:Generated_Source\PSoC4/cyfitter_cfg.c **** 	CY_SET_REG32((void *)(CYREG_PRT3_PC), 0x00C00002u);
 532              		.loc 1 485 0
 533 012a 1B49     		ldr	r1, .L33+88
 534 012c 1B4A     		ldr	r2, .L33+92
 535 012e 1160     		str	r1, [r2]
 486:Generated_Source\PSoC4/cyfitter_cfg.c **** 	CY_SET_REG32((void *)(CYREG_PRT3_INTCFG), 0x00000002u);
 536              		.loc 1 486 0
 537 0130 1B4A     		ldr	r2, .L33+96
 538 0132 1360     		str	r3, [r2]
 487:Generated_Source\PSoC4/cyfitter_cfg.c **** 
 488:Generated_Source\PSoC4/cyfitter_cfg.c **** 
 489:Generated_Source\PSoC4/cyfitter_cfg.c **** 	/* Setup clocks based on selections from Clock DWR */
 490:Generated_Source\PSoC4/cyfitter_cfg.c **** 	ClockSetup();
 539              		.loc 1 490 0
 540 0134 FFF764FF 		bl	ClockSetup
 541              	.LVL32:
 491:Generated_Source\PSoC4/cyfitter_cfg.c **** 
 492:Generated_Source\PSoC4/cyfitter_cfg.c **** 	/* Perform basic analog initialization to defaults */
 493:Generated_Source\PSoC4/cyfitter_cfg.c **** 	AnalogSetDefault();
 542              		.loc 1 493 0
 543 0138 FFF7FEFF 		bl	AnalogSetDefault
 544              	.LVL33:
 494:Generated_Source\PSoC4/cyfitter_cfg.c **** 
 495:Generated_Source\PSoC4/cyfitter_cfg.c **** }
 545              		.loc 1 495 0
 546              		@ sp needed
 547              	.LVL34:
 548 013c 10BD     		pop	{r4, pc}
 549              	.L34:
 550 013e C046     		.align	2
 551              	.L33:
 552 0140 00000000 		.word	.LANCHOR0
 553 0144 04000140 		.word	1073807364
 554 0148 0C000140 		.word	1073807372
 555 014c 00500F40 		.word	1074745344
 556 0150 10500F40 		.word	1074745360
 557 0154 00001031 		.word	823132160
 558 0158 18500F40 		.word	1074745368
 559 015c 20500F40 		.word	1074745376
 560 0160 30500F40 		.word	1074745392
 561 0164 38500F40 		.word	1074745400
 562 0168 01700F40 		.word	1074753537
 563 016c 00700F40 		.word	1074753536
 564 0170 B66D1B00 		.word	1797558
 565 0174 08000440 		.word	1074003976
 566 0178 00010440 		.word	1074004224
 567 017c 08010440 		.word	1074004232
 568 0180 0C010440 		.word	1074004236
 569 0184 18010440 		.word	1074004248
 570 0188 00020440 		.word	1074004480
 571 018c 08020440 		.word	1074004488
 572 0190 0C020440 		.word	1074004492
 573 0194 00030440 		.word	1074004736
 574 0198 0200C000 		.word	12582914
 575 019c 08030440 		.word	1074004744
 576 01a0 0C030440 		.word	1074004748
ARM GAS  C:\Users\Jeremias\AppData\Local\Temp\cceCiwLh.s 			page 20


 577              		.cfi_endproc
 578              	.LFE9:
 579              		.size	cyfitter_cfg, .-cyfitter_cfg
 580              		.section	.rodata
 581              		.align	2
 582              		.set	.LANCHOR0,. + 0
 583              		.type	cfg_memset_list.4894, %object
 584              		.size	cfg_memset_list.4894, 12
 585              	cfg_memset_list.4894:
 586 0000 00300F40 		.word	1074737152
 587 0004 0004     		.short	1024
 588 0006 00400F40 		.4byte	1074741248
 589 000a 0004     		.short	1024
 590              		.type	cy_cfg_data_table.4889, %object
 591              		.size	cy_cfg_data_table.4889, 62
 592              	cy_cfg_data_table.4889:
 593 000c 38       		.byte	56
 594 000d 80       		.byte	-128
 595 000e 3E       		.byte	62
 596 000f 40       		.byte	64
 597 0010 58       		.byte	88
 598 0011 04       		.byte	4
 599 0012 5F       		.byte	95
 600 0013 01       		.byte	1
 601 0014 1B       		.byte	27
 602 0015 40       		.byte	64
 603 0016 AB       		.byte	-85
 604 0017 40       		.byte	64
 605 0018 E6       		.byte	-26
 606 0019 08       		.byte	8
 607 001a E8       		.byte	-24
 608 001b 04       		.byte	4
 609 001c 56       		.byte	86
 610 001d 40       		.byte	64
 611 001e 5C       		.byte	92
 612 001f 04       		.byte	4
 613 0020 64       		.byte	100
 614 0021 08       		.byte	8
 615 0022 66       		.byte	102
 616 0023 40       		.byte	64
 617 0024 84       		.byte	-124
 618 0025 08       		.byte	8
 619 0026 90       		.byte	-112
 620 0027 04       		.byte	4
 621 0028 A8       		.byte	-88
 622 0029 04       		.byte	4
 623 002a D4       		.byte	-44
 624 002b 40       		.byte	64
 625 002c D6       		.byte	-42
 626 002d 80       		.byte	-128
 627 002e D8       		.byte	-40
 628 002f 80       		.byte	-128
 629 0030 E6       		.byte	-26
 630 0031 10       		.byte	16
 631 0032 EA       		.byte	-22
 632 0033 20       		.byte	32
 633 0034 28       		.byte	40
ARM GAS  C:\Users\Jeremias\AppData\Local\Temp\cceCiwLh.s 			page 21


 634 0035 04       		.byte	4
 635 0036 6C       		.byte	108
 636 0037 80       		.byte	-128
 637 0038 CA       		.byte	-54
 638 0039 08       		.byte	8
 639 003a DC       		.byte	-36
 640 003b 02       		.byte	2
 641 003c 1B       		.byte	27
 642 003d 01       		.byte	1
 643 003e 64       		.byte	100
 644 003f 04       		.byte	4
 645 0040 87       		.byte	-121
 646 0041 01       		.byte	1
 647 0042 98       		.byte	-104
 648 0043 04       		.byte	4
 649 0044 A8       		.byte	-88
 650 0045 80       		.byte	-128
 651 0046 C6       		.byte	-58
 652 0047 08       		.byte	8
 653 0048 D8       		.byte	-40
 654 0049 01       		.byte	1
 655 004a 0000     		.space	2
 656              		.type	cy_cfg_addr_table.4888, %object
 657              		.size	cy_cfg_addr_table.4888, 24
 658              	cy_cfg_addr_table.4888:
 659 004c 04300F40 		.word	1074737156
 660 0050 01310F40 		.word	1074737409
 661 0054 03330F40 		.word	1074737923
 662 0058 0C410F40 		.word	1074741516
 663 005c 04420F40 		.word	1074741764
 664 0060 07430F40 		.word	1074742023
 665              		.text
 666              	.Letext0:
 667              		.file 2 "c:\\program files (x86)\\cypress\\psoc creator\\4.4\\psoc creator\\import\\gnu\\arm\\5.4.
 668              		.file 3 "Generated_Source\\PSoC4\\cytypes.h"
 669              		.file 4 "Generated_Source\\PSoC4\\CyLib.h"