ARM GAS  C:\Users\Jeremias\AppData\Local\Temp\cckA8ygc.s 			page 1


   1              		.syntax unified
   2              		.cpu cortex-m0
   3              		.fpu softvfp
   4              		.eabi_attribute 20, 1
   5              		.eabi_attribute 21, 1
   6              		.eabi_attribute 23, 3
   7              		.eabi_attribute 24, 1
   8              		.eabi_attribute 25, 1
   9              		.eabi_attribute 26, 1
  10              		.eabi_attribute 30, 1
  11              		.eabi_attribute 34, 0
  12              		.eabi_attribute 18, 4
  13              		.thumb
  14              		.syntax unified
  15              		.file	"mainRAMPA.c"
  16              		.text
  17              	.Ltext0:
  18              		.cfi_sections	.debug_frame
  19              		.section	.text.ONOFF_RAMPA_Handler,"ax",%progbits
  20              		.align	2
  21              		.global	ONOFF_RAMPA_Handler
  22              		.code	16
  23              		.thumb_func
  24              		.type	ONOFF_RAMPA_Handler, %function
  25              	ONOFF_RAMPA_Handler:
  26              	.LFB32:
  27              		.file 1 "mainRAMPA.c"
   1:mainRAMPA.c   **** /* ========================================
   2:mainRAMPA.c   ****  *
   3:mainRAMPA.c   **** Prueba de modulo IDAC combinado con AO para formar una VDAC.
   4:mainRAMPA.c   ****  *
   5:mainRAMPA.c   ****  * ========================================*/
   6:mainRAMPA.c   **** #include "project.h"
   7:mainRAMPA.c   **** 
   8:mainRAMPA.c   **** uint8 RampaON=0;
   9:mainRAMPA.c   **** uint8 I_OUT=0;
  10:mainRAMPA.c   **** CY_ISR(ONOFF_RAMPA_Handler)
  11:mainRAMPA.c   **** {
  28              		.loc 1 11 0
  29              		.cfi_startproc
  30              		@ args = 0, pretend = 0, frame = 0
  31              		@ frame_needed = 0, uses_anonymous_args = 0
  32 0000 10B5     		push	{r4, lr}
  33              		.cfi_def_cfa_offset 8
  34              		.cfi_offset 4, -8
  35              		.cfi_offset 14, -4
  12:mainRAMPA.c   ****     if(RampaON==1)      /* Subrutina de toggle. */
  36              		.loc 1 12 0
  37 0002 084B     		ldr	r3, .L4
  38 0004 1B78     		ldrb	r3, [r3]
  39 0006 012B     		cmp	r3, #1
  40 0008 03D1     		bne	.L2
  13:mainRAMPA.c   ****      RampaON=0;
  41              		.loc 1 13 0
  42 000a 0022     		movs	r2, #0
  43 000c 054B     		ldr	r3, .L4
  44 000e 1A70     		strb	r2, [r3]
ARM GAS  C:\Users\Jeremias\AppData\Local\Temp\cckA8ygc.s 			page 2


  45 0010 02E0     		b	.L3
  46              	.L2:
  14:mainRAMPA.c   ****     else
  15:mainRAMPA.c   ****      RampaON=1;
  47              		.loc 1 15 0
  48 0012 0122     		movs	r2, #1
  49 0014 034B     		ldr	r3, .L4
  50 0016 1A70     		strb	r2, [r3]
  51              	.L3:
  16:mainRAMPA.c   ****     SW1_RAMPA_ClearInterrupt();
  52              		.loc 1 16 0
  53 0018 FFF7FEFF 		bl	SW1_RAMPA_ClearInterrupt
  54              	.LVL0:
  17:mainRAMPA.c   ****     CyDelay(20);        /* Temporización antirebote. */
  55              		.loc 1 17 0
  56 001c 1420     		movs	r0, #20
  57 001e FFF7FEFF 		bl	CyDelay
  58              	.LVL1:
  18:mainRAMPA.c   **** }
  59              		.loc 1 18 0
  60              		@ sp needed
  61 0022 10BD     		pop	{r4, pc}
  62              	.L5:
  63              		.align	2
  64              	.L4:
  65 0024 00000000 		.word	.LANCHOR0
  66              		.cfi_endproc
  67              	.LFE32:
  68              		.size	ONOFF_RAMPA_Handler, .-ONOFF_RAMPA_Handler
  69              		.section	.text.main,"ax",%progbits
  70              		.align	2
  71              		.global	main
  72              		.code	16
  73              		.thumb_func
  74              		.type	main, %function
  75              	main:
  76              	.LFB33:
  19:mainRAMPA.c   **** 
  20:mainRAMPA.c   **** int main()
  21:mainRAMPA.c   **** {
  77              		.loc 1 21 0
  78              		.cfi_startproc
  79              		@ Volatile: function does not return.
  80              		@ args = 0, pretend = 0, frame = 0
  81              		@ frame_needed = 0, uses_anonymous_args = 0
  82 0000 10B5     		push	{r4, lr}
  83              		.cfi_def_cfa_offset 8
  84              		.cfi_offset 4, -8
  85              		.cfi_offset 14, -4
  22:mainRAMPA.c   ****     CyGlobalIntEnable;
  86              		.loc 1 22 0
  87              		.syntax divided
  88              	@ 22 "mainRAMPA.c" 1
  89 0002 62B6     		CPSIE   i
  90              	@ 0 "" 2
  23:mainRAMPA.c   ****     IDAC_1_Start();
  91              		.loc 1 23 0
ARM GAS  C:\Users\Jeremias\AppData\Local\Temp\cckA8ygc.s 			page 3


  92              		.thumb
  93              		.syntax unified
  94 0004 FFF7FEFF 		bl	IDAC_1_Start
  95              	.LVL2:
  24:mainRAMPA.c   ****     Opamp1_Start();
  96              		.loc 1 24 0
  97 0008 FFF7FEFF 		bl	Opamp1_Start
  98              	.LVL3:
  25:mainRAMPA.c   ****     Opamp1_SetPower(Opamp1_HIGHPOWER);
  99              		.loc 1 25 0
 100 000c 0320     		movs	r0, #3
 101 000e FFF7FEFF 		bl	Opamp1_SetPower
 102              	.LVL4:
  26:mainRAMPA.c   ****     ONOFF_RAMPA_StartEx(ONOFF_RAMPA_Handler);
 103              		.loc 1 26 0
 104 0012 0B48     		ldr	r0, .L10
 105 0014 FFF7FEFF 		bl	ONOFF_RAMPA_StartEx
 106              	.LVL5:
 107              	.L7:
  27:mainRAMPA.c   ****     while (1)
  28:mainRAMPA.c   ****     {
  29:mainRAMPA.c   **** 	 if(RampaON)
 108              		.loc 1 29 0
 109 0018 0A4B     		ldr	r3, .L10+4
 110 001a 1B78     		ldrb	r3, [r3]
 111 001c 002B     		cmp	r3, #0
 112 001e 07D0     		beq	.L8
  30:mainRAMPA.c   ****      {
  31:mainRAMPA.c   ****       I_OUT=I_OUT+5;            /*          */
 113              		.loc 1 31 0
 114 0020 084B     		ldr	r3, .L10+4
 115 0022 5878     		ldrb	r0, [r3, #1]
 116 0024 0530     		adds	r0, r0, #5
 117 0026 C0B2     		uxtb	r0, r0
 118 0028 5870     		strb	r0, [r3, #1]
  32:mainRAMPA.c   ****       if(I_OUT>255)            /* Cada escalon del VDAC toma 3,45us aprox. */
  33:mainRAMPA.c   ****        I_OUT=0;                 /* Considerando un clk de 48MHz y clc de inst. a 12MHz */
  34:mainRAMPA.c   ****       else{}                    /* eso da 83,3ns por instrucción */
  35:mainRAMPA.c   ****       IDAC_1_SetValue(I_OUT);   /* con lo que los 3,45us pueden traducirse en 41,4 instruc. aprox. 
 119              		.loc 1 35 0
 120 002a FFF7FEFF 		bl	IDAC_1_SetValue
 121              	.LVL6:
 122 002e F3E7     		b	.L7
 123              	.L8:
  36:mainRAMPA.c   ****       /*CyDelayUs(1);      Seteando en 1us, la frecuencia es de 1029 Hz */
  37:mainRAMPA.c   ****      }
  38:mainRAMPA.c   ****      else
  39:mainRAMPA.c   ****      {
  40:mainRAMPA.c   ****       I_OUT=0;
 124              		.loc 1 40 0
 125 0030 0022     		movs	r2, #0
 126 0032 044B     		ldr	r3, .L10+4
 127 0034 5A70     		strb	r2, [r3, #1]
  41:mainRAMPA.c   ****       IDAC_1_SetValue(I_OUT);
 128              		.loc 1 41 0
 129 0036 0020     		movs	r0, #0
 130 0038 FFF7FEFF 		bl	IDAC_1_SetValue
ARM GAS  C:\Users\Jeremias\AppData\Local\Temp\cckA8ygc.s 			page 4


 131              	.LVL7:
 132 003c ECE7     		b	.L7
 133              	.L11:
 134 003e C046     		.align	2
 135              	.L10:
 136 0040 00000000 		.word	ONOFF_RAMPA_Handler
 137 0044 00000000 		.word	.LANCHOR0
 138              		.cfi_endproc
 139              	.LFE33:
 140              		.size	main, .-main
 141              		.global	I_OUT
 142              		.global	RampaON
 143              		.bss
 144              		.set	.LANCHOR0,. + 0
 145              		.type	RampaON, %object
 146              		.size	RampaON, 1
 147              	RampaON:
 148 0000 00       		.space	1
 149              		.type	I_OUT, %object
 150              		.size	I_OUT, 1
 151              	I_OUT:
 152 0001 00       		.space	1
 153              		.text
 154              	.Letext0:
 155              		.file 2 "Generated_Source\\PSoC4/SW1_RAMPA.h"
 156              		.file 3 "Generated_Source\\PSoC4/CyLib.h"
 157              		.file 4 "Generated_Source\\PSoC4/IDAC_1.h"
 158              		.file 5 "Generated_Source\\PSoC4/Opamp1.h"
 159              		.file 6 "Generated_Source\\PSoC4/ONOFF_RAMPA.h"
 160              		.file 7 "Generated_Source\\PSoC4/cytypes.h"