ARM GAS  C:\Users\Jeremias\AppData\Local\Temp\ccjobE40.s 			page 1


   1              		.syntax unified
   2              		.cpu cortex-m0
   3              		.fpu softvfp
   4              		.eabi_attribute 20, 1
   5              		.eabi_attribute 21, 1
   6              		.eabi_attribute 23, 3
   7              		.eabi_attribute 24, 1
   8              		.eabi_attribute 25, 1
   9              		.eabi_attribute 26, 1
  10              		.eabi_attribute 30, 1
  11              		.eabi_attribute 34, 0
  12              		.eabi_attribute 18, 4
  13              		.thumb
  14              		.syntax unified
  15              		.file	"mainPWM.c"
  16              		.text
  17              	.Ltext0:
  18              		.cfi_sections	.debug_frame
  19              		.section	.text.DUTY_INT_Handler,"ax",%progbits
  20              		.align	2
  21              		.global	DUTY_INT_Handler
  22              		.code	16
  23              		.thumb_func
  24              		.type	DUTY_INT_Handler, %function
  25              	DUTY_INT_Handler:
  26              	.LFB32:
  27              		.file 1 "mainPWM.c"
   1:mainPWM.c     **** /* ========================================
   2:mainPWM.c     ****     Prueba del modulo PWM implementado con UDB.
   3:mainPWM.c     ****     Este programa genera un PWM de 1kHz aprox. que actua sobre el LED
   4:mainPWM.c     ****     On Board de la placa, la señal arranca con una Duty del 1% y se
   5:mainPWM.c     ****     incrementará en una unidad cada 50ms mientra este pulsado el SWI On Board
   6:mainPWM.c     ****     de la placa, si no esta pulsado el duty quedará fijo en el ultimo valor.
   7:mainPWM.c     ****     Paralelamente cada evento tc del PWM se genera una interrupción que incrementará
   8:mainPWM.c     ****     un contador, al transcurrir de 1000 interrupciones (aprox. 1 segundo) se 
   9:mainPWM.c     ****     irá toggleando un led conectado a la salida P1_0 (esto debería suceder todo el tiempo).
  10:mainPWM.c     ****  * ========================================
  11:mainPWM.c     **** */
  12:mainPWM.c     **** #include "project.h"
  13:mainPWM.c     **** 
  14:mainPWM.c     **** uint16 duty=0;
  15:mainPWM.c     **** uint8 Estado=0;
  16:mainPWM.c     **** 
  17:mainPWM.c     **** CY_ISR(DUTY_INT_Handler)
  18:mainPWM.c     **** {   
  28              		.loc 1 18 0
  29              		.cfi_startproc
  30              		@ args = 0, pretend = 0, frame = 0
  31              		@ frame_needed = 0, uses_anonymous_args = 0
  32 0000 10B5     		push	{r4, lr}
  33              		.cfi_def_cfa_offset 8
  34              		.cfi_offset 4, -8
  35              		.cfi_offset 14, -4
  19:mainPWM.c     ****     Pin_Ext2_Write(~Pin_Ext2_Read());
  36              		.loc 1 19 0
  37 0002 FFF7FEFF 		bl	Pin_Ext2_Read
  38              	.LVL0:
ARM GAS  C:\Users\Jeremias\AppData\Local\Temp\ccjobE40.s 			page 2


  39 0006 C043     		mvns	r0, r0
  40 0008 C0B2     		uxtb	r0, r0
  41 000a FFF7FEFF 		bl	Pin_Ext2_Write
  42              	.LVL1:
  20:mainPWM.c     ****     PWM_ReadStatusRegister();
  43              		.loc 1 20 0
  44 000e FFF7FEFF 		bl	PWM_ReadStatusRegister
  45              	.LVL2:
  21:mainPWM.c     **** }
  46              		.loc 1 21 0
  47              		@ sp needed
  48 0012 10BD     		pop	{r4, pc}
  49              		.cfi_endproc
  50              	.LFE32:
  51              		.size	DUTY_INT_Handler, .-DUTY_INT_Handler
  52              		.section	.text.PERIODO_INT_Handler,"ax",%progbits
  53              		.align	2
  54              		.global	PERIODO_INT_Handler
  55              		.code	16
  56              		.thumb_func
  57              		.type	PERIODO_INT_Handler, %function
  58              	PERIODO_INT_Handler:
  59              	.LFB33:
  22:mainPWM.c     **** 
  23:mainPWM.c     **** CY_ISR(PERIODO_INT_Handler)
  24:mainPWM.c     **** {
  60              		.loc 1 24 0
  61              		.cfi_startproc
  62              		@ args = 0, pretend = 0, frame = 0
  63              		@ frame_needed = 0, uses_anonymous_args = 0
  64 0000 10B5     		push	{r4, lr}
  65              		.cfi_def_cfa_offset 8
  66              		.cfi_offset 4, -8
  67              		.cfi_offset 14, -4
  25:mainPWM.c     ****     Pin_Ext1_Write(~Pin_Ext1_Read());
  68              		.loc 1 25 0
  69 0002 FFF7FEFF 		bl	Pin_Ext1_Read
  70              	.LVL3:
  71 0006 C043     		mvns	r0, r0
  72 0008 C0B2     		uxtb	r0, r0
  73 000a FFF7FEFF 		bl	Pin_Ext1_Write
  74              	.LVL4:
  26:mainPWM.c     **** }
  75              		.loc 1 26 0
  76              		@ sp needed
  77 000e 10BD     		pop	{r4, pc}
  78              		.cfi_endproc
  79              	.LFE33:
  80              		.size	PERIODO_INT_Handler, .-PERIODO_INT_Handler
  81              		.section	.text.SW_INT_Handler,"ax",%progbits
  82              		.align	2
  83              		.global	SW_INT_Handler
  84              		.code	16
  85              		.thumb_func
  86              		.type	SW_INT_Handler, %function
  87              	SW_INT_Handler:
  88              	.LFB34:
ARM GAS  C:\Users\Jeremias\AppData\Local\Temp\ccjobE40.s 			page 3


  27:mainPWM.c     **** 
  28:mainPWM.c     **** CY_ISR(SW_INT_Handler)
  29:mainPWM.c     **** {
  89              		.loc 1 29 0
  90              		.cfi_startproc
  91              		@ args = 0, pretend = 0, frame = 0
  92              		@ frame_needed = 0, uses_anonymous_args = 0
  93 0000 10B5     		push	{r4, lr}
  94              		.cfi_def_cfa_offset 8
  95              		.cfi_offset 4, -8
  96              		.cfi_offset 14, -4
  30:mainPWM.c     ****     if(Estado)
  97              		.loc 1 30 0
  98 0002 0A4B     		ldr	r3, .L6
  99 0004 1B78     		ldrb	r3, [r3]
 100 0006 002B     		cmp	r3, #0
 101 0008 05D0     		beq	.L4
  31:mainPWM.c     ****     {
  32:mainPWM.c     ****         Estado=0;
 102              		.loc 1 32 0
 103 000a 0022     		movs	r2, #0
 104 000c 074B     		ldr	r3, .L6
 105 000e 1A70     		strb	r2, [r3]
  33:mainPWM.c     ****         PWM_Stop();
 106              		.loc 1 33 0
 107 0010 FFF7FEFF 		bl	PWM_Stop
 108              	.LVL5:
 109 0014 04E0     		b	.L5
 110              	.L4:
  34:mainPWM.c     ****     }
  35:mainPWM.c     ****     else
  36:mainPWM.c     ****     {
  37:mainPWM.c     ****         Estado=1;
 111              		.loc 1 37 0
 112 0016 0122     		movs	r2, #1
 113 0018 044B     		ldr	r3, .L6
 114 001a 1A70     		strb	r2, [r3]
  38:mainPWM.c     ****         PWM_Start();
 115              		.loc 1 38 0
 116 001c FFF7FEFF 		bl	PWM_Start
 117              	.LVL6:
 118              	.L5:
  39:mainPWM.c     ****     }
  40:mainPWM.c     ****     Pin_SWOnB_ClearInterrupt();
 119              		.loc 1 40 0
 120 0020 FFF7FEFF 		bl	Pin_SWOnB_ClearInterrupt
 121              	.LVL7:
  41:mainPWM.c     ****     CyDelayUs(40);
 122              		.loc 1 41 0
 123 0024 2820     		movs	r0, #40
 124 0026 FFF7FEFF 		bl	CyDelayUs
 125              	.LVL8:
  42:mainPWM.c     **** }
 126              		.loc 1 42 0
 127              		@ sp needed
 128 002a 10BD     		pop	{r4, pc}
 129              	.L7:
ARM GAS  C:\Users\Jeremias\AppData\Local\Temp\ccjobE40.s 			page 4


 130              		.align	2
 131              	.L6:
 132 002c 00000000 		.word	.LANCHOR0
 133              		.cfi_endproc
 134              	.LFE34:
 135              		.size	SW_INT_Handler, .-SW_INT_Handler
 136              		.section	.text.main,"ax",%progbits
 137              		.align	2
 138              		.global	main
 139              		.code	16
 140              		.thumb_func
 141              		.type	main, %function
 142              	main:
 143              	.LFB35:
  43:mainPWM.c     **** 
  44:mainPWM.c     **** int main(void)
  45:mainPWM.c     **** {
 144              		.loc 1 45 0
 145              		.cfi_startproc
 146              		@ Volatile: function does not return.
 147              		@ args = 0, pretend = 0, frame = 0
 148              		@ frame_needed = 0, uses_anonymous_args = 0
 149 0000 10B5     		push	{r4, lr}
 150              		.cfi_def_cfa_offset 8
 151              		.cfi_offset 4, -8
 152              		.cfi_offset 14, -4
  46:mainPWM.c     ****     CyGlobalIntEnable; /* Enable global interrupts. */
 153              		.loc 1 46 0
 154              		.syntax divided
 155              	@ 46 "mainPWM.c" 1
 156 0002 62B6     		CPSIE   i
 157              	@ 0 "" 2
  47:mainPWM.c     ****     DUTY_INT_StartEx(DUTY_INT_Handler);
 158              		.loc 1 47 0
 159              		.thumb
 160              		.syntax unified
 161 0004 0448     		ldr	r0, .L10
 162 0006 FFF7FEFF 		bl	DUTY_INT_StartEx
 163              	.LVL9:
  48:mainPWM.c     ****     PERIODO_INT_StartEx(PERIODO_INT_Handler);
 164              		.loc 1 48 0
 165 000a 0448     		ldr	r0, .L10+4
 166 000c FFF7FEFF 		bl	PERIODO_INT_StartEx
 167              	.LVL10:
  49:mainPWM.c     ****     SW_INT_StartEx(SW_INT_Handler);
 168              		.loc 1 49 0
 169 0010 0348     		ldr	r0, .L10+8
 170 0012 FFF7FEFF 		bl	SW_INT_StartEx
 171              	.LVL11:
 172              	.L9:
 173 0016 FEE7     		b	.L9
 174              	.L11:
 175              		.align	2
 176              	.L10:
 177 0018 00000000 		.word	DUTY_INT_Handler
 178 001c 00000000 		.word	PERIODO_INT_Handler
 179 0020 00000000 		.word	SW_INT_Handler
ARM GAS  C:\Users\Jeremias\AppData\Local\Temp\ccjobE40.s 			page 5


 180              		.cfi_endproc
 181              	.LFE35:
 182              		.size	main, .-main
 183              		.global	Estado
 184              		.global	duty
 185              		.bss
 186              		.align	1
 187              		.set	.LANCHOR0,. + 0
 188              		.type	Estado, %object
 189              		.size	Estado, 1
 190              	Estado:
 191 0000 00       		.space	1
 192 0001 00       		.space	1
 193              		.type	duty, %object
 194              		.size	duty, 2
 195              	duty:
 196 0002 0000     		.space	2
 197              		.text
 198              	.Letext0:
 199              		.file 2 "Generated_Source\\PSoC4/cytypes.h"
 200              		.file 3 "Generated_Source\\PSoC4/Pin_Ext2.h"
 201              		.file 4 "Generated_Source\\PSoC4/PWM.h"
 202              		.file 5 "Generated_Source\\PSoC4/Pin_Ext1.h"
 203              		.file 6 "Generated_Source\\PSoC4/Pin_SWOnB.h"
 204              		.file 7 "Generated_Source\\PSoC4/CyLib.h"
 205              		.file 8 "Generated_Source\\PSoC4/DUTY_INT.h"
 206              		.file 9 "Generated_Source\\PSoC4/PERIODO_INT.h"
 207              		.file 10 "Generated_Source\\PSoC4/SW_INT.h"