ARM GAS  C:\Users\Jeremias\AppData\Local\Temp\ccktkG7c.s 			page 1


   1              		.syntax unified
   2              		.cpu cortex-m0
   3              		.fpu softvfp
   4              		.eabi_attribute 20, 1
   5              		.eabi_attribute 21, 1
   6              		.eabi_attribute 23, 3
   7              		.eabi_attribute 24, 1
   8              		.eabi_attribute 25, 1
   9              		.eabi_attribute 26, 1
  10              		.eabi_attribute 30, 1
  11              		.eabi_attribute 34, 0
  12              		.eabi_attribute 18, 4
  13              		.thumb
  14              		.syntax unified
  15              		.file	"mainIDAC+ADC.c"
  16              		.text
  17              	.Ltext0:
  18              		.cfi_sections	.debug_frame
  19              		.section	.text.VAR_AMux_Handler,"ax",%progbits
  20              		.align	2
  21              		.global	VAR_AMux_Handler
  22              		.code	16
  23              		.thumb_func
  24              		.type	VAR_AMux_Handler, %function
  25              	VAR_AMux_Handler:
  26              	.LFB32:
  27              		.file 1 "mainIDAC+ADC.c"
   1:mainIDAC+ADC.c **** /*===============================================================================
   2:mainIDAC+ADC.c ****     Prueba de modulo IDAC+ADC
   3:mainIDAC+ADC.c ****     Este programa confirgura el valor de IDAC en función del resultado de una
   4:mainIDAC+ADC.c ****     conversión AD de una potenciometro con una frecuencua de actualización
   5:mainIDAC+ADC.c ****     de 10Hz (100ms), eso de ejecuta mediante una interrución de fin de comversión.
   6:mainIDAC+ADC.c ****     Paralelamente se ejecuta una interrución cuando el pulsador SW1 de oprime,
   7:mainIDAC+ADC.c ****     en esta subrrutina sa salida del IDAC se sequencia mediente un AMux entre dos 
   8:mainIDAC+ADC.c ****     salidas y la desconección, rotando en estos tres estados.
   9:mainIDAC+ADC.c ****     El estado de la salida en texto y los valores obtenidos del ADC y enviados
  10:mainIDAC+ADC.c ****     al IDAC son en valor Hexadecimal son visualizados en una pantalla LCD de 2x16.
  11:mainIDAC+ADC.c ****  ================================================================================*/
  12:mainIDAC+ADC.c **** #include "project.h"
  13:mainIDAC+ADC.c **** 
  14:mainIDAC+ADC.c **** uint8 Estado=0;
  15:mainIDAC+ADC.c **** CY_ISR(VAR_AMux_Handler)
  16:mainIDAC+ADC.c **** {
  28              		.loc 1 16 0
  29              		.cfi_startproc
  30              		@ args = 0, pretend = 0, frame = 0
  31              		@ frame_needed = 0, uses_anonymous_args = 0
  32 0000 10B5     		push	{r4, lr}
  33              		.cfi_def_cfa_offset 8
  34              		.cfi_offset 4, -8
  35              		.cfi_offset 14, -4
  17:mainIDAC+ADC.c ****     switch(Estado)
  36              		.loc 1 17 0
  37 0002 1B4B     		ldr	r3, .L8
  38 0004 1B78     		ldrb	r3, [r3]
  39 0006 012B     		cmp	r3, #1
  40 0008 0FD0     		beq	.L3
ARM GAS  C:\Users\Jeremias\AppData\Local\Temp\ccktkG7c.s 			page 2


  41 000a 002B     		cmp	r3, #0
  42 000c 02D0     		beq	.L4
  43 000e 022B     		cmp	r3, #2
  44 0010 16D0     		beq	.L5
  45 0012 1EE0     		b	.L2
  46              	.L4:
  18:mainIDAC+ADC.c ****     {
  19:mainIDAC+ADC.c ****      case 0:
  20:mainIDAC+ADC.c ****         AMux_1_Select(0);
  47              		.loc 1 20 0
  48 0014 0020     		movs	r0, #0
  49 0016 FFF7FEFF 		bl	AMux_1_FastSelect
  50              	.LVL0:
  21:mainIDAC+ADC.c ****         LCD_Position(0,0);
  51              		.loc 1 21 0
  52 001a 0021     		movs	r1, #0
  53 001c 0020     		movs	r0, #0
  54 001e FFF7FEFF 		bl	LCD_Position
  55              	.LVL1:
  22:mainIDAC+ADC.c ****         LCD_PrintString("Salida negativa");
  56              		.loc 1 22 0
  57 0022 1448     		ldr	r0, .L8+4
  58 0024 FFF7FEFF 		bl	LCD_PrintString
  59              	.LVL2:
  23:mainIDAC+ADC.c ****         break;
  60              		.loc 1 23 0
  61 0028 13E0     		b	.L2
  62              	.L3:
  24:mainIDAC+ADC.c ****      case 1:
  25:mainIDAC+ADC.c ****         AMux_1_Select(1);
  63              		.loc 1 25 0
  64 002a 0120     		movs	r0, #1
  65 002c FFF7FEFF 		bl	AMux_1_FastSelect
  66              	.LVL3:
  26:mainIDAC+ADC.c ****         LCD_Position(0,0);
  67              		.loc 1 26 0
  68 0030 0021     		movs	r1, #0
  69 0032 0020     		movs	r0, #0
  70 0034 FFF7FEFF 		bl	LCD_Position
  71              	.LVL4:
  27:mainIDAC+ADC.c ****         LCD_PrintString("Salida positiva");
  72              		.loc 1 27 0
  73 0038 0F48     		ldr	r0, .L8+8
  74 003a FFF7FEFF 		bl	LCD_PrintString
  75              	.LVL5:
  28:mainIDAC+ADC.c ****         break;
  76              		.loc 1 28 0
  77 003e 08E0     		b	.L2
  78              	.L5:
  29:mainIDAC+ADC.c ****      case 2:
  30:mainIDAC+ADC.c ****         AMux_1_DisconnectAll();
  79              		.loc 1 30 0
  80 0040 FFF7FEFF 		bl	AMux_1_DisconnectAll
  81              	.LVL6:
  31:mainIDAC+ADC.c ****         LCD_Position(0,0);
  82              		.loc 1 31 0
  83 0044 0021     		movs	r1, #0
ARM GAS  C:\Users\Jeremias\AppData\Local\Temp\ccktkG7c.s 			page 3


  84 0046 0020     		movs	r0, #0
  85 0048 FFF7FEFF 		bl	LCD_Position
  86              	.LVL7:
  32:mainIDAC+ADC.c ****         LCD_PrintString("Salidas desc.  ");
  87              		.loc 1 32 0
  88 004c 0B48     		ldr	r0, .L8+12
  89 004e FFF7FEFF 		bl	LCD_PrintString
  90              	.LVL8:
  91              	.L2:
  33:mainIDAC+ADC.c ****         break;    
  34:mainIDAC+ADC.c ****     }
  35:mainIDAC+ADC.c ****     if(Estado>=2)
  92              		.loc 1 35 0
  93 0052 074B     		ldr	r3, .L8
  94 0054 1B78     		ldrb	r3, [r3]
  95 0056 012B     		cmp	r3, #1
  96 0058 03D9     		bls	.L6
  36:mainIDAC+ADC.c ****      Estado=0;
  97              		.loc 1 36 0
  98 005a 0022     		movs	r2, #0
  99 005c 044B     		ldr	r3, .L8
 100 005e 1A70     		strb	r2, [r3]
 101 0060 02E0     		b	.L7
 102              	.L6:
  37:mainIDAC+ADC.c ****     else
  38:mainIDAC+ADC.c ****      Estado++;
 103              		.loc 1 38 0
 104 0062 0133     		adds	r3, r3, #1
 105 0064 024A     		ldr	r2, .L8
 106 0066 1370     		strb	r3, [r2]
 107              	.L7:
  39:mainIDAC+ADC.c ****     SW1_AMux_ClearInterrupt();
 108              		.loc 1 39 0
 109 0068 FFF7FEFF 		bl	SW1_AMux_ClearInterrupt
 110              	.LVL9:
  40:mainIDAC+ADC.c **** }
 111              		.loc 1 40 0
 112              		@ sp needed
 113 006c 10BD     		pop	{r4, pc}
 114              	.L9:
 115 006e C046     		.align	2
 116              	.L8:
 117 0070 00000000 		.word	.LANCHOR0
 118 0074 00000000 		.word	.LC1
 119 0078 10000000 		.word	.LC3
 120 007c 20000000 		.word	.LC5
 121              		.cfi_endproc
 122              	.LFE32:
 123              		.size	VAR_AMux_Handler, .-VAR_AMux_Handler
 124              		.section	.text.ADC_1_IRQ_Handler,"ax",%progbits
 125              		.align	2
 126              		.global	ADC_1_IRQ_Handler
 127              		.code	16
 128              		.thumb_func
 129              		.type	ADC_1_IRQ_Handler, %function
 130              	ADC_1_IRQ_Handler:
 131              	.LFB33:
ARM GAS  C:\Users\Jeremias\AppData\Local\Temp\ccktkG7c.s 			page 4


  41:mainIDAC+ADC.c **** 
  42:mainIDAC+ADC.c **** CY_ISR(ADC_1_IRQ_Handler)
  43:mainIDAC+ADC.c **** {
 132              		.loc 1 43 0
 133              		.cfi_startproc
 134              		@ args = 0, pretend = 0, frame = 0
 135              		@ frame_needed = 0, uses_anonymous_args = 0
 136 0000 70B5     		push	{r4, r5, r6, lr}
 137              		.cfi_def_cfa_offset 16
 138              		.cfi_offset 4, -16
 139              		.cfi_offset 5, -12
 140              		.cfi_offset 6, -8
 141              		.cfi_offset 14, -4
 142              	.LVL10:
  44:mainIDAC+ADC.c ****     int16 Cont_IDAC=0;
  45:mainIDAC+ADC.c ****     uint32 IDAC_out=0;
  46:mainIDAC+ADC.c ****     uint32 intr_status;
  47:mainIDAC+ADC.c ****     intr_status = ADC_1_SAR_INTR_REG;
 143              		.loc 1 47 0
 144 0002 0D4D     		ldr	r5, .L11
 145 0004 2E68     		ldr	r6, [r5]
 146              	.LVL11:
  48:mainIDAC+ADC.c ****     ADC_1_StopConvert();
 147              		.loc 1 48 0
 148 0006 FFF7FEFF 		bl	ADC_1_StopConvert
 149              	.LVL12:
  49:mainIDAC+ADC.c ****     Cont_IDAC = ADC_1_GetResult16(0);
 150              		.loc 1 49 0
 151 000a 0020     		movs	r0, #0
 152 000c FFF7FEFF 		bl	ADC_1_GetResult16
 153              	.LVL13:
 154 0010 0400     		movs	r4, r0
 155              	.LVL14:
  50:mainIDAC+ADC.c ****     IDAC_out=Cont_IDAC;
  51:mainIDAC+ADC.c ****     IDAC_1_SetValue(IDAC_out);
 156              		.loc 1 51 0
 157 0012 FFF7FEFF 		bl	IDAC_1_SetValue
 158              	.LVL15:
  52:mainIDAC+ADC.c ****     ADC_1_SAR_INTR_REG = intr_status;
 159              		.loc 1 52 0
 160 0016 2E60     		str	r6, [r5]
  53:mainIDAC+ADC.c ****     LCD_Position(1,0);
 161              		.loc 1 53 0
 162 0018 0021     		movs	r1, #0
 163 001a 0120     		movs	r0, #1
 164 001c FFF7FEFF 		bl	LCD_Position
 165              	.LVL16:
  54:mainIDAC+ADC.c ****     LCD_PrintInt16(Cont_IDAC);
 166              		.loc 1 54 0
 167 0020 A0B2     		uxth	r0, r4
 168 0022 FFF7FEFF 		bl	LCD_PrintInt16
 169              	.LVL17:
  55:mainIDAC+ADC.c ****     LCD_Position(1,6);
 170              		.loc 1 55 0
 171 0026 0621     		movs	r1, #6
 172 0028 0120     		movs	r0, #1
 173 002a FFF7FEFF 		bl	LCD_Position
ARM GAS  C:\Users\Jeremias\AppData\Local\Temp\ccktkG7c.s 			page 5


 174              	.LVL18:
  56:mainIDAC+ADC.c ****     LCD_PrintInt32(IDAC_out);
 175              		.loc 1 56 0
 176 002e 2000     		movs	r0, r4
 177 0030 FFF7FEFF 		bl	LCD_PrintInt32
 178              	.LVL19:
  57:mainIDAC+ADC.c **** }
 179              		.loc 1 57 0
 180              		@ sp needed
 181              	.LVL20:
 182              	.LVL21:
 183 0034 70BD     		pop	{r4, r5, r6, pc}
 184              	.L12:
 185 0036 C046     		.align	2
 186              	.L11:
 187 0038 10021A40 		.word	1075446288
 188              		.cfi_endproc
 189              	.LFE33:
 190              		.size	ADC_1_IRQ_Handler, .-ADC_1_IRQ_Handler
 191              		.section	.text.main,"ax",%progbits
 192              		.align	2
 193              		.global	main
 194              		.code	16
 195              		.thumb_func
 196              		.type	main, %function
 197              	main:
 198              	.LFB34:
  58:mainIDAC+ADC.c **** 
  59:mainIDAC+ADC.c **** int main()
  60:mainIDAC+ADC.c **** {
 199              		.loc 1 60 0
 200              		.cfi_startproc
 201              		@ Volatile: function does not return.
 202              		@ args = 0, pretend = 0, frame = 0
 203              		@ frame_needed = 0, uses_anonymous_args = 0
 204 0000 10B5     		push	{r4, lr}
 205              		.cfi_def_cfa_offset 8
 206              		.cfi_offset 4, -8
 207              		.cfi_offset 14, -4
  61:mainIDAC+ADC.c ****     CyGlobalIntEnable;
 208              		.loc 1 61 0
 209              		.syntax divided
 210              	@ 61 "mainIDAC+ADC.c" 1
 211 0002 62B6     		CPSIE   i
 212              	@ 0 "" 2
  62:mainIDAC+ADC.c ****     ADC_1_Start();
 213              		.loc 1 62 0
 214              		.thumb
 215              		.syntax unified
 216 0004 FFF7FEFF 		bl	ADC_1_Start
 217              	.LVL22:
  63:mainIDAC+ADC.c ****     ADC_1_IRQ_Enable();
 218              		.loc 1 63 0
 219 0008 FFF7FEFF 		bl	ADC_1_IRQ_Enable
 220              	.LVL23:
  64:mainIDAC+ADC.c ****     IDAC_1_Start();
 221              		.loc 1 64 0
ARM GAS  C:\Users\Jeremias\AppData\Local\Temp\ccktkG7c.s 			page 6


 222 000c FFF7FEFF 		bl	IDAC_1_Start
 223              	.LVL24:
  65:mainIDAC+ADC.c ****     AMux_1_Start();
 224              		.loc 1 65 0
 225 0010 FFF7FEFF 		bl	AMux_1_Start
 226              	.LVL25:
  66:mainIDAC+ADC.c ****     Opamp_1_Start();
 227              		.loc 1 66 0
 228 0014 FFF7FEFF 		bl	Opamp_1_Start
 229              	.LVL26:
  67:mainIDAC+ADC.c ****     Opamp_1_SetPower(Opamp_1_HIGHPOWER);
 230              		.loc 1 67 0
 231 0018 0320     		movs	r0, #3
 232 001a FFF7FEFF 		bl	Opamp_1_SetPower
 233              	.LVL27:
  68:mainIDAC+ADC.c ****     LCD_Start();
 234              		.loc 1 68 0
 235 001e FFF7FEFF 		bl	LCD_Start
 236              	.LVL28:
  69:mainIDAC+ADC.c ****     LCD_Position(0,0);
 237              		.loc 1 69 0
 238 0022 0021     		movs	r1, #0
 239 0024 0020     		movs	r0, #0
 240 0026 FFF7FEFF 		bl	LCD_Position
 241              	.LVL29:
  70:mainIDAC+ADC.c ****     LCD_PrintString("Prueba LCD");
 242              		.loc 1 70 0
 243 002a 0748     		ldr	r0, .L15
 244 002c FFF7FEFF 		bl	LCD_PrintString
 245              	.LVL30:
  71:mainIDAC+ADC.c ****     VAR_AMux_StartEx(VAR_AMux_Handler);
 246              		.loc 1 71 0
 247 0030 0648     		ldr	r0, .L15+4
 248 0032 FFF7FEFF 		bl	VAR_AMux_StartEx
 249              	.LVL31:
  72:mainIDAC+ADC.c ****     ADC_1_IRQ_StartEx(ADC_1_IRQ_Handler);
 250              		.loc 1 72 0
 251 0036 0648     		ldr	r0, .L15+8
 252 0038 FFF7FEFF 		bl	ADC_1_IRQ_StartEx
 253              	.LVL32:
 254              	.L14:
  73:mainIDAC+ADC.c **** 	while(1)
  74:mainIDAC+ADC.c ****     {
  75:mainIDAC+ADC.c ****         CyDelay(100);
 255              		.loc 1 75 0 discriminator 1
 256 003c 6420     		movs	r0, #100
 257 003e FFF7FEFF 		bl	CyDelay
 258              	.LVL33:
  76:mainIDAC+ADC.c ****         ADC_1_StartConvert();
 259              		.loc 1 76 0 discriminator 1
 260 0042 FFF7FEFF 		bl	ADC_1_StartConvert
 261              	.LVL34:
 262 0046 F9E7     		b	.L14
 263              	.L16:
 264              		.align	2
 265              	.L15:
 266 0048 30000000 		.word	.LC7
ARM GAS  C:\Users\Jeremias\AppData\Local\Temp\ccktkG7c.s 			page 7


 267 004c 00000000 		.word	VAR_AMux_Handler
 268 0050 00000000 		.word	ADC_1_IRQ_Handler
 269              		.cfi_endproc
 270              	.LFE34:
 271              		.size	main, .-main
 272              		.global	Estado
 273              		.section	.rodata.str1.4,"aMS",%progbits,1
 274              		.align	2
 275              	.LC1:
 276 0000 53616C69 		.ascii	"Salida negativa\000"
 276      6461206E 
 276      65676174 
 276      69766100 
 277              	.LC3:
 278 0010 53616C69 		.ascii	"Salida positiva\000"
 278      64612070 
 278      6F736974 
 278      69766100 
 279              	.LC5:
 280 0020 53616C69 		.ascii	"Salidas desc.  \000"
 280      64617320 
 280      64657363 
 280      2E202000 
 281              	.LC7:
 282 0030 50727565 		.ascii	"Prueba LCD\000"
 282      6261204C 
 282      434400
 283              		.bss
 284              		.set	.LANCHOR0,. + 0
 285              		.type	Estado, %object
 286              		.size	Estado, 1
 287              	Estado:
 288 0000 00       		.space	1
 289              		.text
 290              	.Letext0:
 291              		.file 2 "Generated_Source\\PSoC4/cytypes.h"
 292              		.file 3 "Generated_Source\\PSoC4/AMux_1.h"
 293              		.file 4 "Generated_Source\\PSoC4/LCD.h"
 294              		.file 5 "Generated_Source\\PSoC4/SW1_AMux.h"
 295              		.file 6 "Generated_Source\\PSoC4/ADC_1.h"
 296              		.file 7 "Generated_Source\\PSoC4/IDAC_1.h"
 297              		.file 8 "Generated_Source\\PSoC4/ADC_1_IRQ.h"
 298              		.file 9 "Generated_Source\\PSoC4/Opamp_1.h"
 299              		.file 10 "Generated_Source\\PSoC4/VAR_AMux.h"
 300              		.file 11 "Generated_Source\\PSoC4/CyLib.h"