ARM GAS  C:\Users\Jeremias\AppData\Local\Temp\cce6CVC4.s 			page 1


   1              		.syntax unified
   2              		.cpu cortex-m0
   3              		.fpu softvfp
   4              		.eabi_attribute 20, 1
   5              		.eabi_attribute 21, 1
   6              		.eabi_attribute 23, 3
   7              		.eabi_attribute 24, 1
   8              		.eabi_attribute 25, 1
   9              		.eabi_attribute 26, 1
  10              		.eabi_attribute 30, 1
  11              		.eabi_attribute 34, 0
  12              		.eabi_attribute 18, 4
  13              		.thumb
  14              		.syntax unified
  15              		.file	"mainGenCuadrada.c"
  16              		.text
  17              	.Ltext0:
  18              		.cfi_sections	.debug_frame
  19              		.section	.text.ACT_Vout_Handler,"ax",%progbits
  20              		.align	2
  21              		.global	ACT_Vout_Handler
  22              		.code	16
  23              		.thumb_func
  24              		.type	ACT_Vout_Handler, %function
  25              	ACT_Vout_Handler:
  26              	.LFB32:
  27              		.file 1 "mainGenCuadrada.c"
   1:mainGenCuadrada.c **** /*===============================================================================
   2:mainGenCuadrada.c ****     Prueba de Generador de Onda Cuadrada
   3:mainGenCuadrada.c ****     Este programa configura el valor de IDAC en función del resultado de una
   4:mainGenCuadrada.c ****     conversión AD de un potenciometro que se ejecuta cada vez que se apaga 
   5:mainGenCuadrada.c ****     y enciende la onda. Paralelamente se ejecuta una interrución cuando el pulsador
   6:mainGenCuadrada.c ****     SW1 de oprime, en esta subrrutina la salida del IDAC se sequencia mediante un
   7:mainGenCuadrada.c ****     AMux entre dos salidas y la desconección, rotando en estos tres estados.
   8:mainGenCuadrada.c ****     La leyenda de que la señales esta siendo generada o no y el valor actual cargado
   9:mainGenCuadrada.c ****     en el IDAC (en Hexadecimal) son visualizados en una pantalla LCD de 2x16.
  10:mainGenCuadrada.c ****  ================================================================================*/
  11:mainGenCuadrada.c **** #include <project.h>
  12:mainGenCuadrada.c **** #include <math.h>
  13:mainGenCuadrada.c **** //#include <stdio.h>
  14:mainGenCuadrada.c **** 
  15:mainGenCuadrada.c **** uint8 Estado=0;
  16:mainGenCuadrada.c **** uint16 Duty=0;
  17:mainGenCuadrada.c **** uint16 PERI=0;
  18:mainGenCuadrada.c **** uint32 IDAC_out=0;
  19:mainGenCuadrada.c **** uint8 I_neg = 0;
  20:mainGenCuadrada.c **** uint8 I_pos = 1;
  21:mainGenCuadrada.c **** CY_ISR(ACT_Vout_Handler)
  22:mainGenCuadrada.c **** {
  28              		.loc 1 22 0
  29              		.cfi_startproc
  30              		@ args = 0, pretend = 0, frame = 0
  31              		@ frame_needed = 0, uses_anonymous_args = 0
  32 0000 10B5     		push	{r4, lr}
  33              		.cfi_def_cfa_offset 8
  34              		.cfi_offset 4, -8
  35              		.cfi_offset 14, -4
ARM GAS  C:\Users\Jeremias\AppData\Local\Temp\cce6CVC4.s 			page 2


  23:mainGenCuadrada.c ****     if(Estado)
  36              		.loc 1 23 0
  37 0002 174B     		ldr	r3, .L4
  38 0004 1B78     		ldrb	r3, [r3]
  39 0006 002B     		cmp	r3, #0
  40 0008 11D0     		beq	.L2
  24:mainGenCuadrada.c ****     {
  25:mainGenCuadrada.c ****         AMux_1_DisconnectAll();
  41              		.loc 1 25 0
  42 000a FFF7FEFF 		bl	AMux_1_DisconnectAll
  43              	.LVL0:
  26:mainGenCuadrada.c ****         IDAC_1_SetValue(0); 
  44              		.loc 1 26 0
  45 000e 0020     		movs	r0, #0
  46 0010 FFF7FEFF 		bl	IDAC_1_SetValue
  47              	.LVL1:
  27:mainGenCuadrada.c ****         PWM_Stop();
  48              		.loc 1 27 0
  49 0014 FFF7FEFF 		bl	PWM_Stop
  50              	.LVL2:
  28:mainGenCuadrada.c ****   //      ADC_1_IRQ_Enable();
  29:mainGenCuadrada.c **** //        ADC_1_StartConvert();
  30:mainGenCuadrada.c ****         Estado = 0;    
  51              		.loc 1 30 0
  52 0018 0022     		movs	r2, #0
  53 001a 114B     		ldr	r3, .L4
  54 001c 1A70     		strb	r2, [r3]
  31:mainGenCuadrada.c ****         LCD_Position(0,0);
  55              		.loc 1 31 0
  56 001e 0021     		movs	r1, #0
  57 0020 0020     		movs	r0, #0
  58 0022 FFF7FEFF 		bl	LCD_Position
  59              	.LVL3:
  32:mainGenCuadrada.c ****         LCD_PrintString("   Salida OFF   ");
  60              		.loc 1 32 0
  61 0026 0F48     		ldr	r0, .L4+4
  62 0028 FFF7FEFF 		bl	LCD_PrintString
  63              	.LVL4:
  64 002c 14E0     		b	.L3
  65              	.L2:
  33:mainGenCuadrada.c ****     }
  34:mainGenCuadrada.c ****     else
  35:mainGenCuadrada.c ****     {
  36:mainGenCuadrada.c ****         Estado = 1; 
  66              		.loc 1 36 0
  67 002e 0C4C     		ldr	r4, .L4
  68 0030 0123     		movs	r3, #1
  69 0032 2370     		strb	r3, [r4]
  37:mainGenCuadrada.c **** //        ADC_1_IRQ_Disable();
  38:mainGenCuadrada.c ****  //       ADC_1_StopConvert();
  39:mainGenCuadrada.c ****         PWM_WritePeriod(PERI);
  70              		.loc 1 39 0
  71 0034 6088     		ldrh	r0, [r4, #2]
  72 0036 FFF7FEFF 		bl	PWM_WritePeriod
  73              	.LVL5:
  40:mainGenCuadrada.c ****         PWM_WriteCompare(Duty);
  74              		.loc 1 40 0
ARM GAS  C:\Users\Jeremias\AppData\Local\Temp\cce6CVC4.s 			page 3


  75 003a A088     		ldrh	r0, [r4, #4]
  76 003c FFF7FEFF 		bl	PWM_WriteCompare
  77              	.LVL6:
  41:mainGenCuadrada.c ****         IDAC_1_SetValue(IDAC_out); 
  78              		.loc 1 41 0
  79 0040 A068     		ldr	r0, [r4, #8]
  80 0042 FFF7FEFF 		bl	IDAC_1_SetValue
  81              	.LVL7:
  42:mainGenCuadrada.c ****         PWM_Start();
  82              		.loc 1 42 0
  83 0046 FFF7FEFF 		bl	PWM_Start
  84              	.LVL8:
  43:mainGenCuadrada.c ****         LCD_Position(0,0);
  85              		.loc 1 43 0
  86 004a 0021     		movs	r1, #0
  87 004c 0020     		movs	r0, #0
  88 004e FFF7FEFF 		bl	LCD_Position
  89              	.LVL9:
  44:mainGenCuadrada.c ****         LCD_PrintString("   Salida ON    ");
  90              		.loc 1 44 0
  91 0052 0548     		ldr	r0, .L4+8
  92 0054 FFF7FEFF 		bl	LCD_PrintString
  93              	.LVL10:
  94              	.L3:
  45:mainGenCuadrada.c ****     }
  46:mainGenCuadrada.c ****     SW1_Vout_ClearInterrupt();
  95              		.loc 1 46 0
  96 0058 FFF7FEFF 		bl	SW1_Vout_ClearInterrupt
  97              	.LVL11:
  47:mainGenCuadrada.c **** }
  98              		.loc 1 47 0
  99              		@ sp needed
 100 005c 10BD     		pop	{r4, pc}
 101              	.L5:
 102 005e C046     		.align	2
 103              	.L4:
 104 0060 00000000 		.word	.LANCHOR0
 105 0064 00000000 		.word	.LC1
 106 0068 14000000 		.word	.LC3
 107              		.cfi_endproc
 108              	.LFE32:
 109              		.size	ACT_Vout_Handler, .-ACT_Vout_Handler
 110              		.section	.text.PWMPeri_INT_Handler,"ax",%progbits
 111              		.align	2
 112              		.global	PWMPeri_INT_Handler
 113              		.code	16
 114              		.thumb_func
 115              		.type	PWMPeri_INT_Handler, %function
 116              	PWMPeri_INT_Handler:
 117              	.LFB34:
  48:mainGenCuadrada.c **** 
  49:mainGenCuadrada.c **** //CY_ISR(ADC_1_IRQ_Handler)
  50:mainGenCuadrada.c **** //{
  51:mainGenCuadrada.c **** //    float32 DutyAux2=0;
  52:mainGenCuadrada.c **** //    int32 DutyAux3=0;
  53:mainGenCuadrada.c **** //    int16 DutyAux1=0;
  54:mainGenCuadrada.c **** //    int16 PERIAux=0;
ARM GAS  C:\Users\Jeremias\AppData\Local\Temp\cce6CVC4.s 			page 4


  55:mainGenCuadrada.c **** //    int16 Niv_IDAC=0;
  56:mainGenCuadrada.c **** //    uint32 intr_status;
  57:mainGenCuadrada.c **** //    intr_status = ADC_1_SAR_INTR_REG;
  58:mainGenCuadrada.c **** //    ADC_1_StopConvert();
  59:mainGenCuadrada.c **** //    Niv_IDAC = ADC_1_GetResult16(0);
  60:mainGenCuadrada.c **** //    DutyAux1 = ADC_1_GetResult16(1);
  61:mainGenCuadrada.c **** //    PERIAux = ADC_1_GetResult16(2);
  62:mainGenCuadrada.c **** //    IDAC_out = Niv_IDAC;
  63:mainGenCuadrada.c **** //    if(IDAC_out > 255)
  64:mainGenCuadrada.c **** //        IDAC_out = 255;
  65:mainGenCuadrada.c **** //    else{}
  66:mainGenCuadrada.c **** //    DutyAux2 = ADC_1_CountsTo_Volts(1,DutyAux1)/5;
  67:mainGenCuadrada.c **** //    DutyAux3 = truncf(PERIAux*DutyAux2);
  68:mainGenCuadrada.c **** //    Duty = DutyAux3;
  69:mainGenCuadrada.c **** //    PERI = PERIAux;
  70:mainGenCuadrada.c **** //    ADC_1_SAR_INTR_REG = intr_status;
  71:mainGenCuadrada.c **** //    LCD_Position(1,0);
  72:mainGenCuadrada.c **** //    LCD_PrintInt16(Niv_IDAC);
  73:mainGenCuadrada.c **** //   LCD_Position(1,6);
  74:mainGenCuadrada.c **** //    LCD_PrintInt16(Duty);
  75:mainGenCuadrada.c **** //    LCD_Position(1,12);
  76:mainGenCuadrada.c ****  //   LCD_PrintInt16(PERI); 
  77:mainGenCuadrada.c **** //    ADC_1_StartConvert();
  78:mainGenCuadrada.c **** //}
  79:mainGenCuadrada.c **** 
  80:mainGenCuadrada.c **** CY_ISR(PWMComp_INT_Handler)
  81:mainGenCuadrada.c **** {
  82:mainGenCuadrada.c ****     AMux_1_DisconnectAll();
  83:mainGenCuadrada.c ****     AMux_1_Select(I_pos);
  84:mainGenCuadrada.c ****     PWM_ReadStatusRegister();
  85:mainGenCuadrada.c ****     
  86:mainGenCuadrada.c **** }
  87:mainGenCuadrada.c **** 
  88:mainGenCuadrada.c **** CY_ISR(PWMPeri_INT_Handler)
  89:mainGenCuadrada.c **** {
 118              		.loc 1 89 0
 119              		.cfi_startproc
 120              		@ args = 0, pretend = 0, frame = 0
 121              		@ frame_needed = 0, uses_anonymous_args = 0
 122 0000 10B5     		push	{r4, lr}
 123              		.cfi_def_cfa_offset 8
 124              		.cfi_offset 4, -8
 125              		.cfi_offset 14, -4
  90:mainGenCuadrada.c ****     AMux_1_DisconnectAll();
 126              		.loc 1 90 0
 127 0002 FFF7FEFF 		bl	AMux_1_DisconnectAll
 128              	.LVL12:
  91:mainGenCuadrada.c ****     AMux_1_Select(I_neg);
 129              		.loc 1 91 0
 130 0006 024B     		ldr	r3, .L7
 131 0008 187B     		ldrb	r0, [r3, #12]
 132 000a FFF7FEFF 		bl	AMux_1_FastSelect
 133              	.LVL13:
  92:mainGenCuadrada.c **** }
 134              		.loc 1 92 0
 135              		@ sp needed
 136 000e 10BD     		pop	{r4, pc}
ARM GAS  C:\Users\Jeremias\AppData\Local\Temp\cce6CVC4.s 			page 5


 137              	.L8:
 138              		.align	2
 139              	.L7:
 140 0010 00000000 		.word	.LANCHOR0
 141              		.cfi_endproc
 142              	.LFE34:
 143              		.size	PWMPeri_INT_Handler, .-PWMPeri_INT_Handler
 144              		.section	.text.PWMComp_INT_Handler,"ax",%progbits
 145              		.align	2
 146              		.global	PWMComp_INT_Handler
 147              		.code	16
 148              		.thumb_func
 149              		.type	PWMComp_INT_Handler, %function
 150              	PWMComp_INT_Handler:
 151              	.LFB33:
  81:mainGenCuadrada.c ****     AMux_1_DisconnectAll();
 152              		.loc 1 81 0
 153              		.cfi_startproc
 154              		@ args = 0, pretend = 0, frame = 0
 155              		@ frame_needed = 0, uses_anonymous_args = 0
 156 0000 10B5     		push	{r4, lr}
 157              		.cfi_def_cfa_offset 8
 158              		.cfi_offset 4, -8
 159              		.cfi_offset 14, -4
  82:mainGenCuadrada.c ****     AMux_1_Select(I_pos);
 160              		.loc 1 82 0
 161 0002 FFF7FEFF 		bl	AMux_1_DisconnectAll
 162              	.LVL14:
  83:mainGenCuadrada.c ****     PWM_ReadStatusRegister();
 163              		.loc 1 83 0
 164 0006 034B     		ldr	r3, .L10
 165 0008 1878     		ldrb	r0, [r3]
 166 000a FFF7FEFF 		bl	AMux_1_FastSelect
 167              	.LVL15:
  84:mainGenCuadrada.c ****     
 168              		.loc 1 84 0
 169 000e FFF7FEFF 		bl	PWM_ReadStatusRegister
 170              	.LVL16:
  86:mainGenCuadrada.c **** 
 171              		.loc 1 86 0
 172              		@ sp needed
 173 0012 10BD     		pop	{r4, pc}
 174              	.L11:
 175              		.align	2
 176              	.L10:
 177 0014 00000000 		.word	.LANCHOR1
 178              		.cfi_endproc
 179              	.LFE33:
 180              		.size	PWMComp_INT_Handler, .-PWMComp_INT_Handler
 181              		.section	.text.main,"ax",%progbits
 182              		.align	2
 183              		.global	main
 184              		.code	16
 185              		.thumb_func
 186              		.type	main, %function
 187              	main:
 188              	.LFB35:
ARM GAS  C:\Users\Jeremias\AppData\Local\Temp\cce6CVC4.s 			page 6


  93:mainGenCuadrada.c **** 
  94:mainGenCuadrada.c **** int main()
  95:mainGenCuadrada.c **** {
 189              		.loc 1 95 0
 190              		.cfi_startproc
 191              		@ Volatile: function does not return.
 192              		@ args = 0, pretend = 0, frame = 0
 193              		@ frame_needed = 0, uses_anonymous_args = 0
 194 0000 10B5     		push	{r4, lr}
 195              		.cfi_def_cfa_offset 8
 196              		.cfi_offset 4, -8
 197              		.cfi_offset 14, -4
  96:mainGenCuadrada.c ****     CyGlobalIntEnable;
 198              		.loc 1 96 0
 199              		.syntax divided
 200              	@ 96 "mainGenCuadrada.c" 1
 201 0002 62B6     		CPSIE   i
 202              	@ 0 "" 2
  97:mainGenCuadrada.c **** //    ADC_1_Start();
  98:mainGenCuadrada.c **** //    ADC_1_IRQ_Enable();
  99:mainGenCuadrada.c ****     IDAC_1_Start();
 203              		.loc 1 99 0
 204              		.thumb
 205              		.syntax unified
 206 0004 FFF7FEFF 		bl	IDAC_1_Start
 207              	.LVL17:
 100:mainGenCuadrada.c ****     AMux_1_Start();
 208              		.loc 1 100 0
 209 0008 FFF7FEFF 		bl	AMux_1_Start
 210              	.LVL18:
 101:mainGenCuadrada.c ****     AMux_1_DisconnectAll();
 211              		.loc 1 101 0
 212 000c FFF7FEFF 		bl	AMux_1_DisconnectAll
 213              	.LVL19:
 102:mainGenCuadrada.c ****     PWM_Init();         /*Inicializo el PWM pero no lo enciendo.*/
 214              		.loc 1 102 0
 215 0010 FFF7FEFF 		bl	PWM_Init
 216              	.LVL20:
 103:mainGenCuadrada.c ****     LCD_Start();
 217              		.loc 1 103 0
 218 0014 FFF7FEFF 		bl	LCD_Start
 219              	.LVL21:
 104:mainGenCuadrada.c ****     LCD_Position(0,0);
 220              		.loc 1 104 0
 221 0018 0021     		movs	r1, #0
 222 001a 0020     		movs	r0, #0
 223 001c FFF7FEFF 		bl	LCD_Position
 224              	.LVL22:
 105:mainGenCuadrada.c ****     LCD_PrintString("Onda Cuadrada BF"); 
 225              		.loc 1 105 0
 226 0020 0648     		ldr	r0, .L14
 227 0022 FFF7FEFF 		bl	LCD_PrintString
 228              	.LVL23:
 106:mainGenCuadrada.c ****     ACT_Vout_StartEx(ACT_Vout_Handler);
 229              		.loc 1 106 0
 230 0026 0648     		ldr	r0, .L14+4
 231 0028 FFF7FEFF 		bl	ACT_Vout_StartEx
ARM GAS  C:\Users\Jeremias\AppData\Local\Temp\cce6CVC4.s 			page 7


 232              	.LVL24:
 107:mainGenCuadrada.c ****  //   ADC_1_IRQ_StartEx(ADC_1_IRQ_Handler);
 108:mainGenCuadrada.c ****     PWMComp_INT_StartEx(PWMComp_INT_Handler);
 233              		.loc 1 108 0
 234 002c 0548     		ldr	r0, .L14+8
 235 002e FFF7FEFF 		bl	PWMComp_INT_StartEx
 236              	.LVL25:
 109:mainGenCuadrada.c ****     PWMPeri_INT_StartEx(PWMPeri_INT_Handler);
 237              		.loc 1 109 0
 238 0032 0548     		ldr	r0, .L14+12
 239 0034 FFF7FEFF 		bl	PWMPeri_INT_StartEx
 240              	.LVL26:
 241              	.L13:
 242 0038 FEE7     		b	.L13
 243              	.L15:
 244 003a C046     		.align	2
 245              	.L14:
 246 003c 28000000 		.word	.LC7
 247 0040 00000000 		.word	ACT_Vout_Handler
 248 0044 00000000 		.word	PWMComp_INT_Handler
 249 0048 00000000 		.word	PWMPeri_INT_Handler
 250              		.cfi_endproc
 251              	.LFE35:
 252              		.size	main, .-main
 253              		.global	I_pos
 254              		.global	I_neg
 255              		.global	IDAC_out
 256              		.global	PERI
 257              		.global	Duty
 258              		.global	Estado
 259              		.data
 260              		.set	.LANCHOR1,. + 0
 261              		.type	I_pos, %object
 262              		.size	I_pos, 1
 263              	I_pos:
 264 0000 01       		.byte	1
 265              		.section	.rodata.str1.4,"aMS",%progbits,1
 266              		.align	2
 267              	.LC1:
 268 0000 20202053 		.ascii	"   Salida OFF   \000"
 268      616C6964 
 268      61204F46 
 268      46202020 
 268      00
 269 0011 000000   		.space	3
 270              	.LC3:
 271 0014 20202053 		.ascii	"   Salida ON    \000"
 271      616C6964 
 271      61204F4E 
 271      20202020 
 271      00
 272 0025 000000   		.space	3
 273              	.LC7:
 274 0028 4F6E6461 		.ascii	"Onda Cuadrada BF\000"
 274      20437561 
 274      64726164 
 274      61204246 
ARM GAS  C:\Users\Jeremias\AppData\Local\Temp\cce6CVC4.s 			page 8


 274      00
 275              		.bss
 276              		.align	2
 277              		.set	.LANCHOR0,. + 0
 278              		.type	Estado, %object
 279              		.size	Estado, 1
 280              	Estado:
 281 0000 00       		.space	1
 282 0001 00       		.space	1
 283              		.type	PERI, %object
 284              		.size	PERI, 2
 285              	PERI:
 286 0002 0000     		.space	2
 287              		.type	Duty, %object
 288              		.size	Duty, 2
 289              	Duty:
 290 0004 0000     		.space	2
 291 0006 0000     		.space	2
 292              		.type	IDAC_out, %object
 293              		.size	IDAC_out, 4
 294              	IDAC_out:
 295 0008 00000000 		.space	4
 296              		.type	I_neg, %object
 297              		.size	I_neg, 1
 298              	I_neg:
 299 000c 00       		.space	1
 300              		.text
 301              	.Letext0:
 302              		.file 2 "Generated_Source\\PSoC4/cytypes.h"
 303              		.file 3 "Generated_Source\\PSoC4/AMux_1.h"
 304              		.file 4 "Generated_Source\\PSoC4/IDAC_1.h"
 305              		.file 5 "Generated_Source\\PSoC4/PWM.h"
 306              		.file 6 "Generated_Source\\PSoC4/LCD.h"
 307              		.file 7 "Generated_Source\\PSoC4/SW1_Vout.h"
 308              		.file 8 "Generated_Source\\PSoC4/ACT_Vout.h"
 309              		.file 9 "Generated_Source\\PSoC4/PWMComp_INT.h"
 310              		.file 10 "Generated_Source\\PSoC4/PWMPeri_INT.h"