ARM GAS  C:\Users\Jeremias\AppData\Local\Temp\ccB7ptNJ.s 			page 1


   1              		.syntax unified
   2              		.cpu cortex-m0
   3              		.fpu softvfp
   4              		.eabi_attribute 20, 1
   5              		.eabi_attribute 21, 1
   6              		.eabi_attribute 23, 3
   7              		.eabi_attribute 24, 1
   8              		.eabi_attribute 25, 1
   9              		.eabi_attribute 26, 1
  10              		.eabi_attribute 30, 1
  11              		.eabi_attribute 34, 0
  12              		.eabi_attribute 18, 4
  13              		.thumb
  14              		.syntax unified
  15              		.file	"mainTCPWM.c"
  16              		.text
  17              	.Ltext0:
  18              		.cfi_sections	.debug_frame
  19              		.section	.text.PWM_INT_Handler,"ax",%progbits
  20              		.align	2
  21              		.global	PWM_INT_Handler
  22              		.code	16
  23              		.thumb_func
  24              		.type	PWM_INT_Handler, %function
  25              	PWM_INT_Handler:
  26              	.LFB32:
  27              		.file 1 "mainTCPWM.c"
   1:mainTCPWM.c   **** /* ========================================
   2:mainTCPWM.c   ****  pRUEBA DEL MODULO TCPWM
   3:mainTCPWM.c   ****  * ========================================
   4:mainTCPWM.c   **** */
   5:mainTCPWM.c   **** #include <project.h>
   6:mainTCPWM.c   **** 
   7:mainTCPWM.c   **** uint8 estado = 0;
   8:mainTCPWM.c   **** 
   9:mainTCPWM.c   **** CY_ISR(PWM_INT_Handler)
  10:mainTCPWM.c   **** {
  28              		.loc 1 10 0
  29              		.cfi_startproc
  30              		@ args = 0, pretend = 0, frame = 0
  31              		@ frame_needed = 0, uses_anonymous_args = 0
  32 0000 10B5     		push	{r4, lr}
  33              		.cfi_def_cfa_offset 8
  34              		.cfi_offset 4, -8
  35              		.cfi_offset 14, -4
  36              	.LVL0:
  11:mainTCPWM.c   ****     uint32 estado_int=0;
  12:mainTCPWM.c   ****     estado_int = PWM_1_GetInterruptSourceMasked();
  37              		.loc 1 12 0
  38 0002 FFF7FEFF 		bl	PWM_1_GetInterruptSourceMasked
  39              	.LVL1:
  13:mainTCPWM.c   ****     switch(estado_int)
  40              		.loc 1 13 0
  41 0006 0128     		cmp	r0, #1
  42 0008 02D0     		beq	.L3
  43 000a 0228     		cmp	r0, #2
  44 000c 0AD0     		beq	.L4
ARM GAS  C:\Users\Jeremias\AppData\Local\Temp\ccB7ptNJ.s 			page 2


  45 000e 13E0     		b	.L6
  46              	.L3:
  14:mainTCPWM.c   ****     {
  15:mainTCPWM.c   ****         case PWM_1_INTR_MASK_TC:
  16:mainTCPWM.c   ****             Pin_INT_TC_Write(~Pin_INT_TC_Read());
  47              		.loc 1 16 0
  48 0010 FFF7FEFF 		bl	Pin_INT_TC_Read
  49              	.LVL2:
  50 0014 C043     		mvns	r0, r0
  51 0016 C0B2     		uxtb	r0, r0
  52 0018 FFF7FEFF 		bl	Pin_INT_TC_Write
  53              	.LVL3:
  17:mainTCPWM.c   ****             PWM_1_ClearInterrupt(PWM_1_INTR_MASK_TC);
  54              		.loc 1 17 0
  55 001c 0120     		movs	r0, #1
  56 001e FFF7FEFF 		bl	PWM_1_ClearInterrupt
  57              	.LVL4:
  18:mainTCPWM.c   ****             break;
  58              		.loc 1 18 0
  59 0022 0FE0     		b	.L1
  60              	.LVL5:
  61              	.L4:
  19:mainTCPWM.c   ****         case PWM_1_INTR_MASK_CC_MATCH:
  20:mainTCPWM.c   ****             Pin_INT_CC_Write(~Pin_INT_CC_Read());
  62              		.loc 1 20 0
  63 0024 FFF7FEFF 		bl	Pin_INT_CC_Read
  64              	.LVL6:
  65 0028 C043     		mvns	r0, r0
  66 002a C0B2     		uxtb	r0, r0
  67 002c FFF7FEFF 		bl	Pin_INT_CC_Write
  68              	.LVL7:
  21:mainTCPWM.c   ****             PWM_1_ClearInterrupt(PWM_1_INTR_MASK_CC_MATCH);
  69              		.loc 1 21 0
  70 0030 0220     		movs	r0, #2
  71 0032 FFF7FEFF 		bl	PWM_1_ClearInterrupt
  72              	.LVL8:
  22:mainTCPWM.c   ****             break;
  73              		.loc 1 22 0
  74 0036 05E0     		b	.L1
  75              	.LVL9:
  76              	.L6:
  23:mainTCPWM.c   ****         default:
  24:mainTCPWM.c   ****             PWM_1_ClearInterrupt(PWM_1_INTR_MASK_TC);
  77              		.loc 1 24 0
  78 0038 0120     		movs	r0, #1
  79              	.LVL10:
  80 003a FFF7FEFF 		bl	PWM_1_ClearInterrupt
  81              	.LVL11:
  25:mainTCPWM.c   ****             PWM_1_ClearInterrupt(PWM_1_INTR_MASK_CC_MATCH);
  82              		.loc 1 25 0
  83 003e 0220     		movs	r0, #2
  84 0040 FFF7FEFF 		bl	PWM_1_ClearInterrupt
  85              	.LVL12:
  86              	.L1:
  26:mainTCPWM.c   ****             break;
  27:mainTCPWM.c   ****     }
  28:mainTCPWM.c   **** }
ARM GAS  C:\Users\Jeremias\AppData\Local\Temp\ccB7ptNJ.s 			page 3


  87              		.loc 1 28 0
  88              		@ sp needed
  89 0044 10BD     		pop	{r4, pc}
  90              		.cfi_endproc
  91              	.LFE32:
  92              		.size	PWM_INT_Handler, .-PWM_INT_Handler
  93 0046 C046     		.section	.text.SW_INT_Handler,"ax",%progbits
  94              		.align	2
  95              		.global	SW_INT_Handler
  96              		.code	16
  97              		.thumb_func
  98              		.type	SW_INT_Handler, %function
  99              	SW_INT_Handler:
 100              	.LFB33:
  29:mainTCPWM.c   **** 
  30:mainTCPWM.c   **** CY_ISR(SW_INT_Handler)
  31:mainTCPWM.c   **** {
 101              		.loc 1 31 0
 102              		.cfi_startproc
 103              		@ args = 0, pretend = 0, frame = 0
 104              		@ frame_needed = 0, uses_anonymous_args = 0
 105 0000 10B5     		push	{r4, lr}
 106              		.cfi_def_cfa_offset 8
 107              		.cfi_offset 4, -8
 108              		.cfi_offset 14, -4
  32:mainTCPWM.c   ****     if(estado)
 109              		.loc 1 32 0
 110 0002 0D4B     		ldr	r3, .L10
 111 0004 1B78     		ldrb	r3, [r3]
 112 0006 002B     		cmp	r3, #0
 113 0008 0BD0     		beq	.L8
  33:mainTCPWM.c   ****     {
  34:mainTCPWM.c   ****         estado = 0;
 114              		.loc 1 34 0
 115 000a 0022     		movs	r2, #0
 116 000c 0A4B     		ldr	r3, .L10
 117 000e 1A70     		strb	r2, [r3]
  35:mainTCPWM.c   ****         PWM_1_Stop();
 118              		.loc 1 35 0
 119 0010 FFF7FEFF 		bl	PWM_1_Stop
 120              	.LVL13:
  36:mainTCPWM.c   ****         Pin_INT_TC_Write(0);
 121              		.loc 1 36 0
 122 0014 0020     		movs	r0, #0
 123 0016 FFF7FEFF 		bl	Pin_INT_TC_Write
 124              	.LVL14:
  37:mainTCPWM.c   ****         Pin_INT_CC_Write(0);
 125              		.loc 1 37 0
 126 001a 0020     		movs	r0, #0
 127 001c FFF7FEFF 		bl	Pin_INT_CC_Write
 128              	.LVL15:
 129 0020 04E0     		b	.L9
 130              	.L8:
  38:mainTCPWM.c   ****     }
  39:mainTCPWM.c   ****     else
  40:mainTCPWM.c   ****     {
  41:mainTCPWM.c   ****         estado = 1;
ARM GAS  C:\Users\Jeremias\AppData\Local\Temp\ccB7ptNJ.s 			page 4


 131              		.loc 1 41 0
 132 0022 0122     		movs	r2, #1
 133 0024 044B     		ldr	r3, .L10
 134 0026 1A70     		strb	r2, [r3]
  42:mainTCPWM.c   ****         PWM_1_Start();
 135              		.loc 1 42 0
 136 0028 FFF7FEFF 		bl	PWM_1_Start
 137              	.LVL16:
 138              	.L9:
  43:mainTCPWM.c   ****     }
  44:mainTCPWM.c   ****     Pin_SW_ClearInterrupt();
 139              		.loc 1 44 0
 140 002c FFF7FEFF 		bl	Pin_SW_ClearInterrupt
 141              	.LVL17:
  45:mainTCPWM.c   ****     CyDelayUs(40);
 142              		.loc 1 45 0
 143 0030 2820     		movs	r0, #40
 144 0032 FFF7FEFF 		bl	CyDelayUs
 145              	.LVL18:
  46:mainTCPWM.c   **** }
 146              		.loc 1 46 0
 147              		@ sp needed
 148 0036 10BD     		pop	{r4, pc}
 149              	.L11:
 150              		.align	2
 151              	.L10:
 152 0038 00000000 		.word	.LANCHOR0
 153              		.cfi_endproc
 154              	.LFE33:
 155              		.size	SW_INT_Handler, .-SW_INT_Handler
 156              		.section	.text.main,"ax",%progbits
 157              		.align	2
 158              		.global	main
 159              		.code	16
 160              		.thumb_func
 161              		.type	main, %function
 162              	main:
 163              	.LFB34:
  47:mainTCPWM.c   **** 
  48:mainTCPWM.c   **** int main(void)
  49:mainTCPWM.c   **** {
 164              		.loc 1 49 0
 165              		.cfi_startproc
 166              		@ Volatile: function does not return.
 167              		@ args = 0, pretend = 0, frame = 0
 168              		@ frame_needed = 0, uses_anonymous_args = 0
 169 0000 10B5     		push	{r4, lr}
 170              		.cfi_def_cfa_offset 8
 171              		.cfi_offset 4, -8
 172              		.cfi_offset 14, -4
  50:mainTCPWM.c   ****     CyGlobalIntEnable; // Enable global interrupts.
 173              		.loc 1 50 0
 174              		.syntax divided
 175              	@ 50 "mainTCPWM.c" 1
 176 0002 62B6     		CPSIE   i
 177              	@ 0 "" 2
  51:mainTCPWM.c   ****     PWM_INT_StartEx(PWM_INT_Handler);
ARM GAS  C:\Users\Jeremias\AppData\Local\Temp\ccB7ptNJ.s 			page 5


 178              		.loc 1 51 0
 179              		.thumb
 180              		.syntax unified
 181 0004 0648     		ldr	r0, .L14
 182 0006 FFF7FEFF 		bl	PWM_INT_StartEx
 183              	.LVL19:
  52:mainTCPWM.c   ****     SW_INT_StartEx(SW_INT_Handler);
 184              		.loc 1 52 0
 185 000a 0648     		ldr	r0, .L14+4
 186 000c FFF7FEFF 		bl	SW_INT_StartEx
 187              	.LVL20:
  53:mainTCPWM.c   ****     Pin_INT_TC_Write(0);
 188              		.loc 1 53 0
 189 0010 0020     		movs	r0, #0
 190 0012 FFF7FEFF 		bl	Pin_INT_TC_Write
 191              	.LVL21:
  54:mainTCPWM.c   ****     Pin_INT_CC_Write(0);
 192              		.loc 1 54 0
 193 0016 0020     		movs	r0, #0
 194 0018 FFF7FEFF 		bl	Pin_INT_CC_Write
 195              	.LVL22:
 196              	.L13:
 197 001c FEE7     		b	.L13
 198              	.L15:
 199 001e C046     		.align	2
 200              	.L14:
 201 0020 00000000 		.word	PWM_INT_Handler
 202 0024 00000000 		.word	SW_INT_Handler
 203              		.cfi_endproc
 204              	.LFE34:
 205              		.size	main, .-main
 206              		.global	estado
 207              		.bss
 208              		.set	.LANCHOR0,. + 0
 209              		.type	estado, %object
 210              		.size	estado, 1
 211              	estado:
 212 0000 00       		.space	1
 213              		.text
 214              	.Letext0:
 215              		.file 2 "Generated_Source\\PSoC4/cytypes.h"
 216              		.file 3 "Generated_Source\\PSoC4/PWM_1.h"
 217              		.file 4 "Generated_Source\\PSoC4/Pin_INT_TC.h"
 218              		.file 5 "Generated_Source\\PSoC4/Pin_INT_CC.h"
 219              		.file 6 "Generated_Source\\PSoC4/Pin_SW.h"
 220              		.file 7 "Generated_Source\\PSoC4/CyLib.h"
 221              		.file 8 "Generated_Source\\PSoC4/PWM_INT.h"
 222              		.file 9 "Generated_Source\\PSoC4/SW_INT.h"