ARM GAS  C:\Users\Jeremias\AppData\Local\Temp\ccZm0r3r.s 			page 1


   1              		.syntax unified
   2              		.cpu cortex-m0
   3              		.fpu softvfp
   4              		.eabi_attribute 20, 1
   5              		.eabi_attribute 21, 1
   6              		.eabi_attribute 23, 3
   7              		.eabi_attribute 24, 1
   8              		.eabi_attribute 25, 1
   9              		.eabi_attribute 26, 1
  10              		.eabi_attribute 30, 1
  11              		.eabi_attribute 34, 0
  12              		.eabi_attribute 18, 4
  13              		.thumb
  14              		.syntax unified
  15              		.file	"mainREL_TEST.c"
  16              		.text
  17              	.Ltext0:
  18              		.cfi_sections	.debug_frame
  19              		.section	.text.ONOFF_RAMPA_Handler,"ax",%progbits
  20              		.align	2
  21              		.global	ONOFF_RAMPA_Handler
  22              		.code	16
  23              		.thumb_func
  24              		.type	ONOFF_RAMPA_Handler, %function
  25              	ONOFF_RAMPA_Handler:
  26              	.LFB32:
  27              		.file 1 "mainREL_TEST.c"
   1:mainREL_TEST.c **** /* ========================================
   2:mainREL_TEST.c ****  *
   3:mainREL_TEST.c **** Prueba de modulo IDAC combinado con AO para formar una VDAC.
   4:mainREL_TEST.c ****  *
   5:mainREL_TEST.c ****  * ========================================*/
   6:mainREL_TEST.c **** #include "project.h"
   7:mainREL_TEST.c **** 
   8:mainREL_TEST.c **** uint8 RampaON=0;
   9:mainREL_TEST.c **** uint8 I_OUT=0;
  10:mainREL_TEST.c **** CY_ISR(ONOFF_RAMPA_Handler)
  11:mainREL_TEST.c **** {
  28              		.loc 1 11 0
  29              		.cfi_startproc
  30              		@ args = 0, pretend = 0, frame = 0
  31              		@ frame_needed = 0, uses_anonymous_args = 0
  32 0000 10B5     		push	{r4, lr}
  33              		.cfi_def_cfa_offset 8
  34              		.cfi_offset 4, -8
  35              		.cfi_offset 14, -4
  12:mainREL_TEST.c ****     if(RampaON==1)      /* Subrutina de toggle. */
  36              		.loc 1 12 0
  37 0002 084B     		ldr	r3, .L4
  38 0004 1B78     		ldrb	r3, [r3]
  39 0006 012B     		cmp	r3, #1
  40 0008 03D1     		bne	.L2
  13:mainREL_TEST.c ****      RampaON=0;
  41              		.loc 1 13 0
  42 000a 0022     		movs	r2, #0
  43 000c 054B     		ldr	r3, .L4
  44 000e 1A70     		strb	r2, [r3]
ARM GAS  C:\Users\Jeremias\AppData\Local\Temp\ccZm0r3r.s 			page 2


  45 0010 02E0     		b	.L3
  46              	.L2:
  14:mainREL_TEST.c ****     else
  15:mainREL_TEST.c ****      RampaON=1;
  47              		.loc 1 15 0
  48 0012 0122     		movs	r2, #1
  49 0014 034B     		ldr	r3, .L4
  50 0016 1A70     		strb	r2, [r3]
  51              	.L3:
  16:mainREL_TEST.c ****     SW1_RAMPA_ClearInterrupt();
  52              		.loc 1 16 0
  53 0018 FFF7FEFF 		bl	SW1_RAMPA_ClearInterrupt
  54              	.LVL0:
  17:mainREL_TEST.c ****     CyDelay(20);        /* Temporización antirebote. */
  55              		.loc 1 17 0
  56 001c 1420     		movs	r0, #20
  57 001e FFF7FEFF 		bl	CyDelay
  58              	.LVL1:
  18:mainREL_TEST.c **** }
  59              		.loc 1 18 0
  60              		@ sp needed
  61 0022 10BD     		pop	{r4, pc}
  62              	.L5:
  63              		.align	2
  64              	.L4:
  65 0024 00000000 		.word	.LANCHOR0
  66              		.cfi_endproc
  67              	.LFE32:
  68              		.size	ONOFF_RAMPA_Handler, .-ONOFF_RAMPA_Handler
  69              		.section	.text.main,"ax",%progbits
  70              		.align	2
  71              		.global	main
  72              		.code	16
  73              		.thumb_func
  74              		.type	main, %function
  75              	main:
  76              	.LFB33:
  19:mainREL_TEST.c **** 
  20:mainREL_TEST.c **** int main()
  21:mainREL_TEST.c **** {
  77              		.loc 1 21 0
  78              		.cfi_startproc
  79              		@ Volatile: function does not return.
  80              		@ args = 0, pretend = 0, frame = 0
  81              		@ frame_needed = 0, uses_anonymous_args = 0
  82 0000 10B5     		push	{r4, lr}
  83              		.cfi_def_cfa_offset 8
  84              		.cfi_offset 4, -8
  85              		.cfi_offset 14, -4
  22:mainREL_TEST.c ****     CyGlobalIntEnable;
  86              		.loc 1 22 0
  87              		.syntax divided
  88              	@ 22 "mainREL_TEST.c" 1
  89 0002 62B6     		CPSIE   i
  90              	@ 0 "" 2
  23:mainREL_TEST.c ****     IDAC_1_Start();
  91              		.loc 1 23 0
ARM GAS  C:\Users\Jeremias\AppData\Local\Temp\ccZm0r3r.s 			page 3


  92              		.thumb
  93              		.syntax unified
  94 0004 FFF7FEFF 		bl	IDAC_1_Start
  95              	.LVL2:
  24:mainREL_TEST.c ****     Opamp1_Start();
  96              		.loc 1 24 0
  97 0008 FFF7FEFF 		bl	Opamp1_Start
  98              	.LVL3:
  25:mainREL_TEST.c ****     Opamp1_SetPower(Opamp1_HIGHPOWER);
  99              		.loc 1 25 0
 100 000c 0320     		movs	r0, #3
 101 000e FFF7FEFF 		bl	Opamp1_SetPower
 102              	.LVL4:
  26:mainREL_TEST.c ****     ONOFF_RAMPA_StartEx(ONOFF_RAMPA_Handler);
 103              		.loc 1 26 0
 104 0012 0C48     		ldr	r0, .L10
 105 0014 FFF7FEFF 		bl	ONOFF_RAMPA_StartEx
 106              	.LVL5:
 107              	.L7:
  27:mainREL_TEST.c ****     while (1)
  28:mainREL_TEST.c ****     {
  29:mainREL_TEST.c **** 	 if(RampaON)
 108              		.loc 1 29 0
 109 0018 0B4B     		ldr	r3, .L10+4
 110 001a 1B78     		ldrb	r3, [r3]
 111 001c 002B     		cmp	r3, #0
 112 001e 0AD0     		beq	.L8
  30:mainREL_TEST.c ****      {
  31:mainREL_TEST.c ****       I_OUT++;            /*          */
 113              		.loc 1 31 0
 114 0020 094B     		ldr	r3, .L10+4
 115 0022 5878     		ldrb	r0, [r3, #1]
 116 0024 0130     		adds	r0, r0, #1
 117 0026 C0B2     		uxtb	r0, r0
 118 0028 5870     		strb	r0, [r3, #1]
  32:mainREL_TEST.c ****       if(I_OUT>255)            /* Cada escalon del VDAC toma 3,45us aprox. */
  33:mainREL_TEST.c ****        I_OUT=0;                 /* Considerando un clk de 48MHz y clc de inst. a 12MHz */
  34:mainREL_TEST.c ****       else{}                    /* eso da 83,3ns por instrucción */
  35:mainREL_TEST.c ****       IDAC_1_SetValue(I_OUT);   /* con lo que los 3,45us pueden traducirse en 41,4 instruc. aprox. 
 119              		.loc 1 35 0
 120 002a FFF7FEFF 		bl	IDAC_1_SetValue
 121              	.LVL6:
  36:mainREL_TEST.c ****       CyDelay(5000);      /* Tiempo entre incremento para que el Tester pueda leer de manera establ
 122              		.loc 1 36 0
 123 002e 0748     		ldr	r0, .L10+8
 124 0030 FFF7FEFF 		bl	CyDelay
 125              	.LVL7:
 126 0034 F0E7     		b	.L7
 127              	.L8:
  37:mainREL_TEST.c ****      }
  38:mainREL_TEST.c ****      else
  39:mainREL_TEST.c ****      {
  40:mainREL_TEST.c ****       I_OUT=0;
 128              		.loc 1 40 0
 129 0036 0022     		movs	r2, #0
 130 0038 034B     		ldr	r3, .L10+4
 131 003a 5A70     		strb	r2, [r3, #1]
ARM GAS  C:\Users\Jeremias\AppData\Local\Temp\ccZm0r3r.s 			page 4


  41:mainREL_TEST.c ****       IDAC_1_SetValue(I_OUT);
 132              		.loc 1 41 0
 133 003c 0020     		movs	r0, #0
 134 003e FFF7FEFF 		bl	IDAC_1_SetValue
 135              	.LVL8:
 136 0042 E9E7     		b	.L7
 137              	.L11:
 138              		.align	2
 139              	.L10:
 140 0044 00000000 		.word	ONOFF_RAMPA_Handler
 141 0048 00000000 		.word	.LANCHOR0
 142 004c 88130000 		.word	5000
 143              		.cfi_endproc
 144              	.LFE33:
 145              		.size	main, .-main
 146              		.global	I_OUT
 147              		.global	RampaON
 148              		.bss
 149              		.set	.LANCHOR0,. + 0
 150              		.type	RampaON, %object
 151              		.size	RampaON, 1
 152              	RampaON:
 153 0000 00       		.space	1
 154              		.type	I_OUT, %object
 155              		.size	I_OUT, 1
 156              	I_OUT:
 157 0001 00       		.space	1
 158              		.text
 159              	.Letext0:
 160              		.file 2 "Generated_Source\\PSoC4/SW1_RAMPA.h"
 161              		.file 3 "Generated_Source\\PSoC4/CyLib.h"
 162              		.file 4 "Generated_Source\\PSoC4/IDAC_1.h"
 163              		.file 5 "Generated_Source\\PSoC4/Opamp1.h"
 164              		.file 6 "Generated_Source\\PSoC4/ONOFF_RAMPA.h"
 165              		.file 7 "Generated_Source\\PSoC4/cytypes.h"