ARM GAS  C:\Users\Jeremias\AppData\Local\Temp\ccUwt05v.s 			page 1


   1              		.syntax unified
   2              		.cpu cortex-m0
   3              		.fpu softvfp
   4              		.eabi_attribute 20, 1
   5              		.eabi_attribute 21, 1
   6              		.eabi_attribute 23, 3
   7              		.eabi_attribute 24, 1
   8              		.eabi_attribute 25, 1
   9              		.eabi_attribute 26, 1
  10              		.eabi_attribute 30, 1
  11              		.eabi_attribute 34, 0
  12              		.eabi_attribute 18, 4
  13              		.thumb
  14              		.syntax unified
  15              		.file	"mainVDAC.c"
  16              		.text
  17              	.Ltext0:
  18              		.cfi_sections	.debug_frame
  19              		.section	.text.VAR_IDAC_Handler,"ax",%progbits
  20              		.align	2
  21              		.global	VAR_IDAC_Handler
  22              		.code	16
  23              		.thumb_func
  24              		.type	VAR_IDAC_Handler, %function
  25              	VAR_IDAC_Handler:
  26              	.LFB32:
  27              		.file 1 "mainVDAC.c"
   1:mainVDAC.c    **** /* ========================================
   2:mainVDAC.c    ****  *
   3:mainVDAC.c    **** Prueba de modulo IDAC combinado con AO para formar una VDAC.
   4:mainVDAC.c    ****  *
   5:mainVDAC.c    ****  * ========================================*/
   6:mainVDAC.c    **** #include "project.h"
   7:mainVDAC.c    **** 
   8:mainVDAC.c    **** uint8 I_OUT=0;
   9:mainVDAC.c    **** CY_ISR(VAR_IDAC_Handler)
  10:mainVDAC.c    **** {
  28              		.loc 1 10 0
  29              		.cfi_startproc
  30              		@ args = 0, pretend = 0, frame = 0
  31              		@ frame_needed = 0, uses_anonymous_args = 0
  32 0000 10B5     		push	{r4, lr}
  33              		.cfi_def_cfa_offset 8
  34              		.cfi_offset 4, -8
  35              		.cfi_offset 14, -4
  11:mainVDAC.c    ****     if(I_OUT>=255)
  36              		.loc 1 11 0
  37 0002 0A4B     		ldr	r3, .L4
  38 0004 1B78     		ldrb	r3, [r3]
  39 0006 FF2B     		cmp	r3, #255
  40 0008 03D1     		bne	.L2
  12:mainVDAC.c    ****      I_OUT=0;
  41              		.loc 1 12 0
  42 000a 0022     		movs	r2, #0
  43 000c 074B     		ldr	r3, .L4
  44 000e 1A70     		strb	r2, [r3]
  45 0010 02E0     		b	.L3
ARM GAS  C:\Users\Jeremias\AppData\Local\Temp\ccUwt05v.s 			page 2


  46              	.L2:
  13:mainVDAC.c    ****     else
  14:mainVDAC.c    ****      I_OUT++;
  47              		.loc 1 14 0
  48 0012 0133     		adds	r3, r3, #1
  49 0014 054A     		ldr	r2, .L4
  50 0016 1370     		strb	r3, [r2]
  51              	.L3:
  15:mainVDAC.c    ****     IDAC_1_SetValue(I_OUT);
  52              		.loc 1 15 0
  53 0018 044B     		ldr	r3, .L4
  54 001a 1878     		ldrb	r0, [r3]
  55 001c FFF7FEFF 		bl	IDAC_1_SetValue
  56              	.LVL0:
  16:mainVDAC.c    ****     SW1_IDAC_ClearInterrupt();
  57              		.loc 1 16 0
  58 0020 FFF7FEFF 		bl	SW1_IDAC_ClearInterrupt
  59              	.LVL1:
  17:mainVDAC.c    ****     CyDelay(20);
  60              		.loc 1 17 0
  61 0024 1420     		movs	r0, #20
  62 0026 FFF7FEFF 		bl	CyDelay
  63              	.LVL2:
  18:mainVDAC.c    **** }
  64              		.loc 1 18 0
  65              		@ sp needed
  66 002a 10BD     		pop	{r4, pc}
  67              	.L5:
  68              		.align	2
  69              	.L4:
  70 002c 00000000 		.word	.LANCHOR0
  71              		.cfi_endproc
  72              	.LFE32:
  73              		.size	VAR_IDAC_Handler, .-VAR_IDAC_Handler
  74              		.section	.text.main,"ax",%progbits
  75              		.align	2
  76              		.global	main
  77              		.code	16
  78              		.thumb_func
  79              		.type	main, %function
  80              	main:
  81              	.LFB33:
  19:mainVDAC.c    **** 
  20:mainVDAC.c    **** int main()
  21:mainVDAC.c    **** {
  82              		.loc 1 21 0
  83              		.cfi_startproc
  84              		@ Volatile: function does not return.
  85              		@ args = 0, pretend = 0, frame = 0
  86              		@ frame_needed = 0, uses_anonymous_args = 0
  87 0000 10B5     		push	{r4, lr}
  88              		.cfi_def_cfa_offset 8
  89              		.cfi_offset 4, -8
  90              		.cfi_offset 14, -4
  22:mainVDAC.c    ****     CyGlobalIntEnable;
  91              		.loc 1 22 0
  92              		.syntax divided
ARM GAS  C:\Users\Jeremias\AppData\Local\Temp\ccUwt05v.s 			page 3


  93              	@ 22 "mainVDAC.c" 1
  94 0002 62B6     		CPSIE   i
  95              	@ 0 "" 2
  23:mainVDAC.c    ****     IDAC_1_Start();
  96              		.loc 1 23 0
  97              		.thumb
  98              		.syntax unified
  99 0004 FFF7FEFF 		bl	IDAC_1_Start
 100              	.LVL3:
  24:mainVDAC.c    ****     Opamp1_Start();
 101              		.loc 1 24 0
 102 0008 FFF7FEFF 		bl	Opamp1_Start
 103              	.LVL4:
  25:mainVDAC.c    ****     Opamp1_SetPower(Opamp1_HIGHPOWER);
 104              		.loc 1 25 0
 105 000c 0320     		movs	r0, #3
 106 000e FFF7FEFF 		bl	Opamp1_SetPower
 107              	.LVL5:
  26:mainVDAC.c    ****     VAR_IDAC_StartEx(VAR_IDAC_Handler);
 108              		.loc 1 26 0
 109 0012 0248     		ldr	r0, .L8
 110 0014 FFF7FEFF 		bl	VAR_IDAC_StartEx
 111              	.LVL6:
 112              	.L7:
 113 0018 FEE7     		b	.L7
 114              	.L9:
 115 001a C046     		.align	2
 116              	.L8:
 117 001c 00000000 		.word	VAR_IDAC_Handler
 118              		.cfi_endproc
 119              	.LFE33:
 120              		.size	main, .-main
 121              		.global	I_OUT
 122              		.bss
 123              		.set	.LANCHOR0,. + 0
 124              		.type	I_OUT, %object
 125              		.size	I_OUT, 1
 126              	I_OUT:
 127 0000 00       		.space	1
 128              		.text
 129              	.Letext0:
 130              		.file 2 "Generated_Source\\PSoC4/IDAC_1.h"
 131              		.file 3 "Generated_Source\\PSoC4/SW1_IDAC.h"
 132              		.file 4 "Generated_Source\\PSoC4/CyLib.h"
 133              		.file 5 "Generated_Source\\PSoC4/Opamp1.h"
 134              		.file 6 "Generated_Source\\PSoC4/VAR_IDAC.h"
 135              		.file 7 "Generated_Source\\PSoC4/cytypes.h"