ARM GAS  C:\Users\Jeremias\AppData\Local\Temp\ccdx6ylf.s 			page 1


   1              		.syntax unified
   2              		.cpu cortex-m0
   3              		.fpu softvfp
   4              		.eabi_attribute 20, 1
   5              		.eabi_attribute 21, 1
   6              		.eabi_attribute 23, 3
   7              		.eabi_attribute 24, 1
   8              		.eabi_attribute 25, 1
   9              		.eabi_attribute 26, 1
  10              		.eabi_attribute 30, 6
  11              		.eabi_attribute 34, 0
  12              		.eabi_attribute 18, 4
  13              		.thumb
  14              		.syntax unified
  15              		.file	"main.c"
  16              		.text
  17              	.Ltext0:
  18              		.cfi_sections	.debug_frame
  19              		.section	.text.CONT_INT_Handler,"ax",%progbits
  20              		.align	2
  21              		.global	CONT_INT_Handler
  22              		.code	16
  23              		.thumb_func
  24              		.type	CONT_INT_Handler, %function
  25              	CONT_INT_Handler:
  26              	.LFB32:
  27              		.file 1 "main.c"
   1:main.c        **** /******************************************************************************
   2:main.c        **** * Project Name		: Bootloadable Toggle LED con M0 ISR
   3:main.c        **** * File Name			: main.c
   4:main.c        **** * Device Used		: CY8C4245AXI-483
   5:main.c        **** * Software Used		: PSoC Creator 4.4
   6:main.c        **** * Related Hardware	: CY8CKIT-049-42xx PSoC 4 Prototyping Kit */
   7:main.c        **** /******************************************************************************
   8:main.c        **** *                           THEORY OF OPERATION
   9:main.c        **** * La nada misma. 
  10:main.c        **** * Default UART Port Configuration for bootloading the PSoC 4 in CY8CKIT-049-42xx
  11:main.c        **** * Baud Rate : 115200 bps
  12:main.c        **** * Data Bits : 8
  13:main.c        **** * Stop Bits : 1
  14:main.c        **** * Parity    : None
  15:main.c        **** ******************************************************************************/
  16:main.c        **** #include <project.h>
  17:main.c        **** 
  18:main.c        **** CY_ISR(CONT_INT_Handler)
  19:main.c        **** {
  28              		.loc 1 19 0
  29              		.cfi_startproc
  30              		@ args = 0, pretend = 0, frame = 0
  31              		@ frame_needed = 1, uses_anonymous_args = 0
  32 0000 80B5     		push	{r7, lr}
  33              		.cfi_def_cfa_offset 8
  34              		.cfi_offset 7, -8
  35              		.cfi_offset 14, -4
  36 0002 00AF     		add	r7, sp, #0
  37              		.cfi_def_cfa_register 7
  20:main.c        ****     PinEXT2_Write(~PinEXT2_Read());
ARM GAS  C:\Users\Jeremias\AppData\Local\Temp\ccdx6ylf.s 			page 2


  38              		.loc 1 20 0
  39 0004 FFF7FEFF 		bl	PinEXT2_Read
  40 0008 0300     		movs	r3, r0
  41 000a DB43     		mvns	r3, r3
  42 000c DBB2     		uxtb	r3, r3
  43 000e 1800     		movs	r0, r3
  44 0010 FFF7FEFF 		bl	PinEXT2_Write
  21:main.c        ****     CyDelay(250);
  45              		.loc 1 21 0
  46 0014 FA20     		movs	r0, #250
  47 0016 FFF7FEFF 		bl	CyDelay
  22:main.c        **** }
  48              		.loc 1 22 0
  49 001a C046     		nop
  50 001c BD46     		mov	sp, r7
  51              		@ sp needed
  52 001e 80BD     		pop	{r7, pc}
  53              		.cfi_endproc
  54              	.LFE32:
  55              		.size	CONT_INT_Handler, .-CONT_INT_Handler
  56              		.section	.text.main,"ax",%progbits
  57              		.align	2
  58              		.global	main
  59              		.code	16
  60              		.thumb_func
  61              		.type	main, %function
  62              	main:
  63              	.LFB33:
  23:main.c        **** 
  24:main.c        **** int main()
  25:main.c        **** {
  64              		.loc 1 25 0
  65              		.cfi_startproc
  66              		@ args = 0, pretend = 0, frame = 0
  67              		@ frame_needed = 1, uses_anonymous_args = 0
  68 0000 80B5     		push	{r7, lr}
  69              		.cfi_def_cfa_offset 8
  70              		.cfi_offset 7, -8
  71              		.cfi_offset 14, -4
  72 0002 00AF     		add	r7, sp, #0
  73              		.cfi_def_cfa_register 7
  26:main.c        ****     CyGlobalIntEnable;
  74              		.loc 1 26 0
  75              		.syntax divided
  76              	@ 26 "main.c" 1
  77 0004 62B6     		CPSIE   i
  78              	@ 0 "" 2
  27:main.c        ****     CONT_INT_StartEx(CONT_INT_Handler);
  79              		.loc 1 27 0
  80              		.thumb
  81              		.syntax unified
  82 0006 024B     		ldr	r3, .L4
  83 0008 1800     		movs	r0, r3
  84 000a FFF7FEFF 		bl	CONT_INT_StartEx
  85              	.L3:
  28:main.c        **** 	while(1)
  29:main.c        ****     {}
ARM GAS  C:\Users\Jeremias\AppData\Local\Temp\ccdx6ylf.s 			page 3


  86              		.loc 1 29 0 discriminator 1
  87 000e FEE7     		b	.L3
  88              	.L5:
  89              		.align	2
  90              	.L4:
  91 0010 00000000 		.word	CONT_INT_Handler
  92              		.cfi_endproc
  93              	.LFE33:
  94              		.size	main, .-main
  95              		.text
  96              	.Letext0: