ARM GAS  C:\Users\Jeremias\AppData\Local\Temp\cc50Dy6c.s 			page 1


   1              		.syntax unified
   2              		.cpu cortex-m0
   3              		.fpu softvfp
   4              		.eabi_attribute 20, 1
   5              		.eabi_attribute 21, 1
   6              		.eabi_attribute 23, 3
   7              		.eabi_attribute 24, 1
   8              		.eabi_attribute 25, 1
   9              		.eabi_attribute 26, 1
  10              		.eabi_attribute 30, 1
  11              		.eabi_attribute 34, 0
  12              		.eabi_attribute 18, 4
  13              		.thumb
  14              		.syntax unified
  15              		.file	"cyfitter_cfg.c"
  16              		.text
  17              	.Ltext0:
  18              		.cfi_sections	.debug_frame
  19              		.section	.text.cfg_write_bytes32,"ax",%progbits
  20              		.align	2
  21              		.code	16
  22              		.thumb_func
  23              		.type	cfg_write_bytes32, %function
  24              	cfg_write_bytes32:
  25              	.LFB3:
  26              		.file 1 "Generated_Source\\PSoC4\\cyfitter_cfg.c"
   1:Generated_Source\PSoC4/cyfitter_cfg.c **** 
   2:Generated_Source\PSoC4/cyfitter_cfg.c **** /*******************************************************************************
   3:Generated_Source\PSoC4/cyfitter_cfg.c **** * File Name: cyfitter_cfg.c
   4:Generated_Source\PSoC4/cyfitter_cfg.c **** * 
   5:Generated_Source\PSoC4/cyfitter_cfg.c **** * PSoC Creator  4.4
   6:Generated_Source\PSoC4/cyfitter_cfg.c **** *
   7:Generated_Source\PSoC4/cyfitter_cfg.c **** * Description:
   8:Generated_Source\PSoC4/cyfitter_cfg.c **** * This file contains device initialization code.
   9:Generated_Source\PSoC4/cyfitter_cfg.c **** * Except for the user defined sections in CyClockStartupError(), this file should not be modified.
  10:Generated_Source\PSoC4/cyfitter_cfg.c **** * This file is automatically generated by PSoC Creator.
  11:Generated_Source\PSoC4/cyfitter_cfg.c **** *
  12:Generated_Source\PSoC4/cyfitter_cfg.c **** ********************************************************************************
  13:Generated_Source\PSoC4/cyfitter_cfg.c **** * Copyright (c) 2007-2020 Cypress Semiconductor.  All rights reserved.
  14:Generated_Source\PSoC4/cyfitter_cfg.c **** * You may use this file only in accordance with the license, terms, conditions, 
  15:Generated_Source\PSoC4/cyfitter_cfg.c **** * disclaimers, and limitations in the end user license agreement accompanying 
  16:Generated_Source\PSoC4/cyfitter_cfg.c **** * the software package with which this file was provided.
  17:Generated_Source\PSoC4/cyfitter_cfg.c **** ********************************************************************************/
  18:Generated_Source\PSoC4/cyfitter_cfg.c **** 
  19:Generated_Source\PSoC4/cyfitter_cfg.c **** #include <string.h>
  20:Generated_Source\PSoC4/cyfitter_cfg.c **** #include "cytypes.h"
  21:Generated_Source\PSoC4/cyfitter_cfg.c **** #include "cydevice_trm.h"
  22:Generated_Source\PSoC4/cyfitter_cfg.c **** #include "cyfitter.h"
  23:Generated_Source\PSoC4/cyfitter_cfg.c **** #include "CyLib.h"
  24:Generated_Source\PSoC4/cyfitter_cfg.c **** #include "CyLFClk.h"
  25:Generated_Source\PSoC4/cyfitter_cfg.c **** #include "cyfitter_cfg.h"
  26:Generated_Source\PSoC4/cyfitter_cfg.c **** #include "cyapicallbacks.h"
  27:Generated_Source\PSoC4/cyfitter_cfg.c **** 
  28:Generated_Source\PSoC4/cyfitter_cfg.c **** 
  29:Generated_Source\PSoC4/cyfitter_cfg.c **** #if defined(__GNUC__) || defined(__ARMCC_VERSION)
  30:Generated_Source\PSoC4/cyfitter_cfg.c ****     #define CYPACKED 
  31:Generated_Source\PSoC4/cyfitter_cfg.c ****     #define CYPACKED_ATTR __attribute__ ((packed))
ARM GAS  C:\Users\Jeremias\AppData\Local\Temp\cc50Dy6c.s 			page 2


  32:Generated_Source\PSoC4/cyfitter_cfg.c ****     #define CYALIGNED __attribute__ ((aligned))
  33:Generated_Source\PSoC4/cyfitter_cfg.c ****     #define CY_CFG_UNUSED __attribute__ ((unused))
  34:Generated_Source\PSoC4/cyfitter_cfg.c ****     #ifndef CY_CFG_SECTION
  35:Generated_Source\PSoC4/cyfitter_cfg.c ****         #define CY_CFG_SECTION __attribute__ ((section(".psocinit")))
  36:Generated_Source\PSoC4/cyfitter_cfg.c ****     #endif
  37:Generated_Source\PSoC4/cyfitter_cfg.c ****     
  38:Generated_Source\PSoC4/cyfitter_cfg.c ****     #if defined(__ARMCC_VERSION)
  39:Generated_Source\PSoC4/cyfitter_cfg.c ****         #define CY_CFG_MEMORY_BARRIER() __memory_changed()
  40:Generated_Source\PSoC4/cyfitter_cfg.c ****     #else
  41:Generated_Source\PSoC4/cyfitter_cfg.c ****         #define CY_CFG_MEMORY_BARRIER() __sync_synchronize()
  42:Generated_Source\PSoC4/cyfitter_cfg.c ****     #endif
  43:Generated_Source\PSoC4/cyfitter_cfg.c ****     
  44:Generated_Source\PSoC4/cyfitter_cfg.c **** #elif defined(__ICCARM__)
  45:Generated_Source\PSoC4/cyfitter_cfg.c ****     #include <intrinsics.h>
  46:Generated_Source\PSoC4/cyfitter_cfg.c **** 
  47:Generated_Source\PSoC4/cyfitter_cfg.c ****     #define CYPACKED __packed
  48:Generated_Source\PSoC4/cyfitter_cfg.c ****     #define CYPACKED_ATTR 
  49:Generated_Source\PSoC4/cyfitter_cfg.c ****     #define CYALIGNED _Pragma("data_alignment=4")
  50:Generated_Source\PSoC4/cyfitter_cfg.c ****     #define CY_CFG_UNUSED _Pragma("diag_suppress=Pe177")
  51:Generated_Source\PSoC4/cyfitter_cfg.c ****     #define CY_CFG_SECTION _Pragma("location=\".psocinit\"")
  52:Generated_Source\PSoC4/cyfitter_cfg.c ****     
  53:Generated_Source\PSoC4/cyfitter_cfg.c ****     #define CY_CFG_MEMORY_BARRIER() __DMB()
  54:Generated_Source\PSoC4/cyfitter_cfg.c ****     
  55:Generated_Source\PSoC4/cyfitter_cfg.c **** #else
  56:Generated_Source\PSoC4/cyfitter_cfg.c ****     #error Unsupported toolchain
  57:Generated_Source\PSoC4/cyfitter_cfg.c **** #endif
  58:Generated_Source\PSoC4/cyfitter_cfg.c **** 
  59:Generated_Source\PSoC4/cyfitter_cfg.c **** #ifndef CYCODE
  60:Generated_Source\PSoC4/cyfitter_cfg.c ****     #define CYCODE
  61:Generated_Source\PSoC4/cyfitter_cfg.c **** #endif
  62:Generated_Source\PSoC4/cyfitter_cfg.c **** #ifndef CYDATA
  63:Generated_Source\PSoC4/cyfitter_cfg.c ****     #define CYDATA
  64:Generated_Source\PSoC4/cyfitter_cfg.c **** #endif
  65:Generated_Source\PSoC4/cyfitter_cfg.c **** #ifndef CYFAR
  66:Generated_Source\PSoC4/cyfitter_cfg.c ****     #define CYFAR
  67:Generated_Source\PSoC4/cyfitter_cfg.c **** #endif
  68:Generated_Source\PSoC4/cyfitter_cfg.c **** #ifndef CYXDATA
  69:Generated_Source\PSoC4/cyfitter_cfg.c ****     #define CYXDATA
  70:Generated_Source\PSoC4/cyfitter_cfg.c **** #endif
  71:Generated_Source\PSoC4/cyfitter_cfg.c **** 
  72:Generated_Source\PSoC4/cyfitter_cfg.c **** 
  73:Generated_Source\PSoC4/cyfitter_cfg.c **** CY_CFG_UNUSED
  74:Generated_Source\PSoC4/cyfitter_cfg.c **** static void CYMEMZERO(void *s, size_t n);
  75:Generated_Source\PSoC4/cyfitter_cfg.c **** CY_CFG_UNUSED
  76:Generated_Source\PSoC4/cyfitter_cfg.c **** static void CYMEMZERO(void *s, size_t n)
  77:Generated_Source\PSoC4/cyfitter_cfg.c **** {
  78:Generated_Source\PSoC4/cyfitter_cfg.c **** 	(void)memset(s, 0, n);
  79:Generated_Source\PSoC4/cyfitter_cfg.c **** }
  80:Generated_Source\PSoC4/cyfitter_cfg.c **** CY_CFG_UNUSED
  81:Generated_Source\PSoC4/cyfitter_cfg.c **** static void CYCONFIGCPY(void *dest, const void *src, size_t n);
  82:Generated_Source\PSoC4/cyfitter_cfg.c **** CY_CFG_UNUSED
  83:Generated_Source\PSoC4/cyfitter_cfg.c **** static void CYCONFIGCPY(void *dest, const void *src, size_t n)
  84:Generated_Source\PSoC4/cyfitter_cfg.c **** {
  85:Generated_Source\PSoC4/cyfitter_cfg.c **** 	(void)memcpy(dest, src, n);
  86:Generated_Source\PSoC4/cyfitter_cfg.c **** }
  87:Generated_Source\PSoC4/cyfitter_cfg.c **** CY_CFG_UNUSED
  88:Generated_Source\PSoC4/cyfitter_cfg.c **** static void CYCONFIGCPYCODE(void *dest, const void *src, size_t n);
ARM GAS  C:\Users\Jeremias\AppData\Local\Temp\cc50Dy6c.s 			page 3


  89:Generated_Source\PSoC4/cyfitter_cfg.c **** CY_CFG_UNUSED
  90:Generated_Source\PSoC4/cyfitter_cfg.c **** static void CYCONFIGCPYCODE(void *dest, const void *src, size_t n)
  91:Generated_Source\PSoC4/cyfitter_cfg.c **** {
  92:Generated_Source\PSoC4/cyfitter_cfg.c **** 	(void)memcpy(dest, src, n);
  93:Generated_Source\PSoC4/cyfitter_cfg.c **** }
  94:Generated_Source\PSoC4/cyfitter_cfg.c **** 
  95:Generated_Source\PSoC4/cyfitter_cfg.c **** 
  96:Generated_Source\PSoC4/cyfitter_cfg.c **** 
  97:Generated_Source\PSoC4/cyfitter_cfg.c **** 
  98:Generated_Source\PSoC4/cyfitter_cfg.c **** /* Clock startup error codes                                                   */
  99:Generated_Source\PSoC4/cyfitter_cfg.c **** #define CYCLOCKSTART_NO_ERROR    0u
 100:Generated_Source\PSoC4/cyfitter_cfg.c **** #define CYCLOCKSTART_XTAL_ERROR  1u
 101:Generated_Source\PSoC4/cyfitter_cfg.c **** #define CYCLOCKSTART_32KHZ_ERROR 2u
 102:Generated_Source\PSoC4/cyfitter_cfg.c **** #define CYCLOCKSTART_PLL_ERROR   3u
 103:Generated_Source\PSoC4/cyfitter_cfg.c **** #define CYCLOCKSTART_FLL_ERROR   4u
 104:Generated_Source\PSoC4/cyfitter_cfg.c **** #define CYCLOCKSTART_WCO_ERROR   5u
 105:Generated_Source\PSoC4/cyfitter_cfg.c **** 
 106:Generated_Source\PSoC4/cyfitter_cfg.c **** 
 107:Generated_Source\PSoC4/cyfitter_cfg.c **** #ifdef CY_NEED_CYCLOCKSTARTUPERROR
 108:Generated_Source\PSoC4/cyfitter_cfg.c **** /*******************************************************************************
 109:Generated_Source\PSoC4/cyfitter_cfg.c **** * Function Name: CyClockStartupError
 110:Generated_Source\PSoC4/cyfitter_cfg.c **** ********************************************************************************
 111:Generated_Source\PSoC4/cyfitter_cfg.c **** * Summary:
 112:Generated_Source\PSoC4/cyfitter_cfg.c **** *  If an error is encountered during clock configuration (crystal startup error,
 113:Generated_Source\PSoC4/cyfitter_cfg.c **** *  PLL lock error, etc.), the system will end up here.  Unless reimplemented by
 114:Generated_Source\PSoC4/cyfitter_cfg.c **** *  the customer, this function will stop in an infinite loop.
 115:Generated_Source\PSoC4/cyfitter_cfg.c **** *
 116:Generated_Source\PSoC4/cyfitter_cfg.c **** * Parameters:
 117:Generated_Source\PSoC4/cyfitter_cfg.c **** *   void
 118:Generated_Source\PSoC4/cyfitter_cfg.c **** *
 119:Generated_Source\PSoC4/cyfitter_cfg.c **** * Return:
 120:Generated_Source\PSoC4/cyfitter_cfg.c **** *   void
 121:Generated_Source\PSoC4/cyfitter_cfg.c **** *
 122:Generated_Source\PSoC4/cyfitter_cfg.c **** *******************************************************************************/
 123:Generated_Source\PSoC4/cyfitter_cfg.c **** CY_CFG_UNUSED
 124:Generated_Source\PSoC4/cyfitter_cfg.c **** static void CyClockStartupError(uint8 errorCode);
 125:Generated_Source\PSoC4/cyfitter_cfg.c **** CY_CFG_UNUSED
 126:Generated_Source\PSoC4/cyfitter_cfg.c **** static void CyClockStartupError(uint8 errorCode)
 127:Generated_Source\PSoC4/cyfitter_cfg.c **** {
 128:Generated_Source\PSoC4/cyfitter_cfg.c ****     /* To remove the compiler warning if errorCode not used.                */
 129:Generated_Source\PSoC4/cyfitter_cfg.c ****     errorCode = errorCode;
 130:Generated_Source\PSoC4/cyfitter_cfg.c **** 
 131:Generated_Source\PSoC4/cyfitter_cfg.c ****     /* If we have a clock startup error (bad MHz crystal, PLL lock, etc.),  */
 132:Generated_Source\PSoC4/cyfitter_cfg.c ****     /* we will end up here to allow the customer to implement something to  */
 133:Generated_Source\PSoC4/cyfitter_cfg.c ****     /* deal with the clock condition.                                       */
 134:Generated_Source\PSoC4/cyfitter_cfg.c **** 
 135:Generated_Source\PSoC4/cyfitter_cfg.c **** #ifdef CY_CFG_CLOCK_STARTUP_ERROR_CALLBACK
 136:Generated_Source\PSoC4/cyfitter_cfg.c ****     CY_CFG_Clock_Startup_ErrorCallback();
 137:Generated_Source\PSoC4/cyfitter_cfg.c **** #else
 138:Generated_Source\PSoC4/cyfitter_cfg.c ****     /*  If not using CY_CFG_CLOCK_STARTUP_ERROR_CALLBACK, place your clock startup code here. */
 139:Generated_Source\PSoC4/cyfitter_cfg.c ****     /* `#START CyClockStartupError` */
 140:Generated_Source\PSoC4/cyfitter_cfg.c **** 
 141:Generated_Source\PSoC4/cyfitter_cfg.c **** 
 142:Generated_Source\PSoC4/cyfitter_cfg.c **** 
 143:Generated_Source\PSoC4/cyfitter_cfg.c ****     /* `#END` */
 144:Generated_Source\PSoC4/cyfitter_cfg.c **** 
 145:Generated_Source\PSoC4/cyfitter_cfg.c ****     while(1) {}
ARM GAS  C:\Users\Jeremias\AppData\Local\Temp\cc50Dy6c.s 			page 4


 146:Generated_Source\PSoC4/cyfitter_cfg.c **** #endif /* CY_CFG_CLOCK_STARTUP_ERROR_CALLBACK */
 147:Generated_Source\PSoC4/cyfitter_cfg.c **** }
 148:Generated_Source\PSoC4/cyfitter_cfg.c **** #endif
 149:Generated_Source\PSoC4/cyfitter_cfg.c **** 
 150:Generated_Source\PSoC4/cyfitter_cfg.c **** #define CY_CFG_BASE_ADDR_COUNT 8u
 151:Generated_Source\PSoC4/cyfitter_cfg.c **** CYPACKED typedef struct
 152:Generated_Source\PSoC4/cyfitter_cfg.c **** {
 153:Generated_Source\PSoC4/cyfitter_cfg.c **** 	uint8 offset;
 154:Generated_Source\PSoC4/cyfitter_cfg.c **** 	uint8 value;
 155:Generated_Source\PSoC4/cyfitter_cfg.c **** } CYPACKED_ATTR cy_cfg_addrvalue_t;
 156:Generated_Source\PSoC4/cyfitter_cfg.c **** 
 157:Generated_Source\PSoC4/cyfitter_cfg.c **** 
 158:Generated_Source\PSoC4/cyfitter_cfg.c **** 
 159:Generated_Source\PSoC4/cyfitter_cfg.c **** /*******************************************************************************
 160:Generated_Source\PSoC4/cyfitter_cfg.c **** * Function Name: cfg_write_bytes32
 161:Generated_Source\PSoC4/cyfitter_cfg.c **** ********************************************************************************
 162:Generated_Source\PSoC4/cyfitter_cfg.c **** * Summary:
 163:Generated_Source\PSoC4/cyfitter_cfg.c **** *  This function is used for setting up the chip configuration areas that
 164:Generated_Source\PSoC4/cyfitter_cfg.c **** *  contain relatively sparse data.
 165:Generated_Source\PSoC4/cyfitter_cfg.c **** *
 166:Generated_Source\PSoC4/cyfitter_cfg.c **** * Parameters:
 167:Generated_Source\PSoC4/cyfitter_cfg.c **** *   void
 168:Generated_Source\PSoC4/cyfitter_cfg.c **** *
 169:Generated_Source\PSoC4/cyfitter_cfg.c **** * Return:
 170:Generated_Source\PSoC4/cyfitter_cfg.c **** *   void
 171:Generated_Source\PSoC4/cyfitter_cfg.c **** *
 172:Generated_Source\PSoC4/cyfitter_cfg.c **** *******************************************************************************/
 173:Generated_Source\PSoC4/cyfitter_cfg.c **** static void cfg_write_bytes32(const uint32 addr_table[], const cy_cfg_addrvalue_t data_table[]);
 174:Generated_Source\PSoC4/cyfitter_cfg.c **** static void cfg_write_bytes32(const uint32 addr_table[], const cy_cfg_addrvalue_t data_table[])
 175:Generated_Source\PSoC4/cyfitter_cfg.c **** {
  27              		.loc 1 175 0
  28              		.cfi_startproc
  29              		@ args = 0, pretend = 0, frame = 0
  30              		@ frame_needed = 0, uses_anonymous_args = 0
  31              	.LVL0:
  32 0000 F0B5     		push	{r4, r5, r6, r7, lr}
  33              		.cfi_def_cfa_offset 20
  34              		.cfi_offset 4, -20
  35              		.cfi_offset 5, -16
  36              		.cfi_offset 6, -12
  37              		.cfi_offset 7, -8
  38              		.cfi_offset 14, -4
  39              	.LVL1:
 176:Generated_Source\PSoC4/cyfitter_cfg.c **** 	/* For 32-bit little-endian architectures */
 177:Generated_Source\PSoC4/cyfitter_cfg.c **** 	uint32 i, j = 0u;
  40              		.loc 1 177 0
  41 0002 0025     		movs	r5, #0
 178:Generated_Source\PSoC4/cyfitter_cfg.c **** 	for (i = 0u; i < CY_CFG_BASE_ADDR_COUNT; i++)
  42              		.loc 1 178 0
  43 0004 0027     		movs	r7, #0
  44 0006 11E0     		b	.L2
  45              	.LVL2:
  46              	.L5:
  47              	.LBB2:
 179:Generated_Source\PSoC4/cyfitter_cfg.c **** 	{
 180:Generated_Source\PSoC4/cyfitter_cfg.c **** 		uint32 baseAddr = addr_table[i];
  48              		.loc 1 180 0
ARM GAS  C:\Users\Jeremias\AppData\Local\Temp\cc50Dy6c.s 			page 5


  49 0008 BB00     		lsls	r3, r7, #2
  50 000a C658     		ldr	r6, [r0, r3]
  51              	.LVL3:
 181:Generated_Source\PSoC4/cyfitter_cfg.c **** 		uint8 count = (uint8)baseAddr;
  52              		.loc 1 181 0
  53 000c F3B2     		uxtb	r3, r6
  54              	.LVL4:
 182:Generated_Source\PSoC4/cyfitter_cfg.c **** 		baseAddr &= 0xFFFFFF00u;
  55              		.loc 1 182 0
  56 000e FF22     		movs	r2, #255
  57 0010 9643     		bics	r6, r2
  58              	.LVL5:
 183:Generated_Source\PSoC4/cyfitter_cfg.c **** 		while (count != 0u)
  59              		.loc 1 183 0
  60 0012 08E0     		b	.L3
  61              	.L4:
 184:Generated_Source\PSoC4/cyfitter_cfg.c **** 		{
 185:Generated_Source\PSoC4/cyfitter_cfg.c **** 			CY_SET_REG8((void *)(baseAddr + data_table[j].offset), data_table[j].value);
  62              		.loc 1 185 0
  63 0014 6A00     		lsls	r2, r5, #1
  64 0016 8A18     		adds	r2, r1, r2
  65 0018 1478     		ldrb	r4, [r2]
  66 001a A419     		adds	r4, r4, r6
  67 001c 5278     		ldrb	r2, [r2, #1]
  68 001e 2270     		strb	r2, [r4]
 186:Generated_Source\PSoC4/cyfitter_cfg.c **** 			j++;
  69              		.loc 1 186 0
  70 0020 0135     		adds	r5, r5, #1
  71              	.LVL6:
 187:Generated_Source\PSoC4/cyfitter_cfg.c **** 			count--;
  72              		.loc 1 187 0
  73 0022 013B     		subs	r3, r3, #1
  74              	.LVL7:
  75 0024 DBB2     		uxtb	r3, r3
  76              	.LVL8:
  77              	.L3:
 183:Generated_Source\PSoC4/cyfitter_cfg.c **** 		{
  78              		.loc 1 183 0
  79 0026 002B     		cmp	r3, #0
  80 0028 F4D1     		bne	.L4
  81              	.LBE2:
 178:Generated_Source\PSoC4/cyfitter_cfg.c **** 	{
  82              		.loc 1 178 0 discriminator 2
  83 002a 0137     		adds	r7, r7, #1
  84              	.LVL9:
  85              	.L2:
 178:Generated_Source\PSoC4/cyfitter_cfg.c **** 	{
  86              		.loc 1 178 0 is_stmt 0 discriminator 1
  87 002c 072F     		cmp	r7, #7
  88 002e EBD9     		bls	.L5
 188:Generated_Source\PSoC4/cyfitter_cfg.c **** 		}
 189:Generated_Source\PSoC4/cyfitter_cfg.c **** 	}
 190:Generated_Source\PSoC4/cyfitter_cfg.c **** }
  89              		.loc 1 190 0 is_stmt 1
  90              		@ sp needed
  91              	.LVL10:
  92              	.LVL11:
ARM GAS  C:\Users\Jeremias\AppData\Local\Temp\cc50Dy6c.s 			page 6


  93 0030 F0BD     		pop	{r4, r5, r6, r7, pc}
  94              		.cfi_endproc
  95              	.LFE3:
  96              		.size	cfg_write_bytes32, .-cfg_write_bytes32
  97 0032 C046     		.section	.text.CYMEMZERO,"ax",%progbits
  98              		.align	2
  99              		.code	16
 100              		.thumb_func
 101              		.type	CYMEMZERO, %function
 102              	CYMEMZERO:
 103              	.LFB0:
  77:Generated_Source\PSoC4/cyfitter_cfg.c **** 	(void)memset(s, 0, n);
 104              		.loc 1 77 0
 105              		.cfi_startproc
 106              		@ args = 0, pretend = 0, frame = 0
 107              		@ frame_needed = 0, uses_anonymous_args = 0
 108              	.LVL12:
 109 0000 10B5     		push	{r4, lr}
 110              		.cfi_def_cfa_offset 8
 111              		.cfi_offset 4, -8
 112              		.cfi_offset 14, -4
 113 0002 0A00     		movs	r2, r1
  78:Generated_Source\PSoC4/cyfitter_cfg.c **** }
 114              		.loc 1 78 0
 115 0004 0021     		movs	r1, #0
 116              	.LVL13:
 117 0006 FFF7FEFF 		bl	memset
 118              	.LVL14:
  79:Generated_Source\PSoC4/cyfitter_cfg.c **** CY_CFG_UNUSED
 119              		.loc 1 79 0
 120              		@ sp needed
 121 000a 10BD     		pop	{r4, pc}
 122              		.cfi_endproc
 123              	.LFE0:
 124              		.size	CYMEMZERO, .-CYMEMZERO
 125              		.section	.psocinit,"ax",%progbits
 126              		.align	2
 127              		.code	16
 128              		.thumb_func
 129              		.type	ClockSetup, %function
 130              	ClockSetup:
 131              	.LFB4:
 191:Generated_Source\PSoC4/cyfitter_cfg.c **** 
 192:Generated_Source\PSoC4/cyfitter_cfg.c **** 
 193:Generated_Source\PSoC4/cyfitter_cfg.c **** /*******************************************************************************
 194:Generated_Source\PSoC4/cyfitter_cfg.c **** * Function Name: ClockSetup
 195:Generated_Source\PSoC4/cyfitter_cfg.c **** ********************************************************************************
 196:Generated_Source\PSoC4/cyfitter_cfg.c **** *
 197:Generated_Source\PSoC4/cyfitter_cfg.c **** * Summary:
 198:Generated_Source\PSoC4/cyfitter_cfg.c **** *   Performs the initialization of all of the clocks in the device based on the
 199:Generated_Source\PSoC4/cyfitter_cfg.c **** *   settings in the Clock tab of the DWR.  This includes enabling the requested
 200:Generated_Source\PSoC4/cyfitter_cfg.c **** *   clocks and setting the necessary dividers to produce the desired frequency. 
 201:Generated_Source\PSoC4/cyfitter_cfg.c **** *
 202:Generated_Source\PSoC4/cyfitter_cfg.c **** * Parameters:
 203:Generated_Source\PSoC4/cyfitter_cfg.c **** *   void
 204:Generated_Source\PSoC4/cyfitter_cfg.c **** *
 205:Generated_Source\PSoC4/cyfitter_cfg.c **** * Return:
ARM GAS  C:\Users\Jeremias\AppData\Local\Temp\cc50Dy6c.s 			page 7


 206:Generated_Source\PSoC4/cyfitter_cfg.c **** *   void
 207:Generated_Source\PSoC4/cyfitter_cfg.c **** *
 208:Generated_Source\PSoC4/cyfitter_cfg.c **** *******************************************************************************/
 209:Generated_Source\PSoC4/cyfitter_cfg.c **** static void ClockSetup(void);
 210:Generated_Source\PSoC4/cyfitter_cfg.c **** CY_CFG_SECTION
 211:Generated_Source\PSoC4/cyfitter_cfg.c **** static void ClockSetup(void)
 212:Generated_Source\PSoC4/cyfitter_cfg.c **** {
 132              		.loc 1 212 0
 133              		.cfi_startproc
 134              		@ args = 0, pretend = 0, frame = 0
 135              		@ frame_needed = 0, uses_anonymous_args = 0
 136 0000 70B5     		push	{r4, r5, r6, lr}
 137              		.cfi_def_cfa_offset 16
 138              		.cfi_offset 4, -16
 139              		.cfi_offset 5, -12
 140              		.cfi_offset 6, -8
 141              		.cfi_offset 14, -4
 213:Generated_Source\PSoC4/cyfitter_cfg.c **** 	/* Enable HALF_EN before trimming for the flash accelerator. */
 214:Generated_Source\PSoC4/cyfitter_cfg.c **** 	CY_SET_REG32((void CYXDATA *)(CYREG_CLK_SELECT), (CY_GET_REG32((void *)CYREG_CLK_SELECT) | 0x00040
 142              		.loc 1 214 0
 143 0002 114C     		ldr	r4, .L8
 144 0004 2368     		ldr	r3, [r4]
 145 0006 8025     		movs	r5, #128
 146 0008 ED02     		lsls	r5, r5, #11
 147 000a 2B43     		orrs	r3, r5
 148 000c 2360     		str	r3, [r4]
 215:Generated_Source\PSoC4/cyfitter_cfg.c **** 
 216:Generated_Source\PSoC4/cyfitter_cfg.c **** 	/* Setup and trim IMO based on desired frequency. */
 217:Generated_Source\PSoC4/cyfitter_cfg.c **** 	CySysClkWriteImoFreq(48u);
 149              		.loc 1 217 0
 150 000e 3020     		movs	r0, #48
 151 0010 FFF7FEFF 		bl	CySysClkWriteImoFreq
 152              	.LVL15:
 218:Generated_Source\PSoC4/cyfitter_cfg.c **** 	/* CYDEV_CLK_ILO_CONFIG Starting address: CYDEV_CLK_ILO_CONFIG */
 219:Generated_Source\PSoC4/cyfitter_cfg.c **** 	CY_SET_REG32((void *)(CYREG_CLK_ILO_CONFIG), 0x80000006u);
 153              		.loc 1 219 0
 154 0014 0D4A     		ldr	r2, .L8+4
 155 0016 0E4B     		ldr	r3, .L8+8
 156 0018 1A60     		str	r2, [r3]
 220:Generated_Source\PSoC4/cyfitter_cfg.c **** 
 221:Generated_Source\PSoC4/cyfitter_cfg.c **** 
 222:Generated_Source\PSoC4/cyfitter_cfg.c **** 	/* CYDEV_CLK_SELECT00 Starting address: CYDEV_CLK_SELECT00 */
 223:Generated_Source\PSoC4/cyfitter_cfg.c **** 	CY_SET_REG32((void *)(CYREG_CLK_SELECT12), 0x00000010u);
 157              		.loc 1 223 0
 158 001a 1022     		movs	r2, #16
 159 001c 0D4B     		ldr	r3, .L8+12
 160 001e 1A60     		str	r2, [r3]
 224:Generated_Source\PSoC4/cyfitter_cfg.c **** 
 225:Generated_Source\PSoC4/cyfitter_cfg.c **** 	/* CYDEV_CLK_IMO_CONFIG Starting address: CYDEV_CLK_IMO_CONFIG */
 226:Generated_Source\PSoC4/cyfitter_cfg.c **** 	CY_SET_REG32((void *)(CYREG_CLK_IMO_CONFIG), 0x80000000u);
 161              		.loc 1 226 0
 162 0020 8022     		movs	r2, #128
 163 0022 1206     		lsls	r2, r2, #24
 164 0024 0C4B     		ldr	r3, .L8+16
 165 0026 1A60     		str	r2, [r3]
 227:Generated_Source\PSoC4/cyfitter_cfg.c **** 
 228:Generated_Source\PSoC4/cyfitter_cfg.c **** 	/* CYDEV_CLK_SELECT Starting address: CYDEV_CLK_SELECT */
ARM GAS  C:\Users\Jeremias\AppData\Local\Temp\cc50Dy6c.s 			page 8


 229:Generated_Source\PSoC4/cyfitter_cfg.c **** 	CY_SET_REG32((void *)(CYREG_CLK_SELECT), 0x00040000u);
 166              		.loc 1 229 0
 167 0028 2560     		str	r5, [r4]
 230:Generated_Source\PSoC4/cyfitter_cfg.c **** 
 231:Generated_Source\PSoC4/cyfitter_cfg.c **** 	/* CYDEV_CLK_DIVIDER_A00 Starting address: CYDEV_CLK_DIVIDER_A00 */
 232:Generated_Source\PSoC4/cyfitter_cfg.c **** 	CY_SET_REG32((void *)(CYREG_CLK_DIVIDER_A00), 0x8000002Fu);
 168              		.loc 1 232 0
 169 002a 0C4A     		ldr	r2, .L8+20
 170 002c 0C4B     		ldr	r3, .L8+24
 171 002e 1A60     		str	r2, [r3]
 233:Generated_Source\PSoC4/cyfitter_cfg.c **** 
 234:Generated_Source\PSoC4/cyfitter_cfg.c **** 	(void)CyIntSetVector(9u, &CySysWdtIsr);
 172              		.loc 1 234 0
 173 0030 0C49     		ldr	r1, .L8+28
 174 0032 0920     		movs	r0, #9
 175 0034 FFF7FEFF 		bl	CyIntSetVector
 176              	.LVL16:
 235:Generated_Source\PSoC4/cyfitter_cfg.c **** 	CyIntEnable(9u);
 177              		.loc 1 235 0
 178 0038 0920     		movs	r0, #9
 179 003a FFF7FEFF 		bl	CyIntEnable
 180              	.LVL17:
 236:Generated_Source\PSoC4/cyfitter_cfg.c **** 	CY_SET_REG32((void *)(CYREG_WDT_CONFIG), 0x00000000u);
 181              		.loc 1 236 0
 182 003e 0022     		movs	r2, #0
 183 0040 094B     		ldr	r3, .L8+32
 184 0042 1A60     		str	r2, [r3]
 237:Generated_Source\PSoC4/cyfitter_cfg.c **** }
 185              		.loc 1 237 0
 186              		@ sp needed
 187 0044 70BD     		pop	{r4, r5, r6, pc}
 188              	.L9:
 189 0046 C046     		.align	2
 190              	.L8:
 191 0048 00010B40 		.word	1074462976
 192 004c 06000080 		.word	-2147483642
 193 0050 04010B40 		.word	1074462980
 194 0054 30020240 		.word	1073873456
 195 0058 08010B40 		.word	1074462984
 196 005c 2F000080 		.word	-2147483601
 197 0060 00000240 		.word	1073872896
 198 0064 00000000 		.word	CySysWdtIsr
 199 0068 0C020B40 		.word	1074463244
 200              		.cfi_endproc
 201              	.LFE4:
 202              		.size	ClockSetup, .-ClockSetup
 203              		.section	.text.SetAnalogRoutingPumps,"ax",%progbits
 204              		.align	2
 205              		.global	SetAnalogRoutingPumps
 206              		.code	16
 207              		.thumb_func
 208              		.type	SetAnalogRoutingPumps, %function
 209              	SetAnalogRoutingPumps:
 210              	.LFB6:
 238:Generated_Source\PSoC4/cyfitter_cfg.c **** 
 239:Generated_Source\PSoC4/cyfitter_cfg.c **** 
 240:Generated_Source\PSoC4/cyfitter_cfg.c **** /* Analog API Functions */
ARM GAS  C:\Users\Jeremias\AppData\Local\Temp\cc50Dy6c.s 			page 9


 241:Generated_Source\PSoC4/cyfitter_cfg.c **** 
 242:Generated_Source\PSoC4/cyfitter_cfg.c **** 
 243:Generated_Source\PSoC4/cyfitter_cfg.c **** /*******************************************************************************
 244:Generated_Source\PSoC4/cyfitter_cfg.c **** * Function Name: AnalogSetDefault
 245:Generated_Source\PSoC4/cyfitter_cfg.c **** ********************************************************************************
 246:Generated_Source\PSoC4/cyfitter_cfg.c **** *
 247:Generated_Source\PSoC4/cyfitter_cfg.c **** * Summary:
 248:Generated_Source\PSoC4/cyfitter_cfg.c **** *  Sets up the analog portions of the chip to default values based on chip
 249:Generated_Source\PSoC4/cyfitter_cfg.c **** *  configuration options from the project.
 250:Generated_Source\PSoC4/cyfitter_cfg.c **** *
 251:Generated_Source\PSoC4/cyfitter_cfg.c **** * Parameters:
 252:Generated_Source\PSoC4/cyfitter_cfg.c **** *  void
 253:Generated_Source\PSoC4/cyfitter_cfg.c **** *
 254:Generated_Source\PSoC4/cyfitter_cfg.c **** * Return:
 255:Generated_Source\PSoC4/cyfitter_cfg.c **** *  void
 256:Generated_Source\PSoC4/cyfitter_cfg.c **** *
 257:Generated_Source\PSoC4/cyfitter_cfg.c **** *******************************************************************************/
 258:Generated_Source\PSoC4/cyfitter_cfg.c **** static void AnalogSetDefault(void);
 259:Generated_Source\PSoC4/cyfitter_cfg.c **** static void AnalogSetDefault(void)
 260:Generated_Source\PSoC4/cyfitter_cfg.c **** {
 261:Generated_Source\PSoC4/cyfitter_cfg.c **** 	/* Variable VDDA is selected; no pumps are enabled by default */
 262:Generated_Source\PSoC4/cyfitter_cfg.c **** }
 263:Generated_Source\PSoC4/cyfitter_cfg.c **** 
 264:Generated_Source\PSoC4/cyfitter_cfg.c **** 
 265:Generated_Source\PSoC4/cyfitter_cfg.c **** /*******************************************************************************
 266:Generated_Source\PSoC4/cyfitter_cfg.c **** * Function Name: SetAnalogRoutingPumps
 267:Generated_Source\PSoC4/cyfitter_cfg.c **** ********************************************************************************
 268:Generated_Source\PSoC4/cyfitter_cfg.c **** *
 269:Generated_Source\PSoC4/cyfitter_cfg.c **** * Summary:
 270:Generated_Source\PSoC4/cyfitter_cfg.c **** * Enables or disables the analog pumps feeding analog routing switches.
 271:Generated_Source\PSoC4/cyfitter_cfg.c **** * Intended to be called at startup, based on the Vdda system configuration;
 272:Generated_Source\PSoC4/cyfitter_cfg.c **** * may be called during operation when the user informs us that the Vdda voltage crossed the pump th
 273:Generated_Source\PSoC4/cyfitter_cfg.c **** *
 274:Generated_Source\PSoC4/cyfitter_cfg.c **** * Parameters:
 275:Generated_Source\PSoC4/cyfitter_cfg.c **** *  enabled - 1 to enable the pumps, 0 to disable the pumps
 276:Generated_Source\PSoC4/cyfitter_cfg.c **** *
 277:Generated_Source\PSoC4/cyfitter_cfg.c **** * Return:
 278:Generated_Source\PSoC4/cyfitter_cfg.c **** *  void
 279:Generated_Source\PSoC4/cyfitter_cfg.c **** *
 280:Generated_Source\PSoC4/cyfitter_cfg.c **** *******************************************************************************/
 281:Generated_Source\PSoC4/cyfitter_cfg.c **** void SetAnalogRoutingPumps(uint8 enabled)
 282:Generated_Source\PSoC4/cyfitter_cfg.c **** {
 211              		.loc 1 282 0
 212              		.cfi_startproc
 213              		@ args = 0, pretend = 0, frame = 0
 214              		@ frame_needed = 0, uses_anonymous_args = 0
 215              		@ link register save eliminated.
 216              	.LVL18:
 283:Generated_Source\PSoC4/cyfitter_cfg.c **** 	uint32 regValue = CY_GET_XTND_REG32((void *)(CYREG_SAR_PUMP_CTRL));
 217              		.loc 1 283 0
 218 0000 0C4B     		ldr	r3, .L15
 219 0002 1B68     		ldr	r3, [r3]
 220              	.LVL19:
 284:Generated_Source\PSoC4/cyfitter_cfg.c **** 	if (enabled != 0u)
 221              		.loc 1 284 0
 222 0004 0028     		cmp	r0, #0
 223 0006 03D0     		beq	.L11
ARM GAS  C:\Users\Jeremias\AppData\Local\Temp\cc50Dy6c.s 			page 10


 285:Generated_Source\PSoC4/cyfitter_cfg.c **** 	{
 286:Generated_Source\PSoC4/cyfitter_cfg.c **** 		regValue |= 0x80000000u;
 224              		.loc 1 286 0
 225 0008 8022     		movs	r2, #128
 226 000a 1206     		lsls	r2, r2, #24
 227 000c 1343     		orrs	r3, r2
 228              	.LVL20:
 229 000e 01E0     		b	.L12
 230              	.L11:
 287:Generated_Source\PSoC4/cyfitter_cfg.c **** 	}
 288:Generated_Source\PSoC4/cyfitter_cfg.c **** 	else
 289:Generated_Source\PSoC4/cyfitter_cfg.c **** 	{
 290:Generated_Source\PSoC4/cyfitter_cfg.c **** 		regValue &= ~0x80000000u;
 231              		.loc 1 290 0
 232 0010 5B00     		lsls	r3, r3, #1
 233              	.LVL21:
 234 0012 5B08     		lsrs	r3, r3, #1
 235              	.LVL22:
 236              	.L12:
 291:Generated_Source\PSoC4/cyfitter_cfg.c **** 	}
 292:Generated_Source\PSoC4/cyfitter_cfg.c **** 	CY_SET_XTND_REG32((void *)(CYREG_SAR_PUMP_CTRL), regValue);
 237              		.loc 1 292 0
 238 0014 074A     		ldr	r2, .L15
 239 0016 1360     		str	r3, [r2]
 293:Generated_Source\PSoC4/cyfitter_cfg.c **** 	regValue = CY_GET_XTND_REG32((void *)(CYREG_CLK_IMO_CONFIG));
 240              		.loc 1 293 0
 241 0018 074B     		ldr	r3, .L15+4
 242              	.LVL23:
 243 001a 1B68     		ldr	r3, [r3]
 244              	.LVL24:
 294:Generated_Source\PSoC4/cyfitter_cfg.c **** 	if (enabled != 0u)
 245              		.loc 1 294 0
 246 001c 0028     		cmp	r0, #0
 247 001e 03D0     		beq	.L13
 295:Generated_Source\PSoC4/cyfitter_cfg.c **** 	{
 296:Generated_Source\PSoC4/cyfitter_cfg.c **** 		regValue |= 0x02000000u;
 248              		.loc 1 296 0
 249 0020 8022     		movs	r2, #128
 250 0022 9204     		lsls	r2, r2, #18
 251 0024 1343     		orrs	r3, r2
 252              	.LVL25:
 253 0026 01E0     		b	.L14
 254              	.L13:
 297:Generated_Source\PSoC4/cyfitter_cfg.c **** 	}
 298:Generated_Source\PSoC4/cyfitter_cfg.c **** 	else
 299:Generated_Source\PSoC4/cyfitter_cfg.c **** 	{
 300:Generated_Source\PSoC4/cyfitter_cfg.c **** 		regValue &= ~0x02000000u;
 255              		.loc 1 300 0
 256 0028 044A     		ldr	r2, .L15+8
 257 002a 1340     		ands	r3, r2
 258              	.LVL26:
 259              	.L14:
 301:Generated_Source\PSoC4/cyfitter_cfg.c **** 	}
 302:Generated_Source\PSoC4/cyfitter_cfg.c **** 	CY_SET_XTND_REG32((void *)(CYREG_CLK_IMO_CONFIG), regValue);
 260              		.loc 1 302 0
 261 002c 024A     		ldr	r2, .L15+4
 262 002e 1360     		str	r3, [r2]
ARM GAS  C:\Users\Jeremias\AppData\Local\Temp\cc50Dy6c.s 			page 11


 303:Generated_Source\PSoC4/cyfitter_cfg.c **** }
 263              		.loc 1 303 0
 264              		@ sp needed
 265 0030 7047     		bx	lr
 266              	.L16:
 267 0032 C046     		.align	2
 268              	.L15:
 269 0034 80031A40 		.word	1075446656
 270 0038 08010B40 		.word	1074462984
 271 003c FFFFFFFD 		.word	-33554433
 272              		.cfi_endproc
 273              	.LFE6:
 274              		.size	SetAnalogRoutingPumps, .-SetAnalogRoutingPumps
 275              		.section	.text.AMux_1_Set,"ax",%progbits
 276              		.align	2
 277              		.global	AMux_1_Set
 278              		.code	16
 279              		.thumb_func
 280              		.type	AMux_1_Set, %function
 281              	AMux_1_Set:
 282              	.LFB7:
 304:Generated_Source\PSoC4/cyfitter_cfg.c **** 
 305:Generated_Source\PSoC4/cyfitter_cfg.c **** 
 306:Generated_Source\PSoC4/cyfitter_cfg.c **** #define CY_AMUX_UNUSED CYREG_CM0_ROM_DWT
 307:Generated_Source\PSoC4/cyfitter_cfg.c **** /*******************************************************************************
 308:Generated_Source\PSoC4/cyfitter_cfg.c **** * Function Name: AMux_1_Set
 309:Generated_Source\PSoC4/cyfitter_cfg.c **** ********************************************************************************
 310:Generated_Source\PSoC4/cyfitter_cfg.c **** * Summary:
 311:Generated_Source\PSoC4/cyfitter_cfg.c **** *  This function is used to set a particular channel as active on the AMux.
 312:Generated_Source\PSoC4/cyfitter_cfg.c **** *
 313:Generated_Source\PSoC4/cyfitter_cfg.c **** * Parameters:  
 314:Generated_Source\PSoC4/cyfitter_cfg.c **** *   channel - The mux channel input to set as active
 315:Generated_Source\PSoC4/cyfitter_cfg.c **** *
 316:Generated_Source\PSoC4/cyfitter_cfg.c **** * Return:
 317:Generated_Source\PSoC4/cyfitter_cfg.c **** *   void
 318:Generated_Source\PSoC4/cyfitter_cfg.c **** *
 319:Generated_Source\PSoC4/cyfitter_cfg.c **** *******************************************************************************/
 320:Generated_Source\PSoC4/cyfitter_cfg.c **** void AMux_1_Set(uint8 channel)
 321:Generated_Source\PSoC4/cyfitter_cfg.c **** {
 283              		.loc 1 321 0
 284              		.cfi_startproc
 285              		@ args = 0, pretend = 0, frame = 0
 286              		@ frame_needed = 0, uses_anonymous_args = 0
 287              		@ link register save eliminated.
 288              	.LVL27:
 322:Generated_Source\PSoC4/cyfitter_cfg.c **** 	switch (channel) {
 289              		.loc 1 322 0
 290 0000 0028     		cmp	r0, #0
 291 0002 02D0     		beq	.L19
 292 0004 0128     		cmp	r0, #1
 293 0006 07D0     		beq	.L20
 294 0008 0CE0     		b	.L17
 295              	.L19:
 323:Generated_Source\PSoC4/cyfitter_cfg.c **** 		case 0u:
 324:Generated_Source\PSoC4/cyfitter_cfg.c **** 			CY_SET_REG32((void CYXDATA *)CYREG_HSIOM_PORT_SEL1, (CY_GET_REG32((void CYXDATA *)CYREG_HSIOM_PO
 296              		.loc 1 324 0
 297 000a 074A     		ldr	r2, .L21
ARM GAS  C:\Users\Jeremias\AppData\Local\Temp\cc50Dy6c.s 			page 12


 298 000c 1368     		ldr	r3, [r2]
 299 000e C021     		movs	r1, #192
 300 0010 C900     		lsls	r1, r1, #3
 301 0012 0B43     		orrs	r3, r1
 302 0014 1360     		str	r3, [r2]
 325:Generated_Source\PSoC4/cyfitter_cfg.c **** 			break;
 303              		.loc 1 325 0
 304 0016 05E0     		b	.L17
 305              	.L20:
 326:Generated_Source\PSoC4/cyfitter_cfg.c **** 		case 1u:
 327:Generated_Source\PSoC4/cyfitter_cfg.c **** 			CY_SET_REG32((void CYXDATA *)CYREG_HSIOM_PORT_SEL1, (CY_GET_REG32((void CYXDATA *)CYREG_HSIOM_PO
 306              		.loc 1 327 0
 307 0018 034A     		ldr	r2, .L21
 308 001a 1368     		ldr	r3, [r2]
 309 001c C021     		movs	r1, #192
 310 001e C902     		lsls	r1, r1, #11
 311 0020 0B43     		orrs	r3, r1
 312 0022 1360     		str	r3, [r2]
 313              	.L17:
 328:Generated_Source\PSoC4/cyfitter_cfg.c **** 			break;
 329:Generated_Source\PSoC4/cyfitter_cfg.c **** 		default:
 330:Generated_Source\PSoC4/cyfitter_cfg.c **** 			break;
 331:Generated_Source\PSoC4/cyfitter_cfg.c **** 	}
 332:Generated_Source\PSoC4/cyfitter_cfg.c **** }
 314              		.loc 1 332 0
 315              		@ sp needed
 316 0024 7047     		bx	lr
 317              	.L22:
 318 0026 C046     		.align	2
 319              	.L21:
 320 0028 04000140 		.word	1073807364
 321              		.cfi_endproc
 322              	.LFE7:
 323              		.size	AMux_1_Set, .-AMux_1_Set
 324              		.section	.text.AMux_1_Unset,"ax",%progbits
 325              		.align	2
 326              		.global	AMux_1_Unset
 327              		.code	16
 328              		.thumb_func
 329              		.type	AMux_1_Unset, %function
 330              	AMux_1_Unset:
 331              	.LFB8:
 333:Generated_Source\PSoC4/cyfitter_cfg.c **** 
 334:Generated_Source\PSoC4/cyfitter_cfg.c **** /*******************************************************************************
 335:Generated_Source\PSoC4/cyfitter_cfg.c **** * Function Name: AMux_1_Unset
 336:Generated_Source\PSoC4/cyfitter_cfg.c **** ********************************************************************************
 337:Generated_Source\PSoC4/cyfitter_cfg.c **** * Summary:
 338:Generated_Source\PSoC4/cyfitter_cfg.c **** *  This function is used to clear a particular channel from being active on the
 339:Generated_Source\PSoC4/cyfitter_cfg.c **** *  AMux.
 340:Generated_Source\PSoC4/cyfitter_cfg.c **** *
 341:Generated_Source\PSoC4/cyfitter_cfg.c **** * Parameters:  
 342:Generated_Source\PSoC4/cyfitter_cfg.c **** *   channel - The mux channel input to mark inactive
 343:Generated_Source\PSoC4/cyfitter_cfg.c **** *
 344:Generated_Source\PSoC4/cyfitter_cfg.c **** * Return:
 345:Generated_Source\PSoC4/cyfitter_cfg.c **** *   void
 346:Generated_Source\PSoC4/cyfitter_cfg.c **** *
 347:Generated_Source\PSoC4/cyfitter_cfg.c **** *******************************************************************************/
ARM GAS  C:\Users\Jeremias\AppData\Local\Temp\cc50Dy6c.s 			page 13


 348:Generated_Source\PSoC4/cyfitter_cfg.c **** void AMux_1_Unset(uint8 channel)
 349:Generated_Source\PSoC4/cyfitter_cfg.c **** {
 332              		.loc 1 349 0
 333              		.cfi_startproc
 334              		@ args = 0, pretend = 0, frame = 0
 335              		@ frame_needed = 0, uses_anonymous_args = 0
 336              		@ link register save eliminated.
 337              	.LVL28:
 350:Generated_Source\PSoC4/cyfitter_cfg.c **** 	switch (channel) {
 338              		.loc 1 350 0
 339 0000 0028     		cmp	r0, #0
 340 0002 02D0     		beq	.L25
 341 0004 0128     		cmp	r0, #1
 342 0006 06D0     		beq	.L26
 343 0008 0AE0     		b	.L23
 344              	.L25:
 351:Generated_Source\PSoC4/cyfitter_cfg.c **** 		case 0u:
 352:Generated_Source\PSoC4/cyfitter_cfg.c **** 			CY_SET_REG32((void CYXDATA *)CYREG_HSIOM_PORT_SEL1, (CY_GET_REG32((void CYXDATA *)CYREG_HSIOM_PO
 345              		.loc 1 352 0
 346 000a 064A     		ldr	r2, .L27
 347 000c 1168     		ldr	r1, [r2]
 348 000e 064B     		ldr	r3, .L27+4
 349 0010 0B40     		ands	r3, r1
 350 0012 1360     		str	r3, [r2]
 353:Generated_Source\PSoC4/cyfitter_cfg.c **** 			break;
 351              		.loc 1 353 0
 352 0014 04E0     		b	.L23
 353              	.L26:
 354:Generated_Source\PSoC4/cyfitter_cfg.c **** 		case 1u:
 355:Generated_Source\PSoC4/cyfitter_cfg.c **** 			CY_SET_REG32((void CYXDATA *)CYREG_HSIOM_PORT_SEL1, (CY_GET_REG32((void CYXDATA *)CYREG_HSIOM_PO
 354              		.loc 1 355 0
 355 0016 034A     		ldr	r2, .L27
 356 0018 1168     		ldr	r1, [r2]
 357 001a 044B     		ldr	r3, .L27+8
 358 001c 0B40     		ands	r3, r1
 359 001e 1360     		str	r3, [r2]
 360              	.L23:
 356:Generated_Source\PSoC4/cyfitter_cfg.c **** 			break;
 357:Generated_Source\PSoC4/cyfitter_cfg.c **** 		default:
 358:Generated_Source\PSoC4/cyfitter_cfg.c **** 			break;
 359:Generated_Source\PSoC4/cyfitter_cfg.c **** 	}
 360:Generated_Source\PSoC4/cyfitter_cfg.c **** }
 361              		.loc 1 360 0
 362              		@ sp needed
 363 0020 7047     		bx	lr
 364              	.L28:
 365 0022 C046     		.align	2
 366              	.L27:
 367 0024 04000140 		.word	1073807364
 368 0028 FFF9FFFF 		.word	-1537
 369 002c FFFFF9FF 		.word	-393217
 370              		.cfi_endproc
 371              	.LFE8:
 372              		.size	AMux_1_Unset, .-AMux_1_Unset
 373              		.section	.psocinit
 374              		.align	2
 375              		.global	cyfitter_cfg
ARM GAS  C:\Users\Jeremias\AppData\Local\Temp\cc50Dy6c.s 			page 14


 376              		.code	16
 377              		.thumb_func
 378              		.type	cyfitter_cfg, %function
 379              	cyfitter_cfg:
 380              	.LFB9:
 361:Generated_Source\PSoC4/cyfitter_cfg.c **** 
 362:Generated_Source\PSoC4/cyfitter_cfg.c **** 
 363:Generated_Source\PSoC4/cyfitter_cfg.c **** 
 364:Generated_Source\PSoC4/cyfitter_cfg.c **** /*******************************************************************************
 365:Generated_Source\PSoC4/cyfitter_cfg.c **** * Function Name: cyfitter_cfg
 366:Generated_Source\PSoC4/cyfitter_cfg.c **** ********************************************************************************
 367:Generated_Source\PSoC4/cyfitter_cfg.c **** * Summary:
 368:Generated_Source\PSoC4/cyfitter_cfg.c **** *  This function is called by the start-up code for the selected device. It
 369:Generated_Source\PSoC4/cyfitter_cfg.c **** *  performs all of the necessary device configuration based on the design
 370:Generated_Source\PSoC4/cyfitter_cfg.c **** *  settings.  This includes settings from the Design Wide Resources (DWR) such
 371:Generated_Source\PSoC4/cyfitter_cfg.c **** *  as Clocks and Pins as well as any component configuration that is necessary.
 372:Generated_Source\PSoC4/cyfitter_cfg.c **** *
 373:Generated_Source\PSoC4/cyfitter_cfg.c **** * Parameters:
 374:Generated_Source\PSoC4/cyfitter_cfg.c **** *   void
 375:Generated_Source\PSoC4/cyfitter_cfg.c **** *
 376:Generated_Source\PSoC4/cyfitter_cfg.c **** * Return:
 377:Generated_Source\PSoC4/cyfitter_cfg.c **** *   void
 378:Generated_Source\PSoC4/cyfitter_cfg.c **** *
 379:Generated_Source\PSoC4/cyfitter_cfg.c **** *******************************************************************************/
 380:Generated_Source\PSoC4/cyfitter_cfg.c **** CY_CFG_SECTION
 381:Generated_Source\PSoC4/cyfitter_cfg.c **** void cyfitter_cfg(void)
 382:Generated_Source\PSoC4/cyfitter_cfg.c **** {
 381              		.loc 1 382 0
 382              		.cfi_startproc
 383              		@ args = 0, pretend = 0, frame = 0
 384              		@ frame_needed = 0, uses_anonymous_args = 0
 385 006c 10B5     		push	{r4, lr}
 386              		.cfi_def_cfa_offset 8
 387              		.cfi_offset 4, -8
 388              		.cfi_offset 14, -4
 383:Generated_Source\PSoC4/cyfitter_cfg.c **** 	/* Disable interrupts by default. Let user enable if/when they want. */
 384:Generated_Source\PSoC4/cyfitter_cfg.c **** 	CyGlobalIntDisable;
 389              		.loc 1 384 0
 390              		.syntax divided
 391              	@ 384 "Generated_Source\PSoC4\cyfitter_cfg.c" 1
 392 006e 72B6     		CPSID   i
 393              	@ 0 "" 2
 385:Generated_Source\PSoC4/cyfitter_cfg.c **** 
 386:Generated_Source\PSoC4/cyfitter_cfg.c **** 	/* Enable the clock in the interrupt controller for the routed interrupts */
 387:Generated_Source\PSoC4/cyfitter_cfg.c **** 	CY_SET_REG8((void *)CYREG_UDB_UDBIF_INT_CLK_CTL, 0x01u);
 394              		.loc 1 387 0
 395              		.thumb
 396              		.syntax unified
 397 0070 0122     		movs	r2, #1
 398 0072 2B4B     		ldr	r3, .L32
 399 0074 1A70     		strb	r2, [r3]
 400              	.LVL29:
 401              	.LBB3:
 388:Generated_Source\PSoC4/cyfitter_cfg.c **** 	{
 389:Generated_Source\PSoC4/cyfitter_cfg.c **** 		static const uint32 CYCODE cy_cfg_addr_table[] = {
 390:Generated_Source\PSoC4/cyfitter_cfg.c **** 			0x400F0001u, /* Base address: 0x400F0000 Count: 1 */
 391:Generated_Source\PSoC4/cyfitter_cfg.c **** 			0x400F3240u, /* Base address: 0x400F3200 Count: 64 */
ARM GAS  C:\Users\Jeremias\AppData\Local\Temp\cc50Dy6c.s 			page 15


 392:Generated_Source\PSoC4/cyfitter_cfg.c **** 			0x400F3323u, /* Base address: 0x400F3300 Count: 35 */
 393:Generated_Source\PSoC4/cyfitter_cfg.c **** 			0x400F4004u, /* Base address: 0x400F4000 Count: 4 */
 394:Generated_Source\PSoC4/cyfitter_cfg.c **** 			0x400F4108u, /* Base address: 0x400F4100 Count: 8 */
 395:Generated_Source\PSoC4/cyfitter_cfg.c **** 			0x400F4202u, /* Base address: 0x400F4200 Count: 2 */
 396:Generated_Source\PSoC4/cyfitter_cfg.c **** 			0x400F4303u, /* Base address: 0x400F4300 Count: 3 */
 397:Generated_Source\PSoC4/cyfitter_cfg.c **** 			0x400F6002u, /* Base address: 0x400F6000 Count: 2 */
 398:Generated_Source\PSoC4/cyfitter_cfg.c **** 		};
 399:Generated_Source\PSoC4/cyfitter_cfg.c **** 
 400:Generated_Source\PSoC4/cyfitter_cfg.c **** 		static const cy_cfg_addrvalue_t CYCODE cy_cfg_data_table[] = {
 401:Generated_Source\PSoC4/cyfitter_cfg.c **** 			{0x83u, 0x0Du},
 402:Generated_Source\PSoC4/cyfitter_cfg.c **** 			{0x03u, 0x01u},
 403:Generated_Source\PSoC4/cyfitter_cfg.c **** 			{0x31u, 0x01u},
 404:Generated_Source\PSoC4/cyfitter_cfg.c **** 			{0x38u, 0xA0u},
 405:Generated_Source\PSoC4/cyfitter_cfg.c **** 			{0x3Eu, 0x50u},
 406:Generated_Source\PSoC4/cyfitter_cfg.c **** 			{0x40u, 0x10u},
 407:Generated_Source\PSoC4/cyfitter_cfg.c **** 			{0x41u, 0x05u},
 408:Generated_Source\PSoC4/cyfitter_cfg.c **** 			{0x49u, 0xFFu},
 409:Generated_Source\PSoC4/cyfitter_cfg.c **** 			{0x4Au, 0xFFu},
 410:Generated_Source\PSoC4/cyfitter_cfg.c **** 			{0x4Bu, 0xFFu},
 411:Generated_Source\PSoC4/cyfitter_cfg.c **** 			{0x4Du, 0xA0u},
 412:Generated_Source\PSoC4/cyfitter_cfg.c **** 			{0x4Fu, 0x04u},
 413:Generated_Source\PSoC4/cyfitter_cfg.c **** 			{0x50u, 0x18u},
 414:Generated_Source\PSoC4/cyfitter_cfg.c **** 			{0x52u, 0x80u},
 415:Generated_Source\PSoC4/cyfitter_cfg.c **** 			{0x58u, 0x04u},
 416:Generated_Source\PSoC4/cyfitter_cfg.c **** 			{0x59u, 0x04u},
 417:Generated_Source\PSoC4/cyfitter_cfg.c **** 			{0x5Au, 0x04u},
 418:Generated_Source\PSoC4/cyfitter_cfg.c **** 			{0x5Bu, 0x04u},
 419:Generated_Source\PSoC4/cyfitter_cfg.c **** 			{0x5Fu, 0x01u},
 420:Generated_Source\PSoC4/cyfitter_cfg.c **** 			{0x60u, 0x40u},
 421:Generated_Source\PSoC4/cyfitter_cfg.c **** 			{0x62u, 0xC0u},
 422:Generated_Source\PSoC4/cyfitter_cfg.c **** 			{0x64u, 0x40u},
 423:Generated_Source\PSoC4/cyfitter_cfg.c **** 			{0x65u, 0x40u},
 424:Generated_Source\PSoC4/cyfitter_cfg.c **** 			{0x66u, 0xC0u},
 425:Generated_Source\PSoC4/cyfitter_cfg.c **** 			{0x68u, 0xC0u},
 426:Generated_Source\PSoC4/cyfitter_cfg.c **** 			{0x6Au, 0xC0u},
 427:Generated_Source\PSoC4/cyfitter_cfg.c **** 			{0x6Cu, 0xC0u},
 428:Generated_Source\PSoC4/cyfitter_cfg.c **** 			{0x6Eu, 0xC0u},
 429:Generated_Source\PSoC4/cyfitter_cfg.c **** 			{0x88u, 0x02u},
 430:Generated_Source\PSoC4/cyfitter_cfg.c **** 			{0x93u, 0x01u},
 431:Generated_Source\PSoC4/cyfitter_cfg.c **** 			{0x9Fu, 0x01u},
 432:Generated_Source\PSoC4/cyfitter_cfg.c **** 			{0xA6u, 0x03u},
 433:Generated_Source\PSoC4/cyfitter_cfg.c **** 			{0xB1u, 0x01u},
 434:Generated_Source\PSoC4/cyfitter_cfg.c **** 			{0xB2u, 0x01u},
 435:Generated_Source\PSoC4/cyfitter_cfg.c **** 			{0xB3u, 0x01u},
 436:Generated_Source\PSoC4/cyfitter_cfg.c **** 			{0xB6u, 0x02u},
 437:Generated_Source\PSoC4/cyfitter_cfg.c **** 			{0xBFu, 0x04u},
 438:Generated_Source\PSoC4/cyfitter_cfg.c **** 			{0xC0u, 0x10u},
 439:Generated_Source\PSoC4/cyfitter_cfg.c **** 			{0xC1u, 0x05u},
 440:Generated_Source\PSoC4/cyfitter_cfg.c **** 			{0xC5u, 0xD1u},
 441:Generated_Source\PSoC4/cyfitter_cfg.c **** 			{0xC7u, 0x20u},
 442:Generated_Source\PSoC4/cyfitter_cfg.c **** 			{0xC8u, 0x23u},
 443:Generated_Source\PSoC4/cyfitter_cfg.c **** 			{0xC9u, 0xFFu},
 444:Generated_Source\PSoC4/cyfitter_cfg.c **** 			{0xCAu, 0xFFu},
 445:Generated_Source\PSoC4/cyfitter_cfg.c **** 			{0xCBu, 0xFFu},
 446:Generated_Source\PSoC4/cyfitter_cfg.c **** 			{0xCDu, 0xAFu},
 447:Generated_Source\PSoC4/cyfitter_cfg.c **** 			{0xCEu, 0x0Fu},
 448:Generated_Source\PSoC4/cyfitter_cfg.c **** 			{0xCFu, 0x04u},
ARM GAS  C:\Users\Jeremias\AppData\Local\Temp\cc50Dy6c.s 			page 16


 449:Generated_Source\PSoC4/cyfitter_cfg.c **** 			{0xD0u, 0x18u},
 450:Generated_Source\PSoC4/cyfitter_cfg.c **** 			{0xD4u, 0x05u},
 451:Generated_Source\PSoC4/cyfitter_cfg.c **** 			{0xD6u, 0x04u},
 452:Generated_Source\PSoC4/cyfitter_cfg.c **** 			{0xD8u, 0x04u},
 453:Generated_Source\PSoC4/cyfitter_cfg.c **** 			{0xD9u, 0x04u},
 454:Generated_Source\PSoC4/cyfitter_cfg.c **** 			{0xDAu, 0x04u},
 455:Generated_Source\PSoC4/cyfitter_cfg.c **** 			{0xDBu, 0x04u},
 456:Generated_Source\PSoC4/cyfitter_cfg.c **** 			{0xDFu, 0x01u},
 457:Generated_Source\PSoC4/cyfitter_cfg.c **** 			{0xE0u, 0x40u},
 458:Generated_Source\PSoC4/cyfitter_cfg.c **** 			{0xE2u, 0xC0u},
 459:Generated_Source\PSoC4/cyfitter_cfg.c **** 			{0xE4u, 0x40u},
 460:Generated_Source\PSoC4/cyfitter_cfg.c **** 			{0xE5u, 0x40u},
 461:Generated_Source\PSoC4/cyfitter_cfg.c **** 			{0xE6u, 0xC0u},
 462:Generated_Source\PSoC4/cyfitter_cfg.c **** 			{0xE8u, 0xC0u},
 463:Generated_Source\PSoC4/cyfitter_cfg.c **** 			{0xEAu, 0xC0u},
 464:Generated_Source\PSoC4/cyfitter_cfg.c **** 			{0xECu, 0xC0u},
 465:Generated_Source\PSoC4/cyfitter_cfg.c **** 			{0xEEu, 0xC0u},
 466:Generated_Source\PSoC4/cyfitter_cfg.c **** 			{0x00u, 0x10u},
 467:Generated_Source\PSoC4/cyfitter_cfg.c **** 			{0x10u, 0x20u},
 468:Generated_Source\PSoC4/cyfitter_cfg.c **** 			{0x18u, 0x10u},
 469:Generated_Source\PSoC4/cyfitter_cfg.c **** 			{0x19u, 0x40u},
 470:Generated_Source\PSoC4/cyfitter_cfg.c **** 			{0x1Du, 0x20u},
 471:Generated_Source\PSoC4/cyfitter_cfg.c **** 			{0x1Fu, 0x40u},
 472:Generated_Source\PSoC4/cyfitter_cfg.c **** 			{0x21u, 0x02u},
 473:Generated_Source\PSoC4/cyfitter_cfg.c **** 			{0x22u, 0x04u},
 474:Generated_Source\PSoC4/cyfitter_cfg.c **** 			{0x27u, 0x40u},
 475:Generated_Source\PSoC4/cyfitter_cfg.c **** 			{0x32u, 0x02u},
 476:Generated_Source\PSoC4/cyfitter_cfg.c **** 			{0x33u, 0x40u},
 477:Generated_Source\PSoC4/cyfitter_cfg.c **** 			{0x3Cu, 0x02u},
 478:Generated_Source\PSoC4/cyfitter_cfg.c **** 			{0x43u, 0x40u},
 479:Generated_Source\PSoC4/cyfitter_cfg.c **** 			{0x47u, 0x40u},
 480:Generated_Source\PSoC4/cyfitter_cfg.c **** 			{0x48u, 0x20u},
 481:Generated_Source\PSoC4/cyfitter_cfg.c **** 			{0x49u, 0x01u},
 482:Generated_Source\PSoC4/cyfitter_cfg.c **** 			{0x4Au, 0x02u},
 483:Generated_Source\PSoC4/cyfitter_cfg.c **** 			{0x4Eu, 0x02u},
 484:Generated_Source\PSoC4/cyfitter_cfg.c **** 			{0x52u, 0x02u},
 485:Generated_Source\PSoC4/cyfitter_cfg.c **** 			{0x59u, 0x41u},
 486:Generated_Source\PSoC4/cyfitter_cfg.c **** 			{0x5Au, 0x08u},
 487:Generated_Source\PSoC4/cyfitter_cfg.c **** 			{0x63u, 0x80u},
 488:Generated_Source\PSoC4/cyfitter_cfg.c **** 			{0x74u, 0x01u},
 489:Generated_Source\PSoC4/cyfitter_cfg.c **** 			{0x83u, 0x40u},
 490:Generated_Source\PSoC4/cyfitter_cfg.c **** 			{0x85u, 0x02u},
 491:Generated_Source\PSoC4/cyfitter_cfg.c **** 			{0x87u, 0x40u},
 492:Generated_Source\PSoC4/cyfitter_cfg.c **** 			{0x89u, 0x20u},
 493:Generated_Source\PSoC4/cyfitter_cfg.c **** 			{0xC0u, 0x02u},
 494:Generated_Source\PSoC4/cyfitter_cfg.c **** 			{0xC4u, 0x04u},
 495:Generated_Source\PSoC4/cyfitter_cfg.c **** 			{0xCCu, 0x09u},
 496:Generated_Source\PSoC4/cyfitter_cfg.c **** 			{0xCEu, 0x80u},
 497:Generated_Source\PSoC4/cyfitter_cfg.c **** 			{0xD0u, 0x18u},
 498:Generated_Source\PSoC4/cyfitter_cfg.c **** 			{0xD2u, 0x18u},
 499:Generated_Source\PSoC4/cyfitter_cfg.c **** 			{0xD6u, 0x0Bu},
 500:Generated_Source\PSoC4/cyfitter_cfg.c **** 			{0xD8u, 0x01u},
 501:Generated_Source\PSoC4/cyfitter_cfg.c **** 			{0x6Bu, 0x80u},
 502:Generated_Source\PSoC4/cyfitter_cfg.c **** 			{0x6Fu, 0x10u},
 503:Generated_Source\PSoC4/cyfitter_cfg.c **** 			{0xDAu, 0x80u},
 504:Generated_Source\PSoC4/cyfitter_cfg.c **** 			{0xDCu, 0x20u},
 505:Generated_Source\PSoC4/cyfitter_cfg.c **** 			{0x5Fu, 0x10u},
ARM GAS  C:\Users\Jeremias\AppData\Local\Temp\cc50Dy6c.s 			page 17


 506:Generated_Source\PSoC4/cyfitter_cfg.c **** 			{0x63u, 0x10u},
 507:Generated_Source\PSoC4/cyfitter_cfg.c **** 			{0x83u, 0x10u},
 508:Generated_Source\PSoC4/cyfitter_cfg.c **** 			{0x87u, 0x90u},
 509:Generated_Source\PSoC4/cyfitter_cfg.c **** 			{0x9Fu, 0x90u},
 510:Generated_Source\PSoC4/cyfitter_cfg.c **** 			{0xD6u, 0x20u},
 511:Generated_Source\PSoC4/cyfitter_cfg.c **** 			{0xD8u, 0x40u},
 512:Generated_Source\PSoC4/cyfitter_cfg.c **** 			{0xE2u, 0x70u},
 513:Generated_Source\PSoC4/cyfitter_cfg.c **** 			{0x74u, 0x10u},
 514:Generated_Source\PSoC4/cyfitter_cfg.c **** 			{0xDCu, 0x02u},
 515:Generated_Source\PSoC4/cyfitter_cfg.c **** 			{0x88u, 0x10u},
 516:Generated_Source\PSoC4/cyfitter_cfg.c **** 			{0xA4u, 0x10u},
 517:Generated_Source\PSoC4/cyfitter_cfg.c **** 			{0xE4u, 0x01u},
 518:Generated_Source\PSoC4/cyfitter_cfg.c **** 			{0x01u, 0x01u},
 519:Generated_Source\PSoC4/cyfitter_cfg.c **** 			{0x10u, 0x01u},
 520:Generated_Source\PSoC4/cyfitter_cfg.c **** 		};
 521:Generated_Source\PSoC4/cyfitter_cfg.c **** 
 522:Generated_Source\PSoC4/cyfitter_cfg.c **** 
 523:Generated_Source\PSoC4/cyfitter_cfg.c **** 
 524:Generated_Source\PSoC4/cyfitter_cfg.c **** 		CYPACKED typedef struct {
 525:Generated_Source\PSoC4/cyfitter_cfg.c **** 			void CYFAR *address;
 526:Generated_Source\PSoC4/cyfitter_cfg.c **** 			uint16 size;
 527:Generated_Source\PSoC4/cyfitter_cfg.c **** 		} CYPACKED_ATTR cfg_memset_t;
 528:Generated_Source\PSoC4/cyfitter_cfg.c **** 
 529:Generated_Source\PSoC4/cyfitter_cfg.c **** 		static const cfg_memset_t CYCODE cfg_memset_list[] = {
 530:Generated_Source\PSoC4/cyfitter_cfg.c **** 			/* address, size */
 531:Generated_Source\PSoC4/cyfitter_cfg.c **** 			{(void CYFAR *)(CYDEV_UDB_P0_U0_BASE), 1024u},
 532:Generated_Source\PSoC4/cyfitter_cfg.c **** 			{(void CYFAR *)(CYDEV_UDB_DSI0_BASE), 1024u},
 533:Generated_Source\PSoC4/cyfitter_cfg.c **** 		};
 534:Generated_Source\PSoC4/cyfitter_cfg.c **** 
 535:Generated_Source\PSoC4/cyfitter_cfg.c **** 		uint8 CYDATA i;
 536:Generated_Source\PSoC4/cyfitter_cfg.c **** 
 537:Generated_Source\PSoC4/cyfitter_cfg.c **** 		/* Zero out critical memory blocks before beginning configuration */
 538:Generated_Source\PSoC4/cyfitter_cfg.c **** 		for (i = 0u; i < (sizeof(cfg_memset_list)/sizeof(cfg_memset_list[0])); i++)
 402              		.loc 1 538 0
 403 0076 0024     		movs	r4, #0
 404 0078 0FE0     		b	.L30
 405              	.LVL30:
 406              	.L31:
 407              	.LBB4:
 539:Generated_Source\PSoC4/cyfitter_cfg.c **** 		{
 540:Generated_Source\PSoC4/cyfitter_cfg.c **** 			const cfg_memset_t CYCODE * CYDATA ms = &cfg_memset_list[i];
 541:Generated_Source\PSoC4/cyfitter_cfg.c **** 			CYMEMZERO(ms->address, (size_t)(uint32)(ms->size));
 408              		.loc 1 541 0 discriminator 3
 409 007a 2A48     		ldr	r0, .L32+4
 410 007c 6200     		lsls	r2, r4, #1
 411 007e 1319     		adds	r3, r2, r4
 412 0080 5900     		lsls	r1, r3, #1
 413 0082 0B00     		movs	r3, r1
 414 0084 4118     		adds	r1, r0, r1
 415 0086 8988     		ldrh	r1, [r1, #4]
 416 0088 1A5A     		ldrh	r2, [r3, r0]
 417 008a C318     		adds	r3, r0, r3
 418 008c 5888     		ldrh	r0, [r3, #2]
 419 008e 0004     		lsls	r0, r0, #16
 420 0090 1043     		orrs	r0, r2
 421 0092 FFF7FEFF 		bl	CYMEMZERO
 422              	.LVL31:
ARM GAS  C:\Users\Jeremias\AppData\Local\Temp\cc50Dy6c.s 			page 18


 423              	.LBE4:
 538:Generated_Source\PSoC4/cyfitter_cfg.c **** 		{
 424              		.loc 1 538 0 discriminator 3
 425 0096 0134     		adds	r4, r4, #1
 426              	.LVL32:
 427 0098 E4B2     		uxtb	r4, r4
 428              	.LVL33:
 429              	.L30:
 538:Generated_Source\PSoC4/cyfitter_cfg.c **** 		{
 430              		.loc 1 538 0 is_stmt 0 discriminator 1
 431 009a 012C     		cmp	r4, #1
 432 009c EDD9     		bls	.L31
 542:Generated_Source\PSoC4/cyfitter_cfg.c **** 		}
 543:Generated_Source\PSoC4/cyfitter_cfg.c **** 
 544:Generated_Source\PSoC4/cyfitter_cfg.c **** 		cfg_write_bytes32(cy_cfg_addr_table, cy_cfg_data_table);
 433              		.loc 1 544 0 is_stmt 1
 434 009e 2149     		ldr	r1, .L32+4
 435 00a0 0C31     		adds	r1, r1, #12
 436 00a2 2148     		ldr	r0, .L32+8
 437 00a4 7C30     		adds	r0, r0, #124
 438 00a6 FFF7FEFF 		bl	cfg_write_bytes32
 439              	.LVL34:
 545:Generated_Source\PSoC4/cyfitter_cfg.c **** 
 546:Generated_Source\PSoC4/cyfitter_cfg.c **** 		/* FORCED_HSIOM Starting address: CYDEV_HSIOM_PORT_SEL3 */
 547:Generated_Source\PSoC4/cyfitter_cfg.c **** 		CY_SET_REG32((void *)(CYREG_HSIOM_PORT_SEL3), 0x00000000u);
 440              		.loc 1 547 0
 441 00aa 0023     		movs	r3, #0
 442 00ac 1F4A     		ldr	r2, .L32+12
 443 00ae 1360     		str	r3, [r2]
 548:Generated_Source\PSoC4/cyfitter_cfg.c **** 
 549:Generated_Source\PSoC4/cyfitter_cfg.c **** 		/* IOPINS0_3 Starting address: CYDEV_PRT3_PC */
 550:Generated_Source\PSoC4/cyfitter_cfg.c **** 		CY_SET_REG32((void *)(CYREG_PRT3_PC), 0x00000000u);
 444              		.loc 1 550 0
 445 00b0 1F4A     		ldr	r2, .L32+16
 446 00b2 1360     		str	r3, [r2]
 551:Generated_Source\PSoC4/cyfitter_cfg.c **** 
 552:Generated_Source\PSoC4/cyfitter_cfg.c **** 		/* UDB_PA_0 Starting address: CYDEV_UDB_PA0_BASE */
 553:Generated_Source\PSoC4/cyfitter_cfg.c **** 		CY_SET_REG32((void *)(CYDEV_UDB_PA0_BASE), 0x00990000u);
 447              		.loc 1 553 0
 448 00b4 9923     		movs	r3, #153
 449 00b6 1B04     		lsls	r3, r3, #16
 450 00b8 1E4A     		ldr	r2, .L32+20
 451 00ba 1360     		str	r3, [r2]
 554:Generated_Source\PSoC4/cyfitter_cfg.c **** 
 555:Generated_Source\PSoC4/cyfitter_cfg.c **** 		/* UDB_PA_1 Starting address: CYDEV_UDB_PA1_BASE */
 556:Generated_Source\PSoC4/cyfitter_cfg.c **** 		CY_SET_REG32((void *)(CYDEV_UDB_PA1_BASE), 0x00990000u);
 452              		.loc 1 556 0
 453 00bc 1E4A     		ldr	r2, .L32+24
 454 00be 1360     		str	r3, [r2]
 557:Generated_Source\PSoC4/cyfitter_cfg.c **** 		CY_SET_REG32((void *)(CYREG_UDB_PA1_CFG8), 0x02300000u);
 455              		.loc 1 557 0
 456 00c0 8C21     		movs	r1, #140
 457 00c2 8904     		lsls	r1, r1, #18
 458 00c4 1D4A     		ldr	r2, .L32+28
 459 00c6 1160     		str	r1, [r2]
 558:Generated_Source\PSoC4/cyfitter_cfg.c **** 
 559:Generated_Source\PSoC4/cyfitter_cfg.c **** 		/* UDB_PA_2 Starting address: CYDEV_UDB_PA2_BASE */
ARM GAS  C:\Users\Jeremias\AppData\Local\Temp\cc50Dy6c.s 			page 19


 560:Generated_Source\PSoC4/cyfitter_cfg.c **** 		CY_SET_REG32((void *)(CYDEV_UDB_PA2_BASE), 0x00990000u);
 460              		.loc 1 560 0
 461 00c8 1D4A     		ldr	r2, .L32+32
 462 00ca 1360     		str	r3, [r2]
 561:Generated_Source\PSoC4/cyfitter_cfg.c **** 
 562:Generated_Source\PSoC4/cyfitter_cfg.c **** 		/* INT_SELECT Starting address: CYDEV_CPUSS_INTR_SELECT */
 563:Generated_Source\PSoC4/cyfitter_cfg.c **** 		CY_SET_REG32((void *)(CYREG_CPUSS_INTR_SELECT), 0x00000006u);
 463              		.loc 1 563 0
 464 00cc 0623     		movs	r3, #6
 465 00ce 1D4A     		ldr	r2, .L32+36
 466 00d0 1360     		str	r3, [r2]
 564:Generated_Source\PSoC4/cyfitter_cfg.c **** 
 565:Generated_Source\PSoC4/cyfitter_cfg.c **** 		/* INT_CONFIG Starting address: CYDEV_UDB_INT_CFG */
 566:Generated_Source\PSoC4/cyfitter_cfg.c **** 		CY_SET_REG32((void *)(CYREG_UDB_INT_CFG), 0x00000006u);
 467              		.loc 1 566 0
 468 00d2 1D4A     		ldr	r2, .L32+40
 469 00d4 1360     		str	r3, [r2]
 567:Generated_Source\PSoC4/cyfitter_cfg.c **** 
 568:Generated_Source\PSoC4/cyfitter_cfg.c **** 		/* Enable UDB array and digital routing */
 569:Generated_Source\PSoC4/cyfitter_cfg.c **** 		CY_SET_XTND_REG8((void *)CYREG_UDB_UDBIF_WAIT_CFG, (uint8)((CY_GET_XTND_REG8((void *)CYREG_UDB_UD
 470              		.loc 1 569 0
 471 00d6 1D48     		ldr	r0, .L32+44
 472 00d8 0378     		ldrb	r3, [r0]
 473 00da 3C22     		movs	r2, #60
 474 00dc 9343     		bics	r3, r2
 475 00de 1421     		movs	r1, #20
 476 00e0 1422     		movs	r2, #20
 477 00e2 1343     		orrs	r3, r2
 478 00e4 DBB2     		uxtb	r3, r3
 479 00e6 0370     		strb	r3, [r0]
 570:Generated_Source\PSoC4/cyfitter_cfg.c **** 		CY_SET_XTND_REG8((void *)CYREG_UDB_UDBIF_BANK_CTL, (uint8)(CY_GET_XTND_REG8((void *)CYREG_UDB_UDB
 480              		.loc 1 570 0
 481 00e8 194A     		ldr	r2, .L32+48
 482 00ea 1078     		ldrb	r0, [r2]
 483 00ec 1623     		movs	r3, #22
 484 00ee 0343     		orrs	r3, r0
 485 00f0 DBB2     		uxtb	r3, r3
 486 00f2 1370     		strb	r3, [r2]
 487              	.LBE3:
 571:Generated_Source\PSoC4/cyfitter_cfg.c **** 	}
 572:Generated_Source\PSoC4/cyfitter_cfg.c **** 
 573:Generated_Source\PSoC4/cyfitter_cfg.c **** 	/* Perform second pass device configuration. These items must be configured in specific order afte
 574:Generated_Source\PSoC4/cyfitter_cfg.c **** 	/* IOPINS0_0 Starting address: CYDEV_PRT0_BASE */
 575:Generated_Source\PSoC4/cyfitter_cfg.c **** 	CY_SET_REG32((void *)(CYDEV_PRT0_BASE), 0x00000080u);
 488              		.loc 1 575 0
 489 00f4 8022     		movs	r2, #128
 490 00f6 174B     		ldr	r3, .L32+52
 491 00f8 1A60     		str	r2, [r3]
 576:Generated_Source\PSoC4/cyfitter_cfg.c **** 	CY_SET_REG32((void *)(CYREG_PRT0_PC), 0x005B6DB6u);
 492              		.loc 1 576 0
 493 00fa 174A     		ldr	r2, .L32+56
 494 00fc 174B     		ldr	r3, .L32+60
 495 00fe 1A60     		str	r2, [r3]
 577:Generated_Source\PSoC4/cyfitter_cfg.c **** 	CY_SET_REG32((void *)(CYREG_PRT0_INTCFG), 0x00008000u);
 496              		.loc 1 577 0
 497 0100 8022     		movs	r2, #128
 498 0102 1202     		lsls	r2, r2, #8
ARM GAS  C:\Users\Jeremias\AppData\Local\Temp\cc50Dy6c.s 			page 20


 499 0104 164B     		ldr	r3, .L32+64
 500 0106 1A60     		str	r2, [r3]
 578:Generated_Source\PSoC4/cyfitter_cfg.c **** 
 579:Generated_Source\PSoC4/cyfitter_cfg.c **** 	/* IOPINS0_1 Starting address: CYDEV_PRT1_BASE */
 580:Generated_Source\PSoC4/cyfitter_cfg.c **** 	CY_SET_REG32((void *)(CYDEV_PRT1_BASE), 0x00000014u);
 501              		.loc 1 580 0
 502 0108 164B     		ldr	r3, .L32+68
 503 010a 1960     		str	r1, [r3]
 581:Generated_Source\PSoC4/cyfitter_cfg.c **** 	CY_SET_REG32((void *)(CYREG_PRT1_PC2), 0x00000014u);
 504              		.loc 1 581 0
 505 010c 164B     		ldr	r3, .L32+72
 506 010e 1960     		str	r1, [r3]
 582:Generated_Source\PSoC4/cyfitter_cfg.c **** 
 583:Generated_Source\PSoC4/cyfitter_cfg.c **** 	/* IOPINS0_2 Starting address: CYDEV_PRT2_BASE */
 584:Generated_Source\PSoC4/cyfitter_cfg.c **** 	CY_SET_REG32((void *)(CYDEV_PRT2_BASE), 0x00000007u);
 507              		.loc 1 584 0
 508 0110 0723     		movs	r3, #7
 509 0112 164A     		ldr	r2, .L32+76
 510 0114 1360     		str	r3, [r2]
 585:Generated_Source\PSoC4/cyfitter_cfg.c **** 	CY_SET_REG32((void *)(CYREG_PRT2_PC2), 0x00000007u);
 511              		.loc 1 585 0
 512 0116 164A     		ldr	r2, .L32+80
 513 0118 1360     		str	r3, [r2]
 586:Generated_Source\PSoC4/cyfitter_cfg.c **** 
 587:Generated_Source\PSoC4/cyfitter_cfg.c **** 
 588:Generated_Source\PSoC4/cyfitter_cfg.c **** 	/* Setup clocks based on selections from Clock DWR */
 589:Generated_Source\PSoC4/cyfitter_cfg.c **** 	ClockSetup();
 514              		.loc 1 589 0
 515 011a FFF771FF 		bl	ClockSetup
 516              	.LVL35:
 590:Generated_Source\PSoC4/cyfitter_cfg.c **** 
 591:Generated_Source\PSoC4/cyfitter_cfg.c **** 	/* Perform basic analog initialization to defaults */
 592:Generated_Source\PSoC4/cyfitter_cfg.c **** 	AnalogSetDefault();
 593:Generated_Source\PSoC4/cyfitter_cfg.c **** 
 594:Generated_Source\PSoC4/cyfitter_cfg.c **** }
 517              		.loc 1 594 0
 518              		@ sp needed
 519              	.LVL36:
 520 011e 10BD     		pop	{r4, pc}
 521              	.L33:
 522              		.align	2
 523              	.L32:
 524 0120 1C700F40 		.word	1074753564
 525 0124 00000000 		.word	.LANCHOR0
 526 0128 80000000 		.word	.LANCHOR1
 527 012c 0C000140 		.word	1073807372
 528 0130 08030440 		.word	1074004744
 529 0134 00500F40 		.word	1074745344
 530 0138 10500F40 		.word	1074745360
 531 013c 18500F40 		.word	1074745368
 532 0140 20500F40 		.word	1074745376
 533 0144 20000040 		.word	1073741856
 534 0148 00800F40 		.word	1074757632
 535 014c 01700F40 		.word	1074753537
 536 0150 00700F40 		.word	1074753536
 537 0154 00000440 		.word	1074003968
 538 0158 B66D5B00 		.word	5991862
ARM GAS  C:\Users\Jeremias\AppData\Local\Temp\cc50Dy6c.s 			page 21


 539 015c 08000440 		.word	1074003976
 540 0160 0C000440 		.word	1074003980
 541 0164 00010440 		.word	1074004224
 542 0168 18010440 		.word	1074004248
 543 016c 00020440 		.word	1074004480
 544 0170 18020440 		.word	1074004504
 545              		.cfi_endproc
 546              	.LFE9:
 547              		.size	cyfitter_cfg, .-cyfitter_cfg
 548              		.section	.rodata
 549              		.align	2
 550              		.set	.LANCHOR0,. + 0
 551              		.set	.LANCHOR1,. + 128
 552              		.type	cfg_memset_list.4894, %object
 553              		.size	cfg_memset_list.4894, 12
 554              	cfg_memset_list.4894:
 555 0000 00300F40 		.word	1074737152
 556 0004 0004     		.short	1024
 557 0006 00400F40 		.4byte	1074741248
 558 000a 0004     		.short	1024
 559              		.type	cy_cfg_data_table.4889, %object
 560              		.size	cy_cfg_data_table.4889, 238
 561              	cy_cfg_data_table.4889:
 562 000c 83       		.byte	-125
 563 000d 0D       		.byte	13
 564 000e 03       		.byte	3
 565 000f 01       		.byte	1
 566 0010 31       		.byte	49
 567 0011 01       		.byte	1
 568 0012 38       		.byte	56
 569 0013 A0       		.byte	-96
 570 0014 3E       		.byte	62
 571 0015 50       		.byte	80
 572 0016 40       		.byte	64
 573 0017 10       		.byte	16
 574 0018 41       		.byte	65
 575 0019 05       		.byte	5
 576 001a 49       		.byte	73
 577 001b FF       		.byte	-1
 578 001c 4A       		.byte	74
 579 001d FF       		.byte	-1
 580 001e 4B       		.byte	75
 581 001f FF       		.byte	-1
 582 0020 4D       		.byte	77
 583 0021 A0       		.byte	-96
 584 0022 4F       		.byte	79
 585 0023 04       		.byte	4
 586 0024 50       		.byte	80
 587 0025 18       		.byte	24
 588 0026 52       		.byte	82
 589 0027 80       		.byte	-128
 590 0028 58       		.byte	88
 591 0029 04       		.byte	4
 592 002a 59       		.byte	89
 593 002b 04       		.byte	4
 594 002c 5A       		.byte	90
 595 002d 04       		.byte	4
ARM GAS  C:\Users\Jeremias\AppData\Local\Temp\cc50Dy6c.s 			page 22


 596 002e 5B       		.byte	91
 597 002f 04       		.byte	4
 598 0030 5F       		.byte	95
 599 0031 01       		.byte	1
 600 0032 60       		.byte	96
 601 0033 40       		.byte	64
 602 0034 62       		.byte	98
 603 0035 C0       		.byte	-64
 604 0036 64       		.byte	100
 605 0037 40       		.byte	64
 606 0038 65       		.byte	101
 607 0039 40       		.byte	64
 608 003a 66       		.byte	102
 609 003b C0       		.byte	-64
 610 003c 68       		.byte	104
 611 003d C0       		.byte	-64
 612 003e 6A       		.byte	106
 613 003f C0       		.byte	-64
 614 0040 6C       		.byte	108
 615 0041 C0       		.byte	-64
 616 0042 6E       		.byte	110
 617 0043 C0       		.byte	-64
 618 0044 88       		.byte	-120
 619 0045 02       		.byte	2
 620 0046 93       		.byte	-109
 621 0047 01       		.byte	1
 622 0048 9F       		.byte	-97
 623 0049 01       		.byte	1
 624 004a A6       		.byte	-90
 625 004b 03       		.byte	3
 626 004c B1       		.byte	-79
 627 004d 01       		.byte	1
 628 004e B2       		.byte	-78
 629 004f 01       		.byte	1
 630 0050 B3       		.byte	-77
 631 0051 01       		.byte	1
 632 0052 B6       		.byte	-74
 633 0053 02       		.byte	2
 634 0054 BF       		.byte	-65
 635 0055 04       		.byte	4
 636 0056 C0       		.byte	-64
 637 0057 10       		.byte	16
 638 0058 C1       		.byte	-63
 639 0059 05       		.byte	5
 640 005a C5       		.byte	-59
 641 005b D1       		.byte	-47
 642 005c C7       		.byte	-57
 643 005d 20       		.byte	32
 644 005e C8       		.byte	-56
 645 005f 23       		.byte	35
 646 0060 C9       		.byte	-55
 647 0061 FF       		.byte	-1
 648 0062 CA       		.byte	-54
 649 0063 FF       		.byte	-1
 650 0064 CB       		.byte	-53
 651 0065 FF       		.byte	-1
 652 0066 CD       		.byte	-51
ARM GAS  C:\Users\Jeremias\AppData\Local\Temp\cc50Dy6c.s 			page 23


 653 0067 AF       		.byte	-81
 654 0068 CE       		.byte	-50
 655 0069 0F       		.byte	15
 656 006a CF       		.byte	-49
 657 006b 04       		.byte	4
 658 006c D0       		.byte	-48
 659 006d 18       		.byte	24
 660 006e D4       		.byte	-44
 661 006f 05       		.byte	5
 662 0070 D6       		.byte	-42
 663 0071 04       		.byte	4
 664 0072 D8       		.byte	-40
 665 0073 04       		.byte	4
 666 0074 D9       		.byte	-39
 667 0075 04       		.byte	4
 668 0076 DA       		.byte	-38
 669 0077 04       		.byte	4
 670 0078 DB       		.byte	-37
 671 0079 04       		.byte	4
 672 007a DF       		.byte	-33
 673 007b 01       		.byte	1
 674 007c E0       		.byte	-32
 675 007d 40       		.byte	64
 676 007e E2       		.byte	-30
 677 007f C0       		.byte	-64
 678 0080 E4       		.byte	-28
 679 0081 40       		.byte	64
 680 0082 E5       		.byte	-27
 681 0083 40       		.byte	64
 682 0084 E6       		.byte	-26
 683 0085 C0       		.byte	-64
 684 0086 E8       		.byte	-24
 685 0087 C0       		.byte	-64
 686 0088 EA       		.byte	-22
 687 0089 C0       		.byte	-64
 688 008a EC       		.byte	-20
 689 008b C0       		.byte	-64
 690 008c EE       		.byte	-18
 691 008d C0       		.byte	-64
 692 008e 00       		.byte	0
 693 008f 10       		.byte	16
 694 0090 10       		.byte	16
 695 0091 20       		.byte	32
 696 0092 18       		.byte	24
 697 0093 10       		.byte	16
 698 0094 19       		.byte	25
 699 0095 40       		.byte	64
 700 0096 1D       		.byte	29
 701 0097 20       		.byte	32
 702 0098 1F       		.byte	31
 703 0099 40       		.byte	64
 704 009a 21       		.byte	33
 705 009b 02       		.byte	2
 706 009c 22       		.byte	34
 707 009d 04       		.byte	4
 708 009e 27       		.byte	39
 709 009f 40       		.byte	64
ARM GAS  C:\Users\Jeremias\AppData\Local\Temp\cc50Dy6c.s 			page 24


 710 00a0 32       		.byte	50
 711 00a1 02       		.byte	2
 712 00a2 33       		.byte	51
 713 00a3 40       		.byte	64
 714 00a4 3C       		.byte	60
 715 00a5 02       		.byte	2
 716 00a6 43       		.byte	67
 717 00a7 40       		.byte	64
 718 00a8 47       		.byte	71
 719 00a9 40       		.byte	64
 720 00aa 48       		.byte	72
 721 00ab 20       		.byte	32
 722 00ac 49       		.byte	73
 723 00ad 01       		.byte	1
 724 00ae 4A       		.byte	74
 725 00af 02       		.byte	2
 726 00b0 4E       		.byte	78
 727 00b1 02       		.byte	2
 728 00b2 52       		.byte	82
 729 00b3 02       		.byte	2
 730 00b4 59       		.byte	89
 731 00b5 41       		.byte	65
 732 00b6 5A       		.byte	90
 733 00b7 08       		.byte	8
 734 00b8 63       		.byte	99
 735 00b9 80       		.byte	-128
 736 00ba 74       		.byte	116
 737 00bb 01       		.byte	1
 738 00bc 83       		.byte	-125
 739 00bd 40       		.byte	64
 740 00be 85       		.byte	-123
 741 00bf 02       		.byte	2
 742 00c0 87       		.byte	-121
 743 00c1 40       		.byte	64
 744 00c2 89       		.byte	-119
 745 00c3 20       		.byte	32
 746 00c4 C0       		.byte	-64
 747 00c5 02       		.byte	2
 748 00c6 C4       		.byte	-60
 749 00c7 04       		.byte	4
 750 00c8 CC       		.byte	-52
 751 00c9 09       		.byte	9
 752 00ca CE       		.byte	-50
 753 00cb 80       		.byte	-128
 754 00cc D0       		.byte	-48
 755 00cd 18       		.byte	24
 756 00ce D2       		.byte	-46
 757 00cf 18       		.byte	24
 758 00d0 D6       		.byte	-42
 759 00d1 0B       		.byte	11
 760 00d2 D8       		.byte	-40
 761 00d3 01       		.byte	1
 762 00d4 6B       		.byte	107
 763 00d5 80       		.byte	-128
 764 00d6 6F       		.byte	111
 765 00d7 10       		.byte	16
 766 00d8 DA       		.byte	-38
ARM GAS  C:\Users\Jeremias\AppData\Local\Temp\cc50Dy6c.s 			page 25


 767 00d9 80       		.byte	-128
 768 00da DC       		.byte	-36
 769 00db 20       		.byte	32
 770 00dc 5F       		.byte	95
 771 00dd 10       		.byte	16
 772 00de 63       		.byte	99
 773 00df 10       		.byte	16
 774 00e0 83       		.byte	-125
 775 00e1 10       		.byte	16
 776 00e2 87       		.byte	-121
 777 00e3 90       		.byte	-112
 778 00e4 9F       		.byte	-97
 779 00e5 90       		.byte	-112
 780 00e6 D6       		.byte	-42
 781 00e7 20       		.byte	32
 782 00e8 D8       		.byte	-40
 783 00e9 40       		.byte	64
 784 00ea E2       		.byte	-30
 785 00eb 70       		.byte	112
 786 00ec 74       		.byte	116
 787 00ed 10       		.byte	16
 788 00ee DC       		.byte	-36
 789 00ef 02       		.byte	2
 790 00f0 88       		.byte	-120
 791 00f1 10       		.byte	16
 792 00f2 A4       		.byte	-92
 793 00f3 10       		.byte	16
 794 00f4 E4       		.byte	-28
 795 00f5 01       		.byte	1
 796 00f6 01       		.byte	1
 797 00f7 01       		.byte	1
 798 00f8 10       		.byte	16
 799 00f9 01       		.byte	1
 800 00fa 0000     		.space	2
 801              		.type	cy_cfg_addr_table.4888, %object
 802              		.size	cy_cfg_addr_table.4888, 32
 803              	cy_cfg_addr_table.4888:
 804 00fc 01000F40 		.word	1074724865
 805 0100 40320F40 		.word	1074737728
 806 0104 23330F40 		.word	1074737955
 807 0108 04400F40 		.word	1074741252
 808 010c 08410F40 		.word	1074741512
 809 0110 02420F40 		.word	1074741762
 810 0114 03430F40 		.word	1074742019
 811 0118 02600F40 		.word	1074749442
 812              		.text
 813              	.Letext0:
 814              		.file 2 "c:\\program files (x86)\\cypress\\psoc creator\\4.4\\psoc creator\\import\\gnu\\arm\\5.4.
 815              		.file 3 "Generated_Source\\PSoC4\\cytypes.h"
 816              		.file 4 "Generated_Source\\PSoC4\\CyLib.h"