ARM GAS  C:\Users\Jeremias\AppData\Local\Temp\ccMyQl1F.s 			page 1


   1              		.syntax unified
   2              		.cpu cortex-m0
   3              		.fpu softvfp
   4              		.eabi_attribute 20, 1
   5              		.eabi_attribute 21, 1
   6              		.eabi_attribute 23, 3
   7              		.eabi_attribute 24, 1
   8              		.eabi_attribute 25, 1
   9              		.eabi_attribute 26, 1
  10              		.eabi_attribute 30, 1
  11              		.eabi_attribute 34, 0
  12              		.eabi_attribute 18, 4
  13              		.thumb
  14              		.syntax unified
  15              		.file	"ADC_1.c"
  16              		.text
  17              	.Ltext0:
  18              		.cfi_sections	.debug_frame
  19              		.section	.text.ADC_1_Init,"ax",%progbits
  20              		.align	2
  21              		.global	ADC_1_Init
  22              		.code	16
  23              		.thumb_func
  24              		.type	ADC_1_Init, %function
  25              	ADC_1_Init:
  26              	.LFB1:
  27              		.file 1 "Generated_Source\\PSoC4\\ADC_1.c"
   1:Generated_Source\PSoC4/ADC_1.c **** /*******************************************************************************
   2:Generated_Source\PSoC4/ADC_1.c **** * File Name: ADC_1.c
   3:Generated_Source\PSoC4/ADC_1.c **** * Version 2.50
   4:Generated_Source\PSoC4/ADC_1.c **** *
   5:Generated_Source\PSoC4/ADC_1.c **** * Description:
   6:Generated_Source\PSoC4/ADC_1.c **** *  This file provides the source code to the API for the Sequencing Successive
   7:Generated_Source\PSoC4/ADC_1.c **** *  Approximation ADC Component Component.
   8:Generated_Source\PSoC4/ADC_1.c **** *
   9:Generated_Source\PSoC4/ADC_1.c **** * Note:
  10:Generated_Source\PSoC4/ADC_1.c **** *
  11:Generated_Source\PSoC4/ADC_1.c **** ********************************************************************************
  12:Generated_Source\PSoC4/ADC_1.c **** * Copyright 2008-2017, Cypress Semiconductor Corporation.  All rights reserved.
  13:Generated_Source\PSoC4/ADC_1.c **** * You may use this file only in accordance with the license, terms, conditions,
  14:Generated_Source\PSoC4/ADC_1.c **** * disclaimers, and limitations in the end user license agreement accompanying
  15:Generated_Source\PSoC4/ADC_1.c **** * the software package with which this file was provided.
  16:Generated_Source\PSoC4/ADC_1.c **** *******************************************************************************/
  17:Generated_Source\PSoC4/ADC_1.c **** 
  18:Generated_Source\PSoC4/ADC_1.c **** #include "ADC_1.h"
  19:Generated_Source\PSoC4/ADC_1.c **** 
  20:Generated_Source\PSoC4/ADC_1.c **** 
  21:Generated_Source\PSoC4/ADC_1.c **** /***************************************
  22:Generated_Source\PSoC4/ADC_1.c **** * Global data allocation
  23:Generated_Source\PSoC4/ADC_1.c **** ***************************************/
  24:Generated_Source\PSoC4/ADC_1.c **** uint8 ADC_1_initVar = 0u;
  25:Generated_Source\PSoC4/ADC_1.c **** volatile int16 ADC_1_offset[ADC_1_TOTAL_CHANNELS_NUM];
  26:Generated_Source\PSoC4/ADC_1.c **** volatile int32 ADC_1_countsPer10Volt[ADC_1_TOTAL_CHANNELS_NUM];   /* Gain compensation */
  27:Generated_Source\PSoC4/ADC_1.c **** 
  28:Generated_Source\PSoC4/ADC_1.c **** 
  29:Generated_Source\PSoC4/ADC_1.c **** /***************************************
  30:Generated_Source\PSoC4/ADC_1.c **** * Local data allocation
ARM GAS  C:\Users\Jeremias\AppData\Local\Temp\ccMyQl1F.s 			page 2


  31:Generated_Source\PSoC4/ADC_1.c **** ***************************************/
  32:Generated_Source\PSoC4/ADC_1.c **** /* Channels configuration generated by customiser */
  33:Generated_Source\PSoC4/ADC_1.c **** static const uint32 CYCODE ADC_1_channelsConfig[] = { 0x00000200u };
  34:Generated_Source\PSoC4/ADC_1.c **** 
  35:Generated_Source\PSoC4/ADC_1.c **** 
  36:Generated_Source\PSoC4/ADC_1.c **** /*******************************************************************************
  37:Generated_Source\PSoC4/ADC_1.c **** * Function Name: ADC_1_Start
  38:Generated_Source\PSoC4/ADC_1.c **** ********************************************************************************
  39:Generated_Source\PSoC4/ADC_1.c **** *
  40:Generated_Source\PSoC4/ADC_1.c **** * Summary:
  41:Generated_Source\PSoC4/ADC_1.c **** *  Performs all required initialization for this component
  42:Generated_Source\PSoC4/ADC_1.c **** *  and enables the power. The power will be set to the appropriate
  43:Generated_Source\PSoC4/ADC_1.c **** *  power based on the clock frequency.
  44:Generated_Source\PSoC4/ADC_1.c **** *
  45:Generated_Source\PSoC4/ADC_1.c **** * Parameters:
  46:Generated_Source\PSoC4/ADC_1.c **** *  None.
  47:Generated_Source\PSoC4/ADC_1.c **** *
  48:Generated_Source\PSoC4/ADC_1.c **** * Return:
  49:Generated_Source\PSoC4/ADC_1.c **** *  None.
  50:Generated_Source\PSoC4/ADC_1.c **** *
  51:Generated_Source\PSoC4/ADC_1.c **** * Global variables:
  52:Generated_Source\PSoC4/ADC_1.c **** *  The ADC_1_initVar variable is used to indicate when/if initial
  53:Generated_Source\PSoC4/ADC_1.c **** *  configuration of this component has happened. The variable is initialized to
  54:Generated_Source\PSoC4/ADC_1.c **** *  zero and set to 1 the first time ADC_Start() is called. This allows for
  55:Generated_Source\PSoC4/ADC_1.c **** *  component Re-Start without re-initialization in all subsequent calls to the
  56:Generated_Source\PSoC4/ADC_1.c **** *  ADC_1_Start() routine.
  57:Generated_Source\PSoC4/ADC_1.c **** *  If re-initialization of the component is required the variable should be set
  58:Generated_Source\PSoC4/ADC_1.c **** *  to zero before call of ADC_1_Start() routine, or the user may call
  59:Generated_Source\PSoC4/ADC_1.c **** *  ADC_1_Init() and ADC_1_Enable() as done in the
  60:Generated_Source\PSoC4/ADC_1.c **** *  ADC_1_Start() routine.
  61:Generated_Source\PSoC4/ADC_1.c **** *
  62:Generated_Source\PSoC4/ADC_1.c **** *******************************************************************************/
  63:Generated_Source\PSoC4/ADC_1.c **** void ADC_1_Start(void)
  64:Generated_Source\PSoC4/ADC_1.c **** {
  65:Generated_Source\PSoC4/ADC_1.c ****     /* If not Initialized then initialize all required hardware and software */
  66:Generated_Source\PSoC4/ADC_1.c ****     if(ADC_1_initVar == 0u)
  67:Generated_Source\PSoC4/ADC_1.c ****     {
  68:Generated_Source\PSoC4/ADC_1.c ****         ADC_1_Init();
  69:Generated_Source\PSoC4/ADC_1.c ****         ADC_1_initVar = 1u;
  70:Generated_Source\PSoC4/ADC_1.c ****     }
  71:Generated_Source\PSoC4/ADC_1.c ****     ADC_1_Enable();
  72:Generated_Source\PSoC4/ADC_1.c **** }
  73:Generated_Source\PSoC4/ADC_1.c **** 
  74:Generated_Source\PSoC4/ADC_1.c **** 
  75:Generated_Source\PSoC4/ADC_1.c **** /*******************************************************************************
  76:Generated_Source\PSoC4/ADC_1.c **** * Function Name: ADC_1_Init
  77:Generated_Source\PSoC4/ADC_1.c **** ********************************************************************************
  78:Generated_Source\PSoC4/ADC_1.c **** *
  79:Generated_Source\PSoC4/ADC_1.c **** * Summary:
  80:Generated_Source\PSoC4/ADC_1.c **** *  Initialize component's parameters to the parameters set by user in the
  81:Generated_Source\PSoC4/ADC_1.c **** *  customizer of the component placed onto schematic. Usually called in
  82:Generated_Source\PSoC4/ADC_1.c **** *  ADC_1_Start().
  83:Generated_Source\PSoC4/ADC_1.c **** *
  84:Generated_Source\PSoC4/ADC_1.c **** * Parameters:
  85:Generated_Source\PSoC4/ADC_1.c **** *  None.
  86:Generated_Source\PSoC4/ADC_1.c **** *
  87:Generated_Source\PSoC4/ADC_1.c **** * Return:
ARM GAS  C:\Users\Jeremias\AppData\Local\Temp\ccMyQl1F.s 			page 3


  88:Generated_Source\PSoC4/ADC_1.c **** *  None.
  89:Generated_Source\PSoC4/ADC_1.c **** *
  90:Generated_Source\PSoC4/ADC_1.c **** * Global variables:
  91:Generated_Source\PSoC4/ADC_1.c **** *  The ADC_1_offset variable is initialized.
  92:Generated_Source\PSoC4/ADC_1.c **** *
  93:Generated_Source\PSoC4/ADC_1.c **** *******************************************************************************/
  94:Generated_Source\PSoC4/ADC_1.c **** void ADC_1_Init(void)
  95:Generated_Source\PSoC4/ADC_1.c **** {
  28              		.loc 1 95 0
  29              		.cfi_startproc
  30              		@ args = 0, pretend = 0, frame = 0
  31              		@ frame_needed = 0, uses_anonymous_args = 0
  32 0000 10B5     		push	{r4, lr}
  33              		.cfi_def_cfa_offset 8
  34              		.cfi_offset 4, -8
  35              		.cfi_offset 14, -4
  96:Generated_Source\PSoC4/ADC_1.c ****     uint32 chNum;
  97:Generated_Source\PSoC4/ADC_1.c ****     uint32 tmpRegVal;
  98:Generated_Source\PSoC4/ADC_1.c ****     int32 counts;
  99:Generated_Source\PSoC4/ADC_1.c **** 
 100:Generated_Source\PSoC4/ADC_1.c ****     #if(ADC_1_TOTAL_CHANNELS_NUM > 1u)
 101:Generated_Source\PSoC4/ADC_1.c ****         static const uint8 CYCODE ADC_1_InputsPlacement[] =
 102:Generated_Source\PSoC4/ADC_1.c ****         {
 103:Generated_Source\PSoC4/ADC_1.c ****             (uint8)(ADC_1_cy_psoc4_sarmux_8__CH_0_PORT << 4u) |
 104:Generated_Source\PSoC4/ADC_1.c ****             (uint8)ADC_1_cy_psoc4_sarmux_8__CH_0_PIN
 105:Generated_Source\PSoC4/ADC_1.c ****             ,(uint8)(ADC_1_cy_psoc4_sarmux_8__CH_1_PORT << 4u) |
 106:Generated_Source\PSoC4/ADC_1.c ****              (uint8)ADC_1_cy_psoc4_sarmux_8__CH_1_PIN
 107:Generated_Source\PSoC4/ADC_1.c ****             #if(ADC_1_TOTAL_CHANNELS_NUM > 2u)
 108:Generated_Source\PSoC4/ADC_1.c ****                 ,(uint8)(ADC_1_cy_psoc4_sarmux_8__CH_2_PORT << 4u) |
 109:Generated_Source\PSoC4/ADC_1.c ****                  (uint8)ADC_1_cy_psoc4_sarmux_8__CH_2_PIN
 110:Generated_Source\PSoC4/ADC_1.c ****             #endif /* End ADC_1_TOTAL_CHANNELS_NUM > 2u */
 111:Generated_Source\PSoC4/ADC_1.c ****             #if(ADC_1_TOTAL_CHANNELS_NUM > 3u)
 112:Generated_Source\PSoC4/ADC_1.c ****                 ,(uint8)(ADC_1_cy_psoc4_sarmux_8__CH_3_PORT << 4u) |
 113:Generated_Source\PSoC4/ADC_1.c ****                  (uint8)ADC_1_cy_psoc4_sarmux_8__CH_3_PIN
 114:Generated_Source\PSoC4/ADC_1.c ****             #endif /* End ADC_1_TOTAL_CHANNELS_NUM > 3u */
 115:Generated_Source\PSoC4/ADC_1.c ****             #if(ADC_1_TOTAL_CHANNELS_NUM > 4u)
 116:Generated_Source\PSoC4/ADC_1.c ****                 ,(uint8)(ADC_1_cy_psoc4_sarmux_8__CH_4_PORT << 4u) |
 117:Generated_Source\PSoC4/ADC_1.c ****                  (uint8)ADC_1_cy_psoc4_sarmux_8__CH_4_PIN
 118:Generated_Source\PSoC4/ADC_1.c ****             #endif /* End ADC_1_TOTAL_CHANNELS_NUM > 4u */
 119:Generated_Source\PSoC4/ADC_1.c ****             #if(ADC_1_TOTAL_CHANNELS_NUM > 5u)
 120:Generated_Source\PSoC4/ADC_1.c ****                 ,(uint8)(ADC_1_cy_psoc4_sarmux_8__CH_5_PORT << 4u) |
 121:Generated_Source\PSoC4/ADC_1.c ****                  (uint8)ADC_1_cy_psoc4_sarmux_8__CH_5_PIN
 122:Generated_Source\PSoC4/ADC_1.c ****             #endif /* End ADC_1_TOTAL_CHANNELS_NUM > 5u */
 123:Generated_Source\PSoC4/ADC_1.c ****             #if(ADC_1_TOTAL_CHANNELS_NUM > 6u)
 124:Generated_Source\PSoC4/ADC_1.c ****                 ,(uint8)(ADC_1_cy_psoc4_sarmux_8__CH_6_PORT << 4u) |
 125:Generated_Source\PSoC4/ADC_1.c ****                  (uint8)ADC_1_cy_psoc4_sarmux_8__CH_6_PIN
 126:Generated_Source\PSoC4/ADC_1.c ****             #endif /* End ADC_1_TOTAL_CHANNELS_NUM > 6u */
 127:Generated_Source\PSoC4/ADC_1.c ****             #if(ADC_1_TOTAL_CHANNELS_NUM > 7u)
 128:Generated_Source\PSoC4/ADC_1.c ****                 ,(uint8)(ADC_1_cy_psoc4_sarmux_8__CH_7_PORT << 4u) |
 129:Generated_Source\PSoC4/ADC_1.c ****                  (uint8)ADC_1_cy_psoc4_sarmux_8__CH_7_PIN
 130:Generated_Source\PSoC4/ADC_1.c ****             #endif /* End ADC_1_TOTAL_CHANNELS_NUM > 7u */
 131:Generated_Source\PSoC4/ADC_1.c ****             #if(ADC_1_TOTAL_CHANNELS_NUM > 8u)
 132:Generated_Source\PSoC4/ADC_1.c ****                 ,(uint8)(ADC_1_cy_psoc4_sarmux_8__CH_8_PORT << 4u) |
 133:Generated_Source\PSoC4/ADC_1.c ****                  (uint8)ADC_1_cy_psoc4_sarmux_8__CH_8_PIN
 134:Generated_Source\PSoC4/ADC_1.c ****             #endif /* End ADC_1_TOTAL_CHANNELS_NUM > 8u */
 135:Generated_Source\PSoC4/ADC_1.c ****             #if(ADC_1_TOTAL_CHANNELS_NUM > 9u)
 136:Generated_Source\PSoC4/ADC_1.c ****                 ,(uint8)(ADC_1_cy_psoc4_sarmux_8__CH_9_PORT << 4u) |
ARM GAS  C:\Users\Jeremias\AppData\Local\Temp\ccMyQl1F.s 			page 4


 137:Generated_Source\PSoC4/ADC_1.c ****                  (uint8)ADC_1_cy_psoc4_sarmux_8__CH_9_PIN
 138:Generated_Source\PSoC4/ADC_1.c ****             #endif /* End ADC_1_TOTAL_CHANNELS_NUM > 9u */
 139:Generated_Source\PSoC4/ADC_1.c ****             #if(ADC_1_TOTAL_CHANNELS_NUM > 10u)
 140:Generated_Source\PSoC4/ADC_1.c ****                 ,(uint8)(ADC_1_cy_psoc4_sarmux_8__CH_10_PORT << 4u) |
 141:Generated_Source\PSoC4/ADC_1.c ****                  (uint8)ADC_1_cy_psoc4_sarmux_8__CH_10_PIN
 142:Generated_Source\PSoC4/ADC_1.c ****             #endif /* End ADC_1_TOTAL_CHANNELS_NUM > 10u */
 143:Generated_Source\PSoC4/ADC_1.c ****             #if(ADC_1_TOTAL_CHANNELS_NUM > 11u)
 144:Generated_Source\PSoC4/ADC_1.c ****                 ,(uint8)(ADC_1_cy_psoc4_sarmux_8__CH_11_PORT << 4u) |
 145:Generated_Source\PSoC4/ADC_1.c ****                  (uint8)ADC_1_cy_psoc4_sarmux_8__CH_11_PIN
 146:Generated_Source\PSoC4/ADC_1.c ****             #endif /* End ADC_1_TOTAL_CHANNELS_NUM > 11u */
 147:Generated_Source\PSoC4/ADC_1.c ****             #if(ADC_1_TOTAL_CHANNELS_NUM > 12u)
 148:Generated_Source\PSoC4/ADC_1.c ****                 ,(uint8)(ADC_1_cy_psoc4_sarmux_8__CH_12_PORT << 4u) |
 149:Generated_Source\PSoC4/ADC_1.c ****                  (uint8)ADC_1_cy_psoc4_sarmux_8__CH_12_PIN
 150:Generated_Source\PSoC4/ADC_1.c ****             #endif /* End ADC_1_TOTAL_CHANNELS_NUM > 12u */
 151:Generated_Source\PSoC4/ADC_1.c ****             #if(ADC_1_TOTAL_CHANNELS_NUM > 13u)
 152:Generated_Source\PSoC4/ADC_1.c ****                 ,(uint8)(ADC_1_cy_psoc4_sarmux_8__CH_13_PORT << 4u) |
 153:Generated_Source\PSoC4/ADC_1.c ****                  (uint8)ADC_1_cy_psoc4_sarmux_8__CH_13_PIN
 154:Generated_Source\PSoC4/ADC_1.c ****             #endif /* End ADC_1_TOTAL_CHANNELS_NUM > 13u */
 155:Generated_Source\PSoC4/ADC_1.c ****             #if(ADC_1_TOTAL_CHANNELS_NUM > 14u)
 156:Generated_Source\PSoC4/ADC_1.c ****                 ,(uint8)(ADC_1_cy_psoc4_sarmux_8__CH_14_PORT << 4u) |
 157:Generated_Source\PSoC4/ADC_1.c ****                  (uint8)ADC_1_cy_psoc4_sarmux_8__CH_14_PIN
 158:Generated_Source\PSoC4/ADC_1.c ****             #endif /* End ADC_1_TOTAL_CHANNELS_NUM > 14u */
 159:Generated_Source\PSoC4/ADC_1.c ****             #if(ADC_1_TOTAL_CHANNELS_NUM > 15u)
 160:Generated_Source\PSoC4/ADC_1.c ****                 ,(uint8)(ADC_1_cy_psoc4_sarmux_8__CH_15_PORT << 4u) |
 161:Generated_Source\PSoC4/ADC_1.c ****                  (uint8)ADC_1_cy_psoc4_sarmux_8__CH_15_PIN
 162:Generated_Source\PSoC4/ADC_1.c ****             #endif /* End ADC_1_TOTAL_CHANNELS_NUM > 15u */
 163:Generated_Source\PSoC4/ADC_1.c ****             #if(ADC_1_TOTAL_CHANNELS_NUM > 16u)
 164:Generated_Source\PSoC4/ADC_1.c ****                 ,(uint8)(ADC_1_cy_psoc4_sarmux_8__CH_16_PORT << 4u) |
 165:Generated_Source\PSoC4/ADC_1.c ****                  (uint8)ADC_1_cy_psoc4_sarmux_8__CH_16_PIN
 166:Generated_Source\PSoC4/ADC_1.c ****             #endif /* End ADC_1_TOTAL_CHANNELS_NUM > 16u */
 167:Generated_Source\PSoC4/ADC_1.c ****         };
 168:Generated_Source\PSoC4/ADC_1.c ****     #endif /* End ADC_1_TOTAL_CHANNELS_NUM > 1u */
 169:Generated_Source\PSoC4/ADC_1.c **** 
 170:Generated_Source\PSoC4/ADC_1.c ****     #if(ADC_1_IRQ_REMOVE == 0u)
 171:Generated_Source\PSoC4/ADC_1.c ****         /* Start and set interrupt vector */
 172:Generated_Source\PSoC4/ADC_1.c ****         CyIntSetPriority(ADC_1_INTC_NUMBER, ADC_1_INTC_PRIOR_NUMBER);
  36              		.loc 1 172 0
  37 0002 0321     		movs	r1, #3
  38 0004 0E20     		movs	r0, #14
  39 0006 FFF7FEFF 		bl	CyIntSetPriority
  40              	.LVL0:
 173:Generated_Source\PSoC4/ADC_1.c ****         (void)CyIntSetVector(ADC_1_INTC_NUMBER, &ADC_1_ISR);
  41              		.loc 1 173 0
  42 000a 2549     		ldr	r1, .L6
  43 000c 0E20     		movs	r0, #14
  44 000e FFF7FEFF 		bl	CyIntSetVector
  45              	.LVL1:
 174:Generated_Source\PSoC4/ADC_1.c ****     #endif   /* End ADC_1_IRQ_REMOVE */
 175:Generated_Source\PSoC4/ADC_1.c **** 
 176:Generated_Source\PSoC4/ADC_1.c ****     /* Init SAR and MUX registers */
 177:Generated_Source\PSoC4/ADC_1.c ****     ADC_1_SAR_CHAN_EN_REG = ADC_1_DEFAULT_EN_CHANNELS;
  46              		.loc 1 177 0
  47 0012 0122     		movs	r2, #1
  48 0014 234B     		ldr	r3, .L6+4
  49 0016 1A60     		str	r2, [r3]
 178:Generated_Source\PSoC4/ADC_1.c ****     ADC_1_SAR_CTRL_REG |= ADC_1_DEFAULT_CTRL_REG_CFG | 
 179:Generated_Source\PSoC4/ADC_1.c ****         /* Enable the SAR internal pump when global pump is enabled */
ARM GAS  C:\Users\Jeremias\AppData\Local\Temp\ccMyQl1F.s 			page 5


 180:Generated_Source\PSoC4/ADC_1.c ****         (((ADC_1_PUMP_CTRL_REG & ADC_1_PUMP_CTRL_ENABLED) != 0u) ? 
  50              		.loc 1 180 0
  51 0018 234B     		ldr	r3, .L6+8
  52 001a 1B68     		ldr	r3, [r3]
 178:Generated_Source\PSoC4/ADC_1.c ****     ADC_1_SAR_CTRL_REG |= ADC_1_DEFAULT_CTRL_REG_CFG | 
  53              		.loc 1 178 0
  54 001c 002B     		cmp	r3, #0
  55 001e 01DA     		bge	.L5
  56 0020 2249     		ldr	r1, .L6+12
  57 0022 00E0     		b	.L2
  58              	.L5:
  59 0024 2249     		ldr	r1, .L6+16
  60              	.L2:
 178:Generated_Source\PSoC4/ADC_1.c ****     ADC_1_SAR_CTRL_REG |= ADC_1_DEFAULT_CTRL_REG_CFG | 
  61              		.loc 1 178 0 is_stmt 0 discriminator 4
  62 0026 234A     		ldr	r2, .L6+20
  63 0028 1368     		ldr	r3, [r2]
  64 002a 0B43     		orrs	r3, r1
  65 002c 1360     		str	r3, [r2]
 181:Generated_Source\PSoC4/ADC_1.c ****         ADC_1_BOOSTPUMP_EN : 0u);
 182:Generated_Source\PSoC4/ADC_1.c ****     ADC_1_SAR_SAMPLE_CTRL_REG = ADC_1_DEFAULT_SAMPLE_CTRL_REG_CFG;
  66              		.loc 1 182 0 is_stmt 1 discriminator 4
  67 002e 224A     		ldr	r2, .L6+24
  68 0030 224B     		ldr	r3, .L6+28
  69 0032 1A60     		str	r2, [r3]
 183:Generated_Source\PSoC4/ADC_1.c ****     ADC_1_SAR_RANGE_THRES_REG = ADC_1_DEFAULT_RANGE_THRES_REG_CFG;
  70              		.loc 1 183 0 discriminator 4
  71 0034 224A     		ldr	r2, .L6+32
  72 0036 234B     		ldr	r3, .L6+36
  73 0038 1A60     		str	r2, [r3]
 184:Generated_Source\PSoC4/ADC_1.c ****     ADC_1_SAR_RANGE_COND_REG  = ADC_1_COMPARE_MODE;
  74              		.loc 1 184 0 discriminator 4
  75 003a 0023     		movs	r3, #0
  76 003c 224A     		ldr	r2, .L6+40
  77 003e 1360     		str	r3, [r2]
 185:Generated_Source\PSoC4/ADC_1.c ****     ADC_1_SAR_SAMPLE_TIME01_REG = ADC_1_DEFAULT_SAMPLE_TIME01_REG_CFG;
  78              		.loc 1 185 0 discriminator 4
  79 0040 2249     		ldr	r1, .L6+44
  80 0042 234A     		ldr	r2, .L6+48
  81 0044 1160     		str	r1, [r2]
 186:Generated_Source\PSoC4/ADC_1.c ****     ADC_1_SAR_SAMPLE_TIME23_REG = ADC_1_DEFAULT_SAMPLE_TIME23_REG_CFG;
  82              		.loc 1 186 0 discriminator 4
  83 0046 2349     		ldr	r1, .L6+52
  84 0048 234A     		ldr	r2, .L6+56
  85 004a 1160     		str	r1, [r2]
 187:Generated_Source\PSoC4/ADC_1.c ****     
 188:Generated_Source\PSoC4/ADC_1.c ****     /* Connect Vm to VSSA when even one channel is single-ended or multiple channels configured */
 189:Generated_Source\PSoC4/ADC_1.c ****     #if(ADC_1_DEFAULT_MUX_SWITCH0 != 0u)
 190:Generated_Source\PSoC4/ADC_1.c ****         ADC_1_MUX_SWITCH0_REG |= ADC_1_DEFAULT_MUX_SWITCH0;
  86              		.loc 1 190 0 discriminator 4
  87 004c 2349     		ldr	r1, .L6+60
  88 004e 0A68     		ldr	r2, [r1]
  89 0050 8020     		movs	r0, #128
  90 0052 4002     		lsls	r0, r0, #9
  91 0054 0243     		orrs	r2, r0
  92 0056 0A60     		str	r2, [r1]
 191:Generated_Source\PSoC4/ADC_1.c ****         /* Set MUX_HW_CTRL_VSSA in MUX_SWITCH_HW_CTRL when multiple channels enabled */
ARM GAS  C:\Users\Jeremias\AppData\Local\Temp\ccMyQl1F.s 			page 6


 192:Generated_Source\PSoC4/ADC_1.c ****         #if(ADC_1_TOTAL_CHANNELS_NUM > 1u)
 193:Generated_Source\PSoC4/ADC_1.c ****             ADC_1_MUX_SWITCH_HW_CTRL_REG |= ADC_1_DEFAULT_MUX_SWITCH0;
 194:Generated_Source\PSoC4/ADC_1.c ****         #endif /* ADC_1_TOTAL_CHANNELS_NUM > 1u */
 195:Generated_Source\PSoC4/ADC_1.c ****     #endif /*ADC_1_CHANNELS_MODE !=0 */
 196:Generated_Source\PSoC4/ADC_1.c **** 
 197:Generated_Source\PSoC4/ADC_1.c ****     ADC_1_SAR_SATURATE_INTR_MASK_REG = 0u;
  93              		.loc 1 197 0 discriminator 4
  94 0058 214A     		ldr	r2, .L6+64
  95 005a 1360     		str	r3, [r2]
 198:Generated_Source\PSoC4/ADC_1.c ****     ADC_1_SAR_RANGE_INTR_MASK_REG = 0u;
  96              		.loc 1 198 0 discriminator 4
  97 005c 214A     		ldr	r2, .L6+68
  98 005e 1360     		str	r3, [r2]
 199:Generated_Source\PSoC4/ADC_1.c ****     ADC_1_SAR_INTR_MASK_REG = ADC_1_SAR_INTR_MASK;
  99              		.loc 1 199 0 discriminator 4
 100 0060 0122     		movs	r2, #1
 101 0062 214B     		ldr	r3, .L6+72
 102 0064 1A60     		str	r2, [r3]
 200:Generated_Source\PSoC4/ADC_1.c **** 
 201:Generated_Source\PSoC4/ADC_1.c ****     #if(ADC_1_CY_SAR_IP_VER == ADC_1_CY_SAR_IP_VER0)
 202:Generated_Source\PSoC4/ADC_1.c ****         ADC_1_ANA_TRIM_REG = ADC_1_TRIM_COEF;
 103              		.loc 1 202 0 discriminator 4
 104 0066 0221     		movs	r1, #2
 105 0068 204B     		ldr	r3, .L6+76
 106 006a 1960     		str	r1, [r3]
 203:Generated_Source\PSoC4/ADC_1.c ****     #endif /* (ADC_1_CY_SAR_IP_VER == ADC_1_CY_SAR_IP_VER0) */
 204:Generated_Source\PSoC4/ADC_1.c **** 
 205:Generated_Source\PSoC4/ADC_1.c ****     /* Read and modify default configuration based on characterization */
 206:Generated_Source\PSoC4/ADC_1.c ****     tmpRegVal = ADC_1_SAR_DFT_CTRL_REG;
 107              		.loc 1 206 0 discriminator 4
 108 006c 2049     		ldr	r1, .L6+80
 109 006e 0868     		ldr	r0, [r1]
 110              	.LVL2:
 207:Generated_Source\PSoC4/ADC_1.c ****     tmpRegVal &= (uint32)~ADC_1_DCEN;
 111              		.loc 1 207 0 discriminator 4
 112 0070 204B     		ldr	r3, .L6+84
 113 0072 0340     		ands	r3, r0
 114              	.LVL3:
 208:Generated_Source\PSoC4/ADC_1.c ****     
 209:Generated_Source\PSoC4/ADC_1.c ****     #if(ADC_1_CY_SAR_IP_VER == ADC_1_CY_SAR_IP_VER0)
 210:Generated_Source\PSoC4/ADC_1.c ****         #if(ADC_1_NOMINAL_CLOCK_FREQ > (ADC_1_MAX_FREQUENCY / 2))
 211:Generated_Source\PSoC4/ADC_1.c ****             tmpRegVal |= ADC_1_SEL_CSEL_DFT_CHAR;
 212:Generated_Source\PSoC4/ADC_1.c ****         #else  /* clock speed < 9 Mhz */
 213:Generated_Source\PSoC4/ADC_1.c ****             tmpRegVal |= ADC_1_DLY_INC;
 115              		.loc 1 213 0 discriminator 4
 116 0074 1343     		orrs	r3, r2
 117              	.LVL4:
 214:Generated_Source\PSoC4/ADC_1.c ****         #endif /* clock speed > 9 Mhz */
 215:Generated_Source\PSoC4/ADC_1.c ****     #else
 216:Generated_Source\PSoC4/ADC_1.c ****         #if ((ADC_1_DEFAULT_VREF_SEL == ADC_1__INTERNAL1024) || \
 217:Generated_Source\PSoC4/ADC_1.c ****              (ADC_1_DEFAULT_VREF_SEL == ADC_1__INTERNALVREF))
 218:Generated_Source\PSoC4/ADC_1.c ****             tmpRegVal |= ADC_1_DLY_INC;
 219:Generated_Source\PSoC4/ADC_1.c ****         #else
 220:Generated_Source\PSoC4/ADC_1.c ****             tmpRegVal |= ADC_1_DCEN;
 221:Generated_Source\PSoC4/ADC_1.c ****             tmpRegVal &= (uint32)~ADC_1_DLY_INC;
 222:Generated_Source\PSoC4/ADC_1.c ****         #endif /* ((ADC_1_DEFAULT_VREF_SEL == ADC_1__INTERNAL1024) || \
 223:Generated_Source\PSoC4/ADC_1.c ****                    (ADC_1_DEFAULT_VREF_SEL == ADC_1__INTERNALVREF)) */
ARM GAS  C:\Users\Jeremias\AppData\Local\Temp\ccMyQl1F.s 			page 7


 224:Generated_Source\PSoC4/ADC_1.c ****     #endif /* (ADC_1_CY_SAR_IP_VER == ADC_1_CY_SAR_IP_VER0) */
 225:Generated_Source\PSoC4/ADC_1.c ****     
 226:Generated_Source\PSoC4/ADC_1.c ****     ADC_1_SAR_DFT_CTRL_REG = tmpRegVal;
 118              		.loc 1 226 0 discriminator 4
 119 0076 0B60     		str	r3, [r1]
 227:Generated_Source\PSoC4/ADC_1.c **** 
 228:Generated_Source\PSoC4/ADC_1.c ****     #if(ADC_1_MAX_RESOLUTION != ADC_1_RESOLUTION_12)
 229:Generated_Source\PSoC4/ADC_1.c ****         ADC_1_WOUNDING_REG = ADC_1_ALT_WOUNDING;
 120              		.loc 1 229 0 discriminator 4
 121 0078 1F4B     		ldr	r3, .L6+88
 122              	.LVL5:
 123 007a 1A60     		str	r2, [r3]
 124              	.LVL6:
 230:Generated_Source\PSoC4/ADC_1.c ****     #endif /* ADC_1_MAX_RESOLUTION != ADC_1_RESOLUTION_12 */
 231:Generated_Source\PSoC4/ADC_1.c **** 
 232:Generated_Source\PSoC4/ADC_1.c ****     for(chNum = 0u; chNum < ADC_1_TOTAL_CHANNELS_NUM; chNum++)
 125              		.loc 1 232 0 discriminator 4
 126 007c 0023     		movs	r3, #0
 127 007e 0BE0     		b	.L3
 128              	.LVL7:
 129              	.L4:
 233:Generated_Source\PSoC4/ADC_1.c ****     {
 234:Generated_Source\PSoC4/ADC_1.c ****         tmpRegVal = (ADC_1_channelsConfig[chNum] & ADC_1_CHANNEL_CONFIG_MASK);
 235:Generated_Source\PSoC4/ADC_1.c ****         #if(ADC_1_TOTAL_CHANNELS_NUM > 1u)
 236:Generated_Source\PSoC4/ADC_1.c ****             tmpRegVal |= ADC_1_InputsPlacement[chNum];
 237:Generated_Source\PSoC4/ADC_1.c ****         #endif /* End ADC_1_TOTAL_CHANNELS_NUM > 1u */
 238:Generated_Source\PSoC4/ADC_1.c ****         
 239:Generated_Source\PSoC4/ADC_1.c ****         
 240:Generated_Source\PSoC4/ADC_1.c ****         /* When the part is limited to 10-bit then the SUB_RESOLUTION bit
 241:Generated_Source\PSoC4/ADC_1.c ****         *  will be ignored and the RESOLUTION bit selects between 10-bit
 242:Generated_Source\PSoC4/ADC_1.c ****         *  (0) and 8-bit (1) resolution.
 243:Generated_Source\PSoC4/ADC_1.c ****         */
 244:Generated_Source\PSoC4/ADC_1.c ****         #if((ADC_1_MAX_RESOLUTION != ADC_1_RESOLUTION_12) && \
 245:Generated_Source\PSoC4/ADC_1.c ****             (ADC_1_ALT_WOUNDING == ADC_1_WOUNDING_10BIT))
 246:Generated_Source\PSoC4/ADC_1.c ****             tmpRegVal &= (uint32)(~ADC_1_ALT_RESOLUTION_ON);
 247:Generated_Source\PSoC4/ADC_1.c ****         #endif /* ADC_1_MAX_RESOLUTION != ADC_1_RESOLUTION_12 */
 248:Generated_Source\PSoC4/ADC_1.c **** 
 249:Generated_Source\PSoC4/ADC_1.c ****         #if(ADC_1_INJ_CHANNEL_ENABLED)
 250:Generated_Source\PSoC4/ADC_1.c ****         if(chNum < ADC_1_SEQUENCED_CHANNELS_NUM)
 251:Generated_Source\PSoC4/ADC_1.c ****         #endif /* ADC_1_INJ_CHANNEL_ENABLED */
 252:Generated_Source\PSoC4/ADC_1.c ****         {
 253:Generated_Source\PSoC4/ADC_1.c ****             CY_SET_REG32((reg32 *)(ADC_1_SAR_CHAN_CONFIG_IND + (uint32)(chNum << 2)), tmpRegVal);
 130              		.loc 1 253 0
 131 0080 9A00     		lsls	r2, r3, #2
 132 0082 1E49     		ldr	r1, .L6+92
 133 0084 5018     		adds	r0, r2, r1
 134 0086 0021     		movs	r1, #0
 135 0088 0160     		str	r1, [r0]
 136              	.LVL8:
 254:Generated_Source\PSoC4/ADC_1.c **** 
 255:Generated_Source\PSoC4/ADC_1.c ****             if((ADC_1_channelsConfig[chNum] & ADC_1_IS_SATURATE_EN_MASK) != 0u)
 256:Generated_Source\PSoC4/ADC_1.c ****             {
 257:Generated_Source\PSoC4/ADC_1.c ****                 ADC_1_SAR_SATURATE_INTR_MASK_REG |= (uint16)((uint16)1 << chNum);
 258:Generated_Source\PSoC4/ADC_1.c ****             }
 259:Generated_Source\PSoC4/ADC_1.c **** 
 260:Generated_Source\PSoC4/ADC_1.c ****             if((ADC_1_channelsConfig[chNum] & ADC_1_IS_RANGE_CTRL_EN_MASK) != 0u)
 261:Generated_Source\PSoC4/ADC_1.c ****             {
ARM GAS  C:\Users\Jeremias\AppData\Local\Temp\ccMyQl1F.s 			page 8


 262:Generated_Source\PSoC4/ADC_1.c ****                 ADC_1_SAR_RANGE_INTR_MASK_REG |= (uint16)((uint16)1 << chNum);
 263:Generated_Source\PSoC4/ADC_1.c ****             }
 264:Generated_Source\PSoC4/ADC_1.c ****         }
 265:Generated_Source\PSoC4/ADC_1.c ****         #if(ADC_1_INJ_CHANNEL_ENABLED)
 266:Generated_Source\PSoC4/ADC_1.c ****             else
 267:Generated_Source\PSoC4/ADC_1.c ****             {
 268:Generated_Source\PSoC4/ADC_1.c ****                 CY_SET_REG32(ADC_1_SAR_INJ_CHAN_CONFIG_PTR, tmpRegVal | ADC_1_INJ_TAILGATING);
 269:Generated_Source\PSoC4/ADC_1.c **** 
 270:Generated_Source\PSoC4/ADC_1.c ****                 if((ADC_1_channelsConfig[chNum] & ADC_1_IS_SATURATE_EN_MASK) != 0u)
 271:Generated_Source\PSoC4/ADC_1.c ****                 {
 272:Generated_Source\PSoC4/ADC_1.c ****                     ADC_1_SAR_INTR_MASK_REG |= ADC_1_INJ_SATURATE_MASK;
 273:Generated_Source\PSoC4/ADC_1.c ****                 }
 274:Generated_Source\PSoC4/ADC_1.c **** 
 275:Generated_Source\PSoC4/ADC_1.c ****                 if((ADC_1_channelsConfig[chNum] & ADC_1_IS_RANGE_CTRL_EN_MASK) != 0u)
 276:Generated_Source\PSoC4/ADC_1.c ****                 {
 277:Generated_Source\PSoC4/ADC_1.c ****                     ADC_1_SAR_INTR_MASK_REG |= ADC_1_INJ_RANGE_MASK;
 278:Generated_Source\PSoC4/ADC_1.c ****                 }
 279:Generated_Source\PSoC4/ADC_1.c ****             }
 280:Generated_Source\PSoC4/ADC_1.c ****         #endif /* ADC_1_INJ_CHANNEL_ENABLED */
 281:Generated_Source\PSoC4/ADC_1.c **** 
 282:Generated_Source\PSoC4/ADC_1.c ****         if((ADC_1_channelsConfig[chNum] & ADC_1_ALT_RESOLUTION_ON) != 0u)
 283:Generated_Source\PSoC4/ADC_1.c ****         {
 284:Generated_Source\PSoC4/ADC_1.c ****                counts = (int32)ADC_1_DEFAULT_MAX_WRK_ALT;
 285:Generated_Source\PSoC4/ADC_1.c ****         }
 286:Generated_Source\PSoC4/ADC_1.c ****         else
 287:Generated_Source\PSoC4/ADC_1.c ****         {
 288:Generated_Source\PSoC4/ADC_1.c ****                counts = (int32)ADC_1_SAR_WRK_MAX_12BIT;
 289:Generated_Source\PSoC4/ADC_1.c ****         }
 290:Generated_Source\PSoC4/ADC_1.c **** 
 291:Generated_Source\PSoC4/ADC_1.c ****         if((ADC_1_channelsConfig[chNum] & ADC_1_DIFFERENTIAL_EN) == 0u)
 292:Generated_Source\PSoC4/ADC_1.c ****         {
 293:Generated_Source\PSoC4/ADC_1.c ****             #if((ADC_1_DEFAULT_SE_RESULT_FORMAT_SEL == ADC_1__FSIGNED) && \
 294:Generated_Source\PSoC4/ADC_1.c ****                 (ADC_1_DEFAULT_NEG_INPUT_SEL == ADC_1__VREF))
 295:Generated_Source\PSoC4/ADC_1.c ****                 /* Set offset to the minus half scale to convert results to unsigned format */
 296:Generated_Source\PSoC4/ADC_1.c ****                 ADC_1_offset[chNum] = (int16)(counts / -2);
 297:Generated_Source\PSoC4/ADC_1.c ****             #else
 298:Generated_Source\PSoC4/ADC_1.c ****                 ADC_1_offset[chNum] = 0;
 137              		.loc 1 298 0
 138 008a 5C00     		lsls	r4, r3, #1
 139 008c 1C48     		ldr	r0, .L6+96
 140 008e 2152     		strh	r1, [r4, r0]
 299:Generated_Source\PSoC4/ADC_1.c ****             #endif /* end DEFAULT_SE_RESULT_FORMAT_SEL == ADC_1__FSIGNED */
 300:Generated_Source\PSoC4/ADC_1.c ****         }
 301:Generated_Source\PSoC4/ADC_1.c ****         else    /* Differential channel */
 302:Generated_Source\PSoC4/ADC_1.c ****         {
 303:Generated_Source\PSoC4/ADC_1.c ****             #if(ADC_1_DEFAULT_DIFF_RESULT_FORMAT_SEL == ADC_1__FUNSIGNED)
 304:Generated_Source\PSoC4/ADC_1.c ****                 /* Set offset to the half scale to convert results to signed format */
 305:Generated_Source\PSoC4/ADC_1.c ****                 ADC_1_offset[chNum] = (int16)(counts / 2);
 306:Generated_Source\PSoC4/ADC_1.c ****             #else
 307:Generated_Source\PSoC4/ADC_1.c ****                 ADC_1_offset[chNum] = 0;
 308:Generated_Source\PSoC4/ADC_1.c ****             #endif /* end ADC_1_DEFAULT_DIFF_RESULT_FORMAT_SEL == ADC_1__FUNSIGNED */
 309:Generated_Source\PSoC4/ADC_1.c ****         }
 310:Generated_Source\PSoC4/ADC_1.c ****         /* Calculate gain in counts per 10 volts with rounding */
 311:Generated_Source\PSoC4/ADC_1.c ****         ADC_1_countsPer10Volt[chNum] = (int16)(((counts * ADC_1_10MV_COUNTS) +
 141              		.loc 1 311 0
 142 0090 1C48     		ldr	r0, .L6+100
 143 0092 1D49     		ldr	r1, .L6+104
ARM GAS  C:\Users\Jeremias\AppData\Local\Temp\ccMyQl1F.s 			page 9


 144 0094 5050     		str	r0, [r2, r1]
 232:Generated_Source\PSoC4/ADC_1.c ****     {
 145              		.loc 1 232 0
 146 0096 0133     		adds	r3, r3, #1
 147              	.LVL9:
 148              	.L3:
 232:Generated_Source\PSoC4/ADC_1.c ****     {
 149              		.loc 1 232 0 is_stmt 0 discriminator 1
 150 0098 002B     		cmp	r3, #0
 151 009a F1D0     		beq	.L4
 312:Generated_Source\PSoC4/ADC_1.c ****                             ADC_1_DEFAULT_VREF_MV_VALUE) / (ADC_1_DEFAULT_VREF_MV_VALUE * 2));
 313:Generated_Source\PSoC4/ADC_1.c ****     }
 314:Generated_Source\PSoC4/ADC_1.c **** }
 152              		.loc 1 314 0 is_stmt 1
 153              		@ sp needed
 154 009c 10BD     		pop	{r4, pc}
 155              	.L7:
 156 009e C046     		.align	2
 157              	.L6:
 158 00a0 00000000 		.word	ADC_1_ISR
 159 00a4 20001A40 		.word	1075445792
 160 00a8 80031A40 		.word	1075446656
 161 00ac 60021053 		.word	1393558112
 162 00b0 60020053 		.word	1392509536
 163 00b4 00001A40 		.word	1075445760
 164 00b8 85000080 		.word	-2147483515
 165 00bc 04001A40 		.word	1075445764
 166 00c0 0000FF07 		.word	134152192
 167 00c4 18001A40 		.word	1075445784
 168 00c8 1C001A40 		.word	1075445788
 169 00cc 0A000400 		.word	262154
 170 00d0 10001A40 		.word	1075445776
 171 00d4 04000400 		.word	262148
 172 00d8 14001A40 		.word	1075445780
 173 00dc 00031A40 		.word	1075446528
 174 00e0 28021A40 		.word	1075446312
 175 00e4 38021A40 		.word	1075446328
 176 00e8 18021A40 		.word	1075446296
 177 00ec 000F1A40 		.word	1075449600
 178 00f0 30001A40 		.word	1075445808
 179 00f4 FFFFFFDF 		.word	-536870913
 180 00f8 040F1A40 		.word	1075449604
 181 00fc 80001A40 		.word	1075445888
 182 0100 00000000 		.word	ADC_1_offset
 183 0104 1F0C0000 		.word	3103
 184 0108 00000000 		.word	ADC_1_countsPer10Volt
 185              		.cfi_endproc
 186              	.LFE1:
 187              		.size	ADC_1_Init, .-ADC_1_Init
 188              		.section	.text.ADC_1_Enable,"ax",%progbits
 189              		.align	2
 190              		.global	ADC_1_Enable
 191              		.code	16
 192              		.thumb_func
 193              		.type	ADC_1_Enable, %function
 194              	ADC_1_Enable:
 195              	.LFB2:
ARM GAS  C:\Users\Jeremias\AppData\Local\Temp\ccMyQl1F.s 			page 10


 315:Generated_Source\PSoC4/ADC_1.c **** 
 316:Generated_Source\PSoC4/ADC_1.c **** /*******************************************************************************
 317:Generated_Source\PSoC4/ADC_1.c **** * Function Name: ADC_SAR_1_Enable
 318:Generated_Source\PSoC4/ADC_1.c **** ********************************************************************************
 319:Generated_Source\PSoC4/ADC_1.c **** *
 320:Generated_Source\PSoC4/ADC_1.c **** * Summary:
 321:Generated_Source\PSoC4/ADC_1.c **** *  Enables the clock and analog power for SAR ADC.
 322:Generated_Source\PSoC4/ADC_1.c **** *
 323:Generated_Source\PSoC4/ADC_1.c **** * Parameters:
 324:Generated_Source\PSoC4/ADC_1.c **** *  None.
 325:Generated_Source\PSoC4/ADC_1.c **** *
 326:Generated_Source\PSoC4/ADC_1.c **** * Return:
 327:Generated_Source\PSoC4/ADC_1.c **** *  None.
 328:Generated_Source\PSoC4/ADC_1.c **** *
 329:Generated_Source\PSoC4/ADC_1.c **** *******************************************************************************/
 330:Generated_Source\PSoC4/ADC_1.c **** void ADC_1_Enable(void)
 331:Generated_Source\PSoC4/ADC_1.c **** {
 196              		.loc 1 331 0
 197              		.cfi_startproc
 198              		@ args = 0, pretend = 0, frame = 0
 199              		@ frame_needed = 0, uses_anonymous_args = 0
 200 0000 10B5     		push	{r4, lr}
 201              		.cfi_def_cfa_offset 8
 202              		.cfi_offset 4, -8
 203              		.cfi_offset 14, -4
 332:Generated_Source\PSoC4/ADC_1.c ****     if (0u == (ADC_1_SAR_CTRL_REG & ADC_1_ENABLE))
 204              		.loc 1 332 0
 205 0002 074B     		ldr	r3, .L10
 206 0004 1B68     		ldr	r3, [r3]
 207 0006 002B     		cmp	r3, #0
 208 0008 08DB     		blt	.L8
 333:Generated_Source\PSoC4/ADC_1.c ****     {
 334:Generated_Source\PSoC4/ADC_1.c ****         #if(ADC_1_CY_SAR_IP_VER != ADC_1_CY_SAR_IP_VER0)
 335:Generated_Source\PSoC4/ADC_1.c **** 
 336:Generated_Source\PSoC4/ADC_1.c ****             while (0u != (ADC_1_SAR_STATUS_REG & ADC_1_STATUS_BUSY))
 337:Generated_Source\PSoC4/ADC_1.c ****             {
 338:Generated_Source\PSoC4/ADC_1.c ****                 /* wait for SAR to go idle to avoid deadlock */
 339:Generated_Source\PSoC4/ADC_1.c ****             }
 340:Generated_Source\PSoC4/ADC_1.c ****         #endif /* (ADC_1_CY_SAR_IP_VER != ADC_1_CY_SAR_IP_VER0) */
 341:Generated_Source\PSoC4/ADC_1.c ****         
 342:Generated_Source\PSoC4/ADC_1.c ****         ADC_1_SAR_CTRL_REG |= ADC_1_ENABLE;
 209              		.loc 1 342 0
 210 000a 054A     		ldr	r2, .L10
 211 000c 1368     		ldr	r3, [r2]
 212 000e 8021     		movs	r1, #128
 213 0010 0906     		lsls	r1, r1, #24
 214 0012 0B43     		orrs	r3, r1
 215 0014 1360     		str	r3, [r2]
 343:Generated_Source\PSoC4/ADC_1.c ****         
 344:Generated_Source\PSoC4/ADC_1.c ****         /* The block is ready to use 10 us after the enable signal is set high. */
 345:Generated_Source\PSoC4/ADC_1.c ****         CyDelayUs(ADC_1_10US_DELAY);         
 216              		.loc 1 345 0
 217 0016 0A20     		movs	r0, #10
 218 0018 FFF7FEFF 		bl	CyDelayUs
 219              	.LVL10:
 220              	.L8:
 346:Generated_Source\PSoC4/ADC_1.c ****     }
ARM GAS  C:\Users\Jeremias\AppData\Local\Temp\ccMyQl1F.s 			page 11


 347:Generated_Source\PSoC4/ADC_1.c **** }
 221              		.loc 1 347 0
 222              		@ sp needed
 223 001c 10BD     		pop	{r4, pc}
 224              	.L11:
 225 001e C046     		.align	2
 226              	.L10:
 227 0020 00001A40 		.word	1075445760
 228              		.cfi_endproc
 229              	.LFE2:
 230              		.size	ADC_1_Enable, .-ADC_1_Enable
 231              		.section	.text.ADC_1_Start,"ax",%progbits
 232              		.align	2
 233              		.global	ADC_1_Start
 234              		.code	16
 235              		.thumb_func
 236              		.type	ADC_1_Start, %function
 237              	ADC_1_Start:
 238              	.LFB0:
  64:Generated_Source\PSoC4/ADC_1.c ****     /* If not Initialized then initialize all required hardware and software */
 239              		.loc 1 64 0
 240              		.cfi_startproc
 241              		@ args = 0, pretend = 0, frame = 0
 242              		@ frame_needed = 0, uses_anonymous_args = 0
 243 0000 10B5     		push	{r4, lr}
 244              		.cfi_def_cfa_offset 8
 245              		.cfi_offset 4, -8
 246              		.cfi_offset 14, -4
  66:Generated_Source\PSoC4/ADC_1.c ****     {
 247              		.loc 1 66 0
 248 0002 064B     		ldr	r3, .L14
 249 0004 1B78     		ldrb	r3, [r3]
 250 0006 002B     		cmp	r3, #0
 251 0008 04D1     		bne	.L13
  68:Generated_Source\PSoC4/ADC_1.c ****         ADC_1_initVar = 1u;
 252              		.loc 1 68 0
 253 000a FFF7FEFF 		bl	ADC_1_Init
 254              	.LVL11:
  69:Generated_Source\PSoC4/ADC_1.c ****     }
 255              		.loc 1 69 0
 256 000e 0122     		movs	r2, #1
 257 0010 024B     		ldr	r3, .L14
 258 0012 1A70     		strb	r2, [r3]
 259              	.L13:
  71:Generated_Source\PSoC4/ADC_1.c **** }
 260              		.loc 1 71 0
 261 0014 FFF7FEFF 		bl	ADC_1_Enable
 262              	.LVL12:
  72:Generated_Source\PSoC4/ADC_1.c **** 
 263              		.loc 1 72 0
 264              		@ sp needed
 265 0018 10BD     		pop	{r4, pc}
 266              	.L15:
 267 001a C046     		.align	2
 268              	.L14:
 269 001c 00000000 		.word	.LANCHOR0
 270              		.cfi_endproc
ARM GAS  C:\Users\Jeremias\AppData\Local\Temp\ccMyQl1F.s 			page 12


 271              	.LFE0:
 272              		.size	ADC_1_Start, .-ADC_1_Start
 273              		.section	.text.ADC_1_Stop,"ax",%progbits
 274              		.align	2
 275              		.global	ADC_1_Stop
 276              		.code	16
 277              		.thumb_func
 278              		.type	ADC_1_Stop, %function
 279              	ADC_1_Stop:
 280              	.LFB3:
 348:Generated_Source\PSoC4/ADC_1.c **** 
 349:Generated_Source\PSoC4/ADC_1.c **** 
 350:Generated_Source\PSoC4/ADC_1.c **** /*******************************************************************************
 351:Generated_Source\PSoC4/ADC_1.c **** * Function Name: ADC_1_Stop
 352:Generated_Source\PSoC4/ADC_1.c **** ********************************************************************************
 353:Generated_Source\PSoC4/ADC_1.c **** *
 354:Generated_Source\PSoC4/ADC_1.c **** * Summary:
 355:Generated_Source\PSoC4/ADC_1.c **** *  This function stops ADC conversions and puts the ADC into its lowest power
 356:Generated_Source\PSoC4/ADC_1.c **** *  mode.
 357:Generated_Source\PSoC4/ADC_1.c **** *
 358:Generated_Source\PSoC4/ADC_1.c **** * Parameters:
 359:Generated_Source\PSoC4/ADC_1.c **** *  None.
 360:Generated_Source\PSoC4/ADC_1.c **** *
 361:Generated_Source\PSoC4/ADC_1.c **** * Return:
 362:Generated_Source\PSoC4/ADC_1.c **** *  None.
 363:Generated_Source\PSoC4/ADC_1.c **** *
 364:Generated_Source\PSoC4/ADC_1.c **** *******************************************************************************/
 365:Generated_Source\PSoC4/ADC_1.c **** void ADC_1_Stop(void)
 366:Generated_Source\PSoC4/ADC_1.c **** {
 281              		.loc 1 366 0
 282              		.cfi_startproc
 283              		@ args = 0, pretend = 0, frame = 0
 284              		@ frame_needed = 0, uses_anonymous_args = 0
 285              		@ link register save eliminated.
 367:Generated_Source\PSoC4/ADC_1.c ****     ADC_1_SAR_CTRL_REG &= (uint32)~ADC_1_ENABLE;
 286              		.loc 1 367 0
 287 0000 024A     		ldr	r2, .L17
 288 0002 1368     		ldr	r3, [r2]
 289 0004 5B00     		lsls	r3, r3, #1
 290 0006 5B08     		lsrs	r3, r3, #1
 291 0008 1360     		str	r3, [r2]
 368:Generated_Source\PSoC4/ADC_1.c **** }
 292              		.loc 1 368 0
 293              		@ sp needed
 294 000a 7047     		bx	lr
 295              	.L18:
 296              		.align	2
 297              	.L17:
 298 000c 00001A40 		.word	1075445760
 299              		.cfi_endproc
 300              	.LFE3:
 301              		.size	ADC_1_Stop, .-ADC_1_Stop
 302              		.section	.text.ADC_1_StartConvert,"ax",%progbits
 303              		.align	2
 304              		.global	ADC_1_StartConvert
 305              		.code	16
 306              		.thumb_func
ARM GAS  C:\Users\Jeremias\AppData\Local\Temp\ccMyQl1F.s 			page 13


 307              		.type	ADC_1_StartConvert, %function
 308              	ADC_1_StartConvert:
 309              	.LFB4:
 369:Generated_Source\PSoC4/ADC_1.c **** 
 370:Generated_Source\PSoC4/ADC_1.c **** 
 371:Generated_Source\PSoC4/ADC_1.c **** /*******************************************************************************
 372:Generated_Source\PSoC4/ADC_1.c **** * Function Name: ADC_1_StartConvert
 373:Generated_Source\PSoC4/ADC_1.c **** ********************************************************************************
 374:Generated_Source\PSoC4/ADC_1.c **** *
 375:Generated_Source\PSoC4/ADC_1.c **** * Summary:
 376:Generated_Source\PSoC4/ADC_1.c **** *  Description:
 377:Generated_Source\PSoC4/ADC_1.c **** *  For free running mode, this API starts the conversion process and it
 378:Generated_Source\PSoC4/ADC_1.c **** *  runs continuously.
 379:Generated_Source\PSoC4/ADC_1.c **** *
 380:Generated_Source\PSoC4/ADC_1.c **** *  In a triggered mode, this routine triggers every conversion by
 381:Generated_Source\PSoC4/ADC_1.c **** *  writing into the FW_TRIGGER bit in SAR_START_CTRL reg. In triggered mode,
 382:Generated_Source\PSoC4/ADC_1.c **** *  every conversion has to start by this API.
 383:Generated_Source\PSoC4/ADC_1.c **** *
 384:Generated_Source\PSoC4/ADC_1.c **** * Parameters:
 385:Generated_Source\PSoC4/ADC_1.c **** *  None.
 386:Generated_Source\PSoC4/ADC_1.c **** *
 387:Generated_Source\PSoC4/ADC_1.c **** * Return:
 388:Generated_Source\PSoC4/ADC_1.c **** *  None.
 389:Generated_Source\PSoC4/ADC_1.c **** *
 390:Generated_Source\PSoC4/ADC_1.c **** *******************************************************************************/
 391:Generated_Source\PSoC4/ADC_1.c **** void ADC_1_StartConvert(void)
 392:Generated_Source\PSoC4/ADC_1.c **** {
 310              		.loc 1 392 0
 311              		.cfi_startproc
 312              		@ args = 0, pretend = 0, frame = 0
 313              		@ frame_needed = 0, uses_anonymous_args = 0
 314              		@ link register save eliminated.
 393:Generated_Source\PSoC4/ADC_1.c ****     #if(ADC_1_DEFAULT_SAMPLE_MODE_SEL == ADC_1__FREERUNNING)
 394:Generated_Source\PSoC4/ADC_1.c ****         ADC_1_SAR_SAMPLE_CTRL_REG |= ADC_1_CONTINUOUS_EN;
 315              		.loc 1 394 0
 316 0000 034A     		ldr	r2, .L20
 317 0002 1368     		ldr	r3, [r2]
 318 0004 8021     		movs	r1, #128
 319 0006 4902     		lsls	r1, r1, #9
 320 0008 0B43     		orrs	r3, r1
 321 000a 1360     		str	r3, [r2]
 395:Generated_Source\PSoC4/ADC_1.c ****     #else /* Firmware trigger */
 396:Generated_Source\PSoC4/ADC_1.c ****         ADC_1_SAR_START_CTRL_REG = ADC_1_FW_TRIGGER;
 397:Generated_Source\PSoC4/ADC_1.c ****     #endif /* End ADC_1_DEFAULT_SAMPLE_MODE == ADC_1__FREERUNNING */
 398:Generated_Source\PSoC4/ADC_1.c **** 
 399:Generated_Source\PSoC4/ADC_1.c **** }
 322              		.loc 1 399 0
 323              		@ sp needed
 324 000c 7047     		bx	lr
 325              	.L21:
 326 000e C046     		.align	2
 327              	.L20:
 328 0010 04001A40 		.word	1075445764
 329              		.cfi_endproc
 330              	.LFE4:
 331              		.size	ADC_1_StartConvert, .-ADC_1_StartConvert
 332              		.section	.text.ADC_1_StopConvert,"ax",%progbits
ARM GAS  C:\Users\Jeremias\AppData\Local\Temp\ccMyQl1F.s 			page 14


 333              		.align	2
 334              		.global	ADC_1_StopConvert
 335              		.code	16
 336              		.thumb_func
 337              		.type	ADC_1_StopConvert, %function
 338              	ADC_1_StopConvert:
 339              	.LFB5:
 400:Generated_Source\PSoC4/ADC_1.c **** 
 401:Generated_Source\PSoC4/ADC_1.c **** 
 402:Generated_Source\PSoC4/ADC_1.c **** /*******************************************************************************
 403:Generated_Source\PSoC4/ADC_1.c **** * Function Name: ADC_1_StopConvert
 404:Generated_Source\PSoC4/ADC_1.c **** ********************************************************************************
 405:Generated_Source\PSoC4/ADC_1.c **** *
 406:Generated_Source\PSoC4/ADC_1.c **** * Summary:
 407:Generated_Source\PSoC4/ADC_1.c **** *  Forces the ADC to stop all conversions.
 408:Generated_Source\PSoC4/ADC_1.c **** *
 409:Generated_Source\PSoC4/ADC_1.c **** * Parameters:
 410:Generated_Source\PSoC4/ADC_1.c **** *  None.
 411:Generated_Source\PSoC4/ADC_1.c **** *
 412:Generated_Source\PSoC4/ADC_1.c **** * Return:
 413:Generated_Source\PSoC4/ADC_1.c **** *  None.
 414:Generated_Source\PSoC4/ADC_1.c **** *
 415:Generated_Source\PSoC4/ADC_1.c **** *******************************************************************************/
 416:Generated_Source\PSoC4/ADC_1.c **** void ADC_1_StopConvert(void)
 417:Generated_Source\PSoC4/ADC_1.c **** {
 340              		.loc 1 417 0
 341              		.cfi_startproc
 342              		@ args = 0, pretend = 0, frame = 0
 343              		@ frame_needed = 0, uses_anonymous_args = 0
 344              		@ link register save eliminated.
 418:Generated_Source\PSoC4/ADC_1.c ****     #if(ADC_1_DEFAULT_SAMPLE_MODE_SEL == ADC_1__FREERUNNING)
 419:Generated_Source\PSoC4/ADC_1.c ****         ADC_1_SAR_SAMPLE_CTRL_REG &= (uint32)(~ADC_1_CONTINUOUS_EN);
 345              		.loc 1 419 0
 346 0000 024A     		ldr	r2, .L23
 347 0002 1168     		ldr	r1, [r2]
 348 0004 024B     		ldr	r3, .L23+4
 349 0006 0B40     		ands	r3, r1
 350 0008 1360     		str	r3, [r2]
 420:Generated_Source\PSoC4/ADC_1.c ****     #endif /* ADC_1_DEFAULT_SAMPLE_MODE == ADC_1__FREERUNNING */
 421:Generated_Source\PSoC4/ADC_1.c **** }
 351              		.loc 1 421 0
 352              		@ sp needed
 353 000a 7047     		bx	lr
 354              	.L24:
 355              		.align	2
 356              	.L23:
 357 000c 04001A40 		.word	1075445764
 358 0010 FFFFFEFF 		.word	-65537
 359              		.cfi_endproc
 360              	.LFE5:
 361              		.size	ADC_1_StopConvert, .-ADC_1_StopConvert
 362              		.section	.text.ADC_1_IsEndConversion,"ax",%progbits
 363              		.align	2
 364              		.global	ADC_1_IsEndConversion
 365              		.code	16
 366              		.thumb_func
 367              		.type	ADC_1_IsEndConversion, %function
ARM GAS  C:\Users\Jeremias\AppData\Local\Temp\ccMyQl1F.s 			page 15


 368              	ADC_1_IsEndConversion:
 369              	.LFB6:
 422:Generated_Source\PSoC4/ADC_1.c **** 
 423:Generated_Source\PSoC4/ADC_1.c **** 
 424:Generated_Source\PSoC4/ADC_1.c **** /*******************************************************************************
 425:Generated_Source\PSoC4/ADC_1.c **** * Function Name: ADC_1_IsEndConversion
 426:Generated_Source\PSoC4/ADC_1.c **** ********************************************************************************
 427:Generated_Source\PSoC4/ADC_1.c **** *
 428:Generated_Source\PSoC4/ADC_1.c **** * Summary:
 429:Generated_Source\PSoC4/ADC_1.c **** *  Description: Checks for ADC end of conversion for the case one
 430:Generated_Source\PSoC4/ADC_1.c **** *  channel and end of scan for the case of multiple channels. It acts
 431:Generated_Source\PSoC4/ADC_1.c **** *  as a software version of the EOC. This function provides the
 432:Generated_Source\PSoC4/ADC_1.c **** *  programmer with two options. In one mode this function
 433:Generated_Source\PSoC4/ADC_1.c **** *  immediately returns with the conversion status. In the other mode,
 434:Generated_Source\PSoC4/ADC_1.c **** *  the function does not return (blocking) until the conversion has
 435:Generated_Source\PSoC4/ADC_1.c **** *  completed.
 436:Generated_Source\PSoC4/ADC_1.c **** *
 437:Generated_Source\PSoC4/ADC_1.c **** * Parameters:
 438:Generated_Source\PSoC4/ADC_1.c **** *  ADC_RETURN_STATUS        -> Immediately returns conversion result status
 439:Generated_Source\PSoC4/ADC_1.c **** *  ADC_WAIT_FOR_RESULT      -> Does not return until ADC complete
 440:Generated_Source\PSoC4/ADC_1.c **** *  ADC_RETURN_STATUS_INJ    -> Immediately returns conversion result status
 441:Generated_Source\PSoC4/ADC_1.c **** *                              for injection channel
 442:Generated_Source\PSoC4/ADC_1.c **** *  ADC_WAIT_FOR_RESULT_INJ  -> Does not return until ADC completes injection
 443:Generated_Source\PSoC4/ADC_1.c **** *                              channel conversion
 444:Generated_Source\PSoC4/ADC_1.c **** *
 445:Generated_Source\PSoC4/ADC_1.c **** * Return:
 446:Generated_Source\PSoC4/ADC_1.c **** *  If a non-zero value is returned, the last conversion or scan has completed.
 447:Generated_Source\PSoC4/ADC_1.c **** *  If the returned value is zero, the ADC is still in the process of a scan.
 448:Generated_Source\PSoC4/ADC_1.c **** *
 449:Generated_Source\PSoC4/ADC_1.c **** *******************************************************************************/
 450:Generated_Source\PSoC4/ADC_1.c **** uint32 ADC_1_IsEndConversion(uint32 retMode)
 451:Generated_Source\PSoC4/ADC_1.c **** {
 370              		.loc 1 451 0
 371              		.cfi_startproc
 372              		@ args = 0, pretend = 0, frame = 0
 373              		@ frame_needed = 0, uses_anonymous_args = 0
 374              		@ link register save eliminated.
 375              	.LVL13:
 376 0000 0200     		movs	r2, r0
 377              	.LVL14:
 452:Generated_Source\PSoC4/ADC_1.c ****     uint32 status = 0u;
 453:Generated_Source\PSoC4/ADC_1.c **** 
 454:Generated_Source\PSoC4/ADC_1.c ****     if((retMode & (ADC_1_RETURN_STATUS | ADC_1_WAIT_FOR_RESULT)) != 0u)
 378              		.loc 1 454 0
 379 0002 8307     		lsls	r3, r0, #30
 380 0004 0CD0     		beq	.L29
 381              	.LVL15:
 382              	.L28:
 455:Generated_Source\PSoC4/ADC_1.c ****     {
 456:Generated_Source\PSoC4/ADC_1.c ****         do
 457:Generated_Source\PSoC4/ADC_1.c ****         {
 458:Generated_Source\PSoC4/ADC_1.c ****             status = ADC_1_SAR_INTR_REG & ADC_1_EOS_MASK;
 383              		.loc 1 458 0 discriminator 2
 384 0006 074B     		ldr	r3, .L30
 385 0008 1B68     		ldr	r3, [r3]
 386 000a 0120     		movs	r0, #1
 387 000c 1840     		ands	r0, r3
ARM GAS  C:\Users\Jeremias\AppData\Local\Temp\ccMyQl1F.s 			page 16


 388              	.LVL16:
 459:Generated_Source\PSoC4/ADC_1.c ****         }while((status == 0u) && ((retMode & ADC_1_WAIT_FOR_RESULT) != 0u));
 389              		.loc 1 459 0 discriminator 2
 390 000e 01D1     		bne	.L27
 391              		.loc 1 459 0 is_stmt 0 discriminator 1
 392 0010 9307     		lsls	r3, r2, #30
 393 0012 F8D4     		bmi	.L28
 394              	.L27:
 460:Generated_Source\PSoC4/ADC_1.c **** 
 461:Generated_Source\PSoC4/ADC_1.c ****         if(status != 0u)
 395              		.loc 1 461 0 is_stmt 1
 396 0014 0028     		cmp	r0, #0
 397 0016 04D0     		beq	.L26
 462:Generated_Source\PSoC4/ADC_1.c ****         {
 463:Generated_Source\PSoC4/ADC_1.c ****             /* Clear EOS bit */
 464:Generated_Source\PSoC4/ADC_1.c ****             ADC_1_SAR_INTR_REG = ADC_1_EOS_MASK;
 398              		.loc 1 464 0
 399 0018 0122     		movs	r2, #1
 400              	.LVL17:
 401 001a 024B     		ldr	r3, .L30
 402 001c 1A60     		str	r2, [r3]
 403 001e 00E0     		b	.L26
 404              	.LVL18:
 405              	.L29:
 452:Generated_Source\PSoC4/ADC_1.c **** 
 406              		.loc 1 452 0
 407 0020 0020     		movs	r0, #0
 408              	.LVL19:
 409              	.L26:
 465:Generated_Source\PSoC4/ADC_1.c ****         }
 466:Generated_Source\PSoC4/ADC_1.c ****     }
 467:Generated_Source\PSoC4/ADC_1.c **** 
 468:Generated_Source\PSoC4/ADC_1.c ****     #if(ADC_1_INJ_CHANNEL_ENABLED)
 469:Generated_Source\PSoC4/ADC_1.c ****         if((retMode & (ADC_1_RETURN_STATUS_INJ | ADC_1_WAIT_FOR_RESULT_INJ)) != 0u)
 470:Generated_Source\PSoC4/ADC_1.c ****         {
 471:Generated_Source\PSoC4/ADC_1.c ****             do
 472:Generated_Source\PSoC4/ADC_1.c ****             {
 473:Generated_Source\PSoC4/ADC_1.c ****                 status |= ADC_1_SAR_INTR_REG & ADC_1_INJ_EOC_MASK;
 474:Generated_Source\PSoC4/ADC_1.c ****             }while(((status & ADC_1_INJ_EOC_MASK) == 0u) &&
 475:Generated_Source\PSoC4/ADC_1.c ****                    ((retMode & ADC_1_WAIT_FOR_RESULT_INJ) != 0u));
 476:Generated_Source\PSoC4/ADC_1.c **** 
 477:Generated_Source\PSoC4/ADC_1.c ****             if((status & ADC_1_INJ_EOC_MASK) != 0u)
 478:Generated_Source\PSoC4/ADC_1.c ****             {
 479:Generated_Source\PSoC4/ADC_1.c ****                 /* Clear Injection EOS bit */
 480:Generated_Source\PSoC4/ADC_1.c ****                 ADC_1_SAR_INTR_REG = ADC_1_INJ_EOC_MASK;
 481:Generated_Source\PSoC4/ADC_1.c ****             }
 482:Generated_Source\PSoC4/ADC_1.c ****         }
 483:Generated_Source\PSoC4/ADC_1.c ****     #endif /* ADC_1_INJ_CHANNEL_ENABLED */
 484:Generated_Source\PSoC4/ADC_1.c **** 
 485:Generated_Source\PSoC4/ADC_1.c ****     return (status);
 486:Generated_Source\PSoC4/ADC_1.c **** }
 410              		.loc 1 486 0
 411              		@ sp needed
 412 0022 7047     		bx	lr
 413              	.L31:
 414              		.align	2
 415              	.L30:
ARM GAS  C:\Users\Jeremias\AppData\Local\Temp\ccMyQl1F.s 			page 17


 416 0024 10021A40 		.word	1075446288
 417              		.cfi_endproc
 418              	.LFE6:
 419              		.size	ADC_1_IsEndConversion, .-ADC_1_IsEndConversion
 420              		.section	.text.ADC_1_GetResult16,"ax",%progbits
 421              		.align	2
 422              		.global	ADC_1_GetResult16
 423              		.code	16
 424              		.thumb_func
 425              		.type	ADC_1_GetResult16, %function
 426              	ADC_1_GetResult16:
 427              	.LFB7:
 487:Generated_Source\PSoC4/ADC_1.c **** 
 488:Generated_Source\PSoC4/ADC_1.c **** 
 489:Generated_Source\PSoC4/ADC_1.c **** /*******************************************************************************
 490:Generated_Source\PSoC4/ADC_1.c **** * Function Name: ADC_1_GetResult16
 491:Generated_Source\PSoC4/ADC_1.c **** ********************************************************************************
 492:Generated_Source\PSoC4/ADC_1.c **** *
 493:Generated_Source\PSoC4/ADC_1.c **** * Summary:
 494:Generated_Source\PSoC4/ADC_1.c **** *  Gets the data available in the SAR DATA register.
 495:Generated_Source\PSoC4/ADC_1.c **** *
 496:Generated_Source\PSoC4/ADC_1.c **** * Parameters:
 497:Generated_Source\PSoC4/ADC_1.c **** *  chan: The ADC channel in which to return the result. The first channel
 498:Generated_Source\PSoC4/ADC_1.c **** *  is 0 and the injection channel if enabled is the number of valid channels.
 499:Generated_Source\PSoC4/ADC_1.c **** *
 500:Generated_Source\PSoC4/ADC_1.c **** * Return:
 501:Generated_Source\PSoC4/ADC_1.c **** *  Returns converted data as a signed 16-bit integer
 502:Generated_Source\PSoC4/ADC_1.c **** *
 503:Generated_Source\PSoC4/ADC_1.c **** *******************************************************************************/
 504:Generated_Source\PSoC4/ADC_1.c **** int16 ADC_1_GetResult16(uint32 chan)
 505:Generated_Source\PSoC4/ADC_1.c **** {
 428              		.loc 1 505 0
 429              		.cfi_startproc
 430              		@ args = 0, pretend = 0, frame = 0
 431              		@ frame_needed = 0, uses_anonymous_args = 0
 432              	.LVL20:
 433 0000 10B5     		push	{r4, lr}
 434              		.cfi_def_cfa_offset 8
 435              		.cfi_offset 4, -8
 436              		.cfi_offset 14, -4
 437 0002 041E     		subs	r4, r0, #0
 506:Generated_Source\PSoC4/ADC_1.c ****     uint32 result;
 507:Generated_Source\PSoC4/ADC_1.c **** 
 508:Generated_Source\PSoC4/ADC_1.c ****     /* Halt CPU in debug mode if channel is out of valid range */
 509:Generated_Source\PSoC4/ADC_1.c ****     CYASSERT(chan < ADC_1_TOTAL_CHANNELS_NUM);
 438              		.loc 1 509 0
 439 0004 02D0     		beq	.L33
 440              		.loc 1 509 0 is_stmt 0 discriminator 1
 441 0006 0020     		movs	r0, #0
 442              	.LVL21:
 443 0008 FFF7FEFF 		bl	CyHalt
 444              	.LVL22:
 445              	.L33:
 510:Generated_Source\PSoC4/ADC_1.c **** 
 511:Generated_Source\PSoC4/ADC_1.c ****     if(chan < ADC_1_SEQUENCED_CHANNELS_NUM)
 446              		.loc 1 511 0 is_stmt 1
 447 000c 002C     		cmp	r4, #0
ARM GAS  C:\Users\Jeremias\AppData\Local\Temp\ccMyQl1F.s 			page 18


 448 000e 07D1     		bne	.L35
 512:Generated_Source\PSoC4/ADC_1.c ****     {
 513:Generated_Source\PSoC4/ADC_1.c ****         result = CY_GET_REG32((reg32 *)(ADC_1_SAR_CHAN_RESULT_IND + (uint32)(chan << 2u))) &
 449              		.loc 1 513 0
 450 0010 A400     		lsls	r4, r4, #2
 451              	.LVL23:
 452 0012 054B     		ldr	r3, .L36
 453 0014 9C46     		mov	ip, r3
 454 0016 6444     		add	r4, r4, ip
 455 0018 2068     		ldr	r0, [r4]
 456 001a 0004     		lsls	r0, r0, #16
 457 001c 000C     		lsrs	r0, r0, #16
 458              	.LVL24:
 459 001e 00E0     		b	.L34
 460              	.LVL25:
 461              	.L35:
 514:Generated_Source\PSoC4/ADC_1.c ****                 ADC_1_RESULT_MASK;
 515:Generated_Source\PSoC4/ADC_1.c ****     }
 516:Generated_Source\PSoC4/ADC_1.c ****     else
 517:Generated_Source\PSoC4/ADC_1.c ****     {
 518:Generated_Source\PSoC4/ADC_1.c ****         #if(ADC_1_INJ_CHANNEL_ENABLED)
 519:Generated_Source\PSoC4/ADC_1.c ****             result = ADC_1_SAR_INJ_RESULT_REG & ADC_1_RESULT_MASK;
 520:Generated_Source\PSoC4/ADC_1.c ****         #else
 521:Generated_Source\PSoC4/ADC_1.c ****             result = 0u;
 462              		.loc 1 521 0
 463 0020 0020     		movs	r0, #0
 464              	.LVL26:
 465              	.L34:
 522:Generated_Source\PSoC4/ADC_1.c ****         #endif /* ADC_1_INJ_CHANNEL_ENABLED */
 523:Generated_Source\PSoC4/ADC_1.c ****     }
 524:Generated_Source\PSoC4/ADC_1.c **** 
 525:Generated_Source\PSoC4/ADC_1.c ****     return ( (int16)result );
 466              		.loc 1 525 0
 467 0022 00B2     		sxth	r0, r0
 468              	.LVL27:
 526:Generated_Source\PSoC4/ADC_1.c **** }
 469              		.loc 1 526 0
 470              		@ sp needed
 471 0024 10BD     		pop	{r4, pc}
 472              	.L37:
 473 0026 C046     		.align	2
 474              	.L36:
 475 0028 80011A40 		.word	1075446144
 476              		.cfi_endproc
 477              	.LFE7:
 478              		.size	ADC_1_GetResult16, .-ADC_1_GetResult16
 479              		.section	.text.ADC_1_SetChanMask,"ax",%progbits
 480              		.align	2
 481              		.global	ADC_1_SetChanMask
 482              		.code	16
 483              		.thumb_func
 484              		.type	ADC_1_SetChanMask, %function
 485              	ADC_1_SetChanMask:
 486              	.LFB8:
 527:Generated_Source\PSoC4/ADC_1.c **** 
 528:Generated_Source\PSoC4/ADC_1.c **** 
 529:Generated_Source\PSoC4/ADC_1.c **** /*******************************************************************************
ARM GAS  C:\Users\Jeremias\AppData\Local\Temp\ccMyQl1F.s 			page 19


 530:Generated_Source\PSoC4/ADC_1.c **** * Function Name: ADC_1_SetChanMask
 531:Generated_Source\PSoC4/ADC_1.c **** ********************************************************************************
 532:Generated_Source\PSoC4/ADC_1.c **** *
 533:Generated_Source\PSoC4/ADC_1.c **** * Summary:
 534:Generated_Source\PSoC4/ADC_1.c **** *  Sets the channel enable mask.
 535:Generated_Source\PSoC4/ADC_1.c **** *
 536:Generated_Source\PSoC4/ADC_1.c **** * Parameters:
 537:Generated_Source\PSoC4/ADC_1.c **** *  mask: Sets which channels that will be
 538:Generated_Source\PSoC4/ADC_1.c **** *  scanned. Setting bits for channels that do not exist will have no
 539:Generated_Source\PSoC4/ADC_1.c **** *  effect. For example, if only 6 channels were enabled, setting a
 540:Generated_Source\PSoC4/ADC_1.c **** *  mask of 0x0103 would only enable the last two channels (0 and 1).
 541:Generated_Source\PSoC4/ADC_1.c **** *  This API will not enable the injection channel.
 542:Generated_Source\PSoC4/ADC_1.c **** *  Examples: If the component is setup to sequence through 8
 543:Generated_Source\PSoC4/ADC_1.c **** *  channels, a mask of 0x000F would enable channels 0, 1, 2, and 3.
 544:Generated_Source\PSoC4/ADC_1.c **** *
 545:Generated_Source\PSoC4/ADC_1.c **** * Return:
 546:Generated_Source\PSoC4/ADC_1.c **** *  None.
 547:Generated_Source\PSoC4/ADC_1.c **** *
 548:Generated_Source\PSoC4/ADC_1.c **** *******************************************************************************/
 549:Generated_Source\PSoC4/ADC_1.c **** void ADC_1_SetChanMask(uint32 mask)
 550:Generated_Source\PSoC4/ADC_1.c **** {
 487              		.loc 1 550 0
 488              		.cfi_startproc
 489              		@ args = 0, pretend = 0, frame = 0
 490              		@ frame_needed = 0, uses_anonymous_args = 0
 491              		@ link register save eliminated.
 492              	.LVL28:
 551:Generated_Source\PSoC4/ADC_1.c ****     ADC_1_SAR_CHAN_EN_REG = mask & ADC_1_MAX_CHANNELS_EN_MASK;
 493              		.loc 1 551 0
 494 0000 0123     		movs	r3, #1
 495 0002 1840     		ands	r0, r3
 496              	.LVL29:
 497 0004 014B     		ldr	r3, .L39
 498 0006 1860     		str	r0, [r3]
 552:Generated_Source\PSoC4/ADC_1.c **** }
 499              		.loc 1 552 0
 500              		@ sp needed
 501 0008 7047     		bx	lr
 502              	.L40:
 503 000a C046     		.align	2
 504              	.L39:
 505 000c 20001A40 		.word	1075445792
 506              		.cfi_endproc
 507              	.LFE8:
 508              		.size	ADC_1_SetChanMask, .-ADC_1_SetChanMask
 509              		.section	.text.ADC_1_SetLowLimit,"ax",%progbits
 510              		.align	2
 511              		.global	ADC_1_SetLowLimit
 512              		.code	16
 513              		.thumb_func
 514              		.type	ADC_1_SetLowLimit, %function
 515              	ADC_1_SetLowLimit:
 516              	.LFB9:
 553:Generated_Source\PSoC4/ADC_1.c **** 
 554:Generated_Source\PSoC4/ADC_1.c **** #if(ADC_1_INJ_CHANNEL_ENABLED)
 555:Generated_Source\PSoC4/ADC_1.c **** 
 556:Generated_Source\PSoC4/ADC_1.c **** 
ARM GAS  C:\Users\Jeremias\AppData\Local\Temp\ccMyQl1F.s 			page 20


 557:Generated_Source\PSoC4/ADC_1.c ****     /*******************************************************************************
 558:Generated_Source\PSoC4/ADC_1.c ****     * Function Name: ADC_1_EnableInjection
 559:Generated_Source\PSoC4/ADC_1.c ****     ********************************************************************************
 560:Generated_Source\PSoC4/ADC_1.c ****     *
 561:Generated_Source\PSoC4/ADC_1.c ****     * Summary:
 562:Generated_Source\PSoC4/ADC_1.c ****     *  Enables the injection channel for the next scan only.
 563:Generated_Source\PSoC4/ADC_1.c ****     *
 564:Generated_Source\PSoC4/ADC_1.c ****     * Parameters:
 565:Generated_Source\PSoC4/ADC_1.c ****     *  None.
 566:Generated_Source\PSoC4/ADC_1.c ****     *
 567:Generated_Source\PSoC4/ADC_1.c ****     * Return:
 568:Generated_Source\PSoC4/ADC_1.c ****     *  None.
 569:Generated_Source\PSoC4/ADC_1.c ****     *
 570:Generated_Source\PSoC4/ADC_1.c ****     *******************************************************************************/
 571:Generated_Source\PSoC4/ADC_1.c ****     void ADC_1_EnableInjection(void)
 572:Generated_Source\PSoC4/ADC_1.c ****     {
 573:Generated_Source\PSoC4/ADC_1.c ****         ADC_1_SAR_INJ_CHAN_CONFIG_REG |= ADC_1_INJ_CHAN_EN;
 574:Generated_Source\PSoC4/ADC_1.c ****     }
 575:Generated_Source\PSoC4/ADC_1.c **** 
 576:Generated_Source\PSoC4/ADC_1.c **** #endif /* ADC_1_INJ_CHANNEL_ENABLED */
 577:Generated_Source\PSoC4/ADC_1.c **** 
 578:Generated_Source\PSoC4/ADC_1.c **** 
 579:Generated_Source\PSoC4/ADC_1.c **** /*******************************************************************************
 580:Generated_Source\PSoC4/ADC_1.c **** * Function Name: ADC_1_SetLowLimit
 581:Generated_Source\PSoC4/ADC_1.c **** ********************************************************************************
 582:Generated_Source\PSoC4/ADC_1.c **** *
 583:Generated_Source\PSoC4/ADC_1.c **** * Summary:
 584:Generated_Source\PSoC4/ADC_1.c **** *  Sets the low limit parameter for a limit condition.
 585:Generated_Source\PSoC4/ADC_1.c **** *
 586:Generated_Source\PSoC4/ADC_1.c **** * Parameters:
 587:Generated_Source\PSoC4/ADC_1.c **** *  lowLimit: The low limit for a limit condition.
 588:Generated_Source\PSoC4/ADC_1.c **** *
 589:Generated_Source\PSoC4/ADC_1.c **** * Return:
 590:Generated_Source\PSoC4/ADC_1.c **** *  None.
 591:Generated_Source\PSoC4/ADC_1.c **** *
 592:Generated_Source\PSoC4/ADC_1.c **** *******************************************************************************/
 593:Generated_Source\PSoC4/ADC_1.c **** void ADC_1_SetLowLimit(uint32 lowLimit)
 594:Generated_Source\PSoC4/ADC_1.c **** {
 517              		.loc 1 594 0
 518              		.cfi_startproc
 519              		@ args = 0, pretend = 0, frame = 0
 520              		@ frame_needed = 0, uses_anonymous_args = 0
 521              		@ link register save eliminated.
 522              	.LVL30:
 595:Generated_Source\PSoC4/ADC_1.c ****     ADC_1_SAR_RANGE_THRES_REG &= (uint32)(~ADC_1_RANGE_LOW_MASK);
 523              		.loc 1 595 0
 524 0000 054A     		ldr	r2, .L42
 525 0002 1368     		ldr	r3, [r2]
 526 0004 1B0C     		lsrs	r3, r3, #16
 527 0006 1B04     		lsls	r3, r3, #16
 528 0008 1360     		str	r3, [r2]
 596:Generated_Source\PSoC4/ADC_1.c ****     ADC_1_SAR_RANGE_THRES_REG |= lowLimit & ADC_1_RANGE_LOW_MASK;
 529              		.loc 1 596 0
 530 000a 1368     		ldr	r3, [r2]
 531 000c 0004     		lsls	r0, r0, #16
 532              	.LVL31:
 533 000e 000C     		lsrs	r0, r0, #16
ARM GAS  C:\Users\Jeremias\AppData\Local\Temp\ccMyQl1F.s 			page 21


 534 0010 1843     		orrs	r0, r3
 535 0012 1060     		str	r0, [r2]
 597:Generated_Source\PSoC4/ADC_1.c **** }
 536              		.loc 1 597 0
 537              		@ sp needed
 538 0014 7047     		bx	lr
 539              	.L43:
 540 0016 C046     		.align	2
 541              	.L42:
 542 0018 18001A40 		.word	1075445784
 543              		.cfi_endproc
 544              	.LFE9:
 545              		.size	ADC_1_SetLowLimit, .-ADC_1_SetLowLimit
 546              		.section	.text.ADC_1_SetHighLimit,"ax",%progbits
 547              		.align	2
 548              		.global	ADC_1_SetHighLimit
 549              		.code	16
 550              		.thumb_func
 551              		.type	ADC_1_SetHighLimit, %function
 552              	ADC_1_SetHighLimit:
 553              	.LFB10:
 598:Generated_Source\PSoC4/ADC_1.c **** 
 599:Generated_Source\PSoC4/ADC_1.c **** 
 600:Generated_Source\PSoC4/ADC_1.c **** /*******************************************************************************
 601:Generated_Source\PSoC4/ADC_1.c **** * Function Name: ADC_1_SetHighLimit
 602:Generated_Source\PSoC4/ADC_1.c **** ********************************************************************************
 603:Generated_Source\PSoC4/ADC_1.c **** *
 604:Generated_Source\PSoC4/ADC_1.c **** * Summary:
 605:Generated_Source\PSoC4/ADC_1.c **** *  Sets the low limit parameter for a limit condition.
 606:Generated_Source\PSoC4/ADC_1.c **** *
 607:Generated_Source\PSoC4/ADC_1.c **** * Parameters:
 608:Generated_Source\PSoC4/ADC_1.c **** *  highLimit: The high limit for a limit condition.
 609:Generated_Source\PSoC4/ADC_1.c **** *
 610:Generated_Source\PSoC4/ADC_1.c **** * Return:
 611:Generated_Source\PSoC4/ADC_1.c **** *  None.
 612:Generated_Source\PSoC4/ADC_1.c **** *
 613:Generated_Source\PSoC4/ADC_1.c **** *******************************************************************************/
 614:Generated_Source\PSoC4/ADC_1.c **** void ADC_1_SetHighLimit(uint32 highLimit)
 615:Generated_Source\PSoC4/ADC_1.c **** {
 554              		.loc 1 615 0
 555              		.cfi_startproc
 556              		@ args = 0, pretend = 0, frame = 0
 557              		@ frame_needed = 0, uses_anonymous_args = 0
 558              		@ link register save eliminated.
 559              	.LVL32:
 616:Generated_Source\PSoC4/ADC_1.c ****     ADC_1_SAR_RANGE_THRES_REG &= (uint32)(~ADC_1_RANGE_HIGH_MASK);
 560              		.loc 1 616 0
 561 0000 044A     		ldr	r2, .L45
 562 0002 1368     		ldr	r3, [r2]
 563 0004 1B04     		lsls	r3, r3, #16
 564 0006 1B0C     		lsrs	r3, r3, #16
 565 0008 1360     		str	r3, [r2]
 617:Generated_Source\PSoC4/ADC_1.c ****     ADC_1_SAR_RANGE_THRES_REG |= (uint32)(highLimit << ADC_1_RANGE_HIGH_OFFSET);
 566              		.loc 1 617 0
 567 000a 1368     		ldr	r3, [r2]
 568 000c 0004     		lsls	r0, r0, #16
 569              	.LVL33:
ARM GAS  C:\Users\Jeremias\AppData\Local\Temp\ccMyQl1F.s 			page 22


 570 000e 1843     		orrs	r0, r3
 571 0010 1060     		str	r0, [r2]
 618:Generated_Source\PSoC4/ADC_1.c **** }
 572              		.loc 1 618 0
 573              		@ sp needed
 574 0012 7047     		bx	lr
 575              	.L46:
 576              		.align	2
 577              	.L45:
 578 0014 18001A40 		.word	1075445784
 579              		.cfi_endproc
 580              	.LFE10:
 581              		.size	ADC_1_SetHighLimit, .-ADC_1_SetHighLimit
 582              		.section	.text.ADC_1_SetLimitMask,"ax",%progbits
 583              		.align	2
 584              		.global	ADC_1_SetLimitMask
 585              		.code	16
 586              		.thumb_func
 587              		.type	ADC_1_SetLimitMask, %function
 588              	ADC_1_SetLimitMask:
 589              	.LFB11:
 619:Generated_Source\PSoC4/ADC_1.c **** 
 620:Generated_Source\PSoC4/ADC_1.c **** 
 621:Generated_Source\PSoC4/ADC_1.c **** /*******************************************************************************
 622:Generated_Source\PSoC4/ADC_1.c **** * Function Name: ADC_1_SetLimitMask
 623:Generated_Source\PSoC4/ADC_1.c **** ********************************************************************************
 624:Generated_Source\PSoC4/ADC_1.c **** *
 625:Generated_Source\PSoC4/ADC_1.c **** * Summary:
 626:Generated_Source\PSoC4/ADC_1.c **** *  Sets the channel limit condition mask.
 627:Generated_Source\PSoC4/ADC_1.c **** *
 628:Generated_Source\PSoC4/ADC_1.c **** * Parameters:
 629:Generated_Source\PSoC4/ADC_1.c **** *  mask: Sets which channels that may cause a
 630:Generated_Source\PSoC4/ADC_1.c **** *  limit condition interrupt. Setting bits for channels that do not exist
 631:Generated_Source\PSoC4/ADC_1.c **** *  will have no effect. For example, if only 6 channels were enabled,
 632:Generated_Source\PSoC4/ADC_1.c **** *  setting a mask of 0x0103 would only enable the last two channels (0 and 1).
 633:Generated_Source\PSoC4/ADC_1.c **** *
 634:Generated_Source\PSoC4/ADC_1.c **** * Return:
 635:Generated_Source\PSoC4/ADC_1.c **** *  None.
 636:Generated_Source\PSoC4/ADC_1.c **** *
 637:Generated_Source\PSoC4/ADC_1.c **** *******************************************************************************/
 638:Generated_Source\PSoC4/ADC_1.c **** void ADC_1_SetLimitMask(uint32 mask)
 639:Generated_Source\PSoC4/ADC_1.c **** {
 590              		.loc 1 639 0
 591              		.cfi_startproc
 592              		@ args = 0, pretend = 0, frame = 0
 593              		@ frame_needed = 0, uses_anonymous_args = 0
 594              		@ link register save eliminated.
 595              	.LVL34:
 640:Generated_Source\PSoC4/ADC_1.c ****     ADC_1_SAR_RANGE_INTR_MASK_REG = mask & ADC_1_MAX_CHANNELS_EN_MASK;
 596              		.loc 1 640 0
 597 0000 0123     		movs	r3, #1
 598 0002 1840     		ands	r0, r3
 599              	.LVL35:
 600 0004 014B     		ldr	r3, .L48
 601 0006 1860     		str	r0, [r3]
 641:Generated_Source\PSoC4/ADC_1.c **** }
 602              		.loc 1 641 0
ARM GAS  C:\Users\Jeremias\AppData\Local\Temp\ccMyQl1F.s 			page 23


 603              		@ sp needed
 604 0008 7047     		bx	lr
 605              	.L49:
 606 000a C046     		.align	2
 607              	.L48:
 608 000c 38021A40 		.word	1075446328
 609              		.cfi_endproc
 610              	.LFE11:
 611              		.size	ADC_1_SetLimitMask, .-ADC_1_SetLimitMask
 612              		.section	.text.ADC_1_SetSatMask,"ax",%progbits
 613              		.align	2
 614              		.global	ADC_1_SetSatMask
 615              		.code	16
 616              		.thumb_func
 617              		.type	ADC_1_SetSatMask, %function
 618              	ADC_1_SetSatMask:
 619              	.LFB12:
 642:Generated_Source\PSoC4/ADC_1.c **** 
 643:Generated_Source\PSoC4/ADC_1.c **** 
 644:Generated_Source\PSoC4/ADC_1.c **** /*******************************************************************************
 645:Generated_Source\PSoC4/ADC_1.c **** * Function Name: ADC_1_SetSatMask
 646:Generated_Source\PSoC4/ADC_1.c **** ********************************************************************************
 647:Generated_Source\PSoC4/ADC_1.c **** *
 648:Generated_Source\PSoC4/ADC_1.c **** * Summary:
 649:Generated_Source\PSoC4/ADC_1.c **** *  Sets the channel saturation event mask.
 650:Generated_Source\PSoC4/ADC_1.c **** *
 651:Generated_Source\PSoC4/ADC_1.c **** * Parameters:
 652:Generated_Source\PSoC4/ADC_1.c **** *  mask: Sets which channels that may cause a
 653:Generated_Source\PSoC4/ADC_1.c **** *  saturation event interrupt. Setting bits for channels that do not exist
 654:Generated_Source\PSoC4/ADC_1.c **** *  will have no effect. For example, if only 8 channels were enabled,
 655:Generated_Source\PSoC4/ADC_1.c **** *  setting a mask of 0x01C0 would only enable two channels (6 and 7).
 656:Generated_Source\PSoC4/ADC_1.c **** *
 657:Generated_Source\PSoC4/ADC_1.c **** * Return:
 658:Generated_Source\PSoC4/ADC_1.c **** *  None.
 659:Generated_Source\PSoC4/ADC_1.c **** *
 660:Generated_Source\PSoC4/ADC_1.c **** *******************************************************************************/
 661:Generated_Source\PSoC4/ADC_1.c **** void ADC_1_SetSatMask(uint32 mask)
 662:Generated_Source\PSoC4/ADC_1.c **** {
 620              		.loc 1 662 0
 621              		.cfi_startproc
 622              		@ args = 0, pretend = 0, frame = 0
 623              		@ frame_needed = 0, uses_anonymous_args = 0
 624              		@ link register save eliminated.
 625              	.LVL36:
 663:Generated_Source\PSoC4/ADC_1.c ****     ADC_1_SAR_SATURATE_INTR_MASK_REG = mask & ADC_1_MAX_CHANNELS_EN_MASK;
 626              		.loc 1 663 0
 627 0000 0123     		movs	r3, #1
 628 0002 1840     		ands	r0, r3
 629              	.LVL37:
 630 0004 014B     		ldr	r3, .L51
 631 0006 1860     		str	r0, [r3]
 664:Generated_Source\PSoC4/ADC_1.c **** }
 632              		.loc 1 664 0
 633              		@ sp needed
 634 0008 7047     		bx	lr
 635              	.L52:
 636 000a C046     		.align	2
ARM GAS  C:\Users\Jeremias\AppData\Local\Temp\ccMyQl1F.s 			page 24


 637              	.L51:
 638 000c 28021A40 		.word	1075446312
 639              		.cfi_endproc
 640              	.LFE12:
 641              		.size	ADC_1_SetSatMask, .-ADC_1_SetSatMask
 642              		.section	.text.ADC_1_SetOffset,"ax",%progbits
 643              		.align	2
 644              		.global	ADC_1_SetOffset
 645              		.code	16
 646              		.thumb_func
 647              		.type	ADC_1_SetOffset, %function
 648              	ADC_1_SetOffset:
 649              	.LFB13:
 665:Generated_Source\PSoC4/ADC_1.c **** 
 666:Generated_Source\PSoC4/ADC_1.c **** 
 667:Generated_Source\PSoC4/ADC_1.c **** /*******************************************************************************
 668:Generated_Source\PSoC4/ADC_1.c **** * Function Name: ADC_1_SetOffset
 669:Generated_Source\PSoC4/ADC_1.c **** ********************************************************************************
 670:Generated_Source\PSoC4/ADC_1.c **** *
 671:Generated_Source\PSoC4/ADC_1.c **** * Summary:
 672:Generated_Source\PSoC4/ADC_1.c **** *   Description: Sets the ADC offset which is used by the functions
 673:Generated_Source\PSoC4/ADC_1.c **** *   ADC_CountsTo_uVolts, ADC_CountsTo_mVolts and ADC_CountsTo_Volts
 674:Generated_Source\PSoC4/ADC_1.c **** *   to substract the offset from the given reading
 675:Generated_Source\PSoC4/ADC_1.c **** *   before calculating the voltage conversion.
 676:Generated_Source\PSoC4/ADC_1.c **** *
 677:Generated_Source\PSoC4/ADC_1.c **** * Parameters:
 678:Generated_Source\PSoC4/ADC_1.c **** *  chan: ADC channel number.
 679:Generated_Source\PSoC4/ADC_1.c **** *  offset: This value is a measured value when the
 680:Generated_Source\PSoC4/ADC_1.c **** *          inputs are shorted or connected to the same input voltage.
 681:Generated_Source\PSoC4/ADC_1.c **** *
 682:Generated_Source\PSoC4/ADC_1.c **** * Return:
 683:Generated_Source\PSoC4/ADC_1.c **** *  None.
 684:Generated_Source\PSoC4/ADC_1.c **** *
 685:Generated_Source\PSoC4/ADC_1.c **** * Global variables:
 686:Generated_Source\PSoC4/ADC_1.c **** *  ADC_1_Offset:  Modified to set the user provided offset.
 687:Generated_Source\PSoC4/ADC_1.c **** *
 688:Generated_Source\PSoC4/ADC_1.c **** *******************************************************************************/
 689:Generated_Source\PSoC4/ADC_1.c **** void ADC_1_SetOffset(uint32 chan, int16 offset)
 690:Generated_Source\PSoC4/ADC_1.c **** {
 650              		.loc 1 690 0
 651              		.cfi_startproc
 652              		@ args = 0, pretend = 0, frame = 0
 653              		@ frame_needed = 0, uses_anonymous_args = 0
 654              	.LVL38:
 655 0000 70B5     		push	{r4, r5, r6, lr}
 656              		.cfi_def_cfa_offset 16
 657              		.cfi_offset 4, -16
 658              		.cfi_offset 5, -12
 659              		.cfi_offset 6, -8
 660              		.cfi_offset 14, -4
 661 0002 0400     		movs	r4, r0
 662 0004 0D00     		movs	r5, r1
 691:Generated_Source\PSoC4/ADC_1.c ****     /* Halt CPU in debug mode if channel is out of valid range */
 692:Generated_Source\PSoC4/ADC_1.c ****     CYASSERT(chan < ADC_1_TOTAL_CHANNELS_NUM);
 663              		.loc 1 692 0
 664 0006 0028     		cmp	r0, #0
 665 0008 02D0     		beq	.L54
ARM GAS  C:\Users\Jeremias\AppData\Local\Temp\ccMyQl1F.s 			page 25


 666              		.loc 1 692 0 is_stmt 0 discriminator 1
 667 000a 0020     		movs	r0, #0
 668              	.LVL39:
 669 000c FFF7FEFF 		bl	CyHalt
 670              	.LVL40:
 671              	.L54:
 693:Generated_Source\PSoC4/ADC_1.c **** 
 694:Generated_Source\PSoC4/ADC_1.c ****     ADC_1_offset[chan] = offset;
 672              		.loc 1 694 0 is_stmt 1
 673 0010 6400     		lsls	r4, r4, #1
 674              	.LVL41:
 675 0012 014B     		ldr	r3, .L55
 676 0014 E552     		strh	r5, [r4, r3]
 695:Generated_Source\PSoC4/ADC_1.c **** }
 677              		.loc 1 695 0
 678              		@ sp needed
 679 0016 70BD     		pop	{r4, r5, r6, pc}
 680              	.L56:
 681              		.align	2
 682              	.L55:
 683 0018 00000000 		.word	ADC_1_offset
 684              		.cfi_endproc
 685              	.LFE13:
 686              		.size	ADC_1_SetOffset, .-ADC_1_SetOffset
 687              		.section	.text.ADC_1_SetGain,"ax",%progbits
 688              		.align	2
 689              		.global	ADC_1_SetGain
 690              		.code	16
 691              		.thumb_func
 692              		.type	ADC_1_SetGain, %function
 693              	ADC_1_SetGain:
 694              	.LFB14:
 696:Generated_Source\PSoC4/ADC_1.c **** 
 697:Generated_Source\PSoC4/ADC_1.c **** 
 698:Generated_Source\PSoC4/ADC_1.c **** /*******************************************************************************
 699:Generated_Source\PSoC4/ADC_1.c **** * Function Name: ADC_1_SetGain
 700:Generated_Source\PSoC4/ADC_1.c **** ********************************************************************************
 701:Generated_Source\PSoC4/ADC_1.c **** *
 702:Generated_Source\PSoC4/ADC_1.c **** * Summary:
 703:Generated_Source\PSoC4/ADC_1.c **** *  Description: Sets the ADC gain in counts per 10 volt for the voltage
 704:Generated_Source\PSoC4/ADC_1.c **** *  conversion functions below. This value is set by default by the
 705:Generated_Source\PSoC4/ADC_1.c **** *  reference and input range settings. It should only be used to further
 706:Generated_Source\PSoC4/ADC_1.c **** *  calibrate the ADC with a known input or if an external reference is
 707:Generated_Source\PSoC4/ADC_1.c **** *  used. Affects the ADC_CountsTo_uVolts, ADC_CountsTo_mVolts
 708:Generated_Source\PSoC4/ADC_1.c **** *  and ADC_CountsTo_Volts functions by supplying the correct
 709:Generated_Source\PSoC4/ADC_1.c **** *  conversion between ADC counts and voltage.
 710:Generated_Source\PSoC4/ADC_1.c **** *
 711:Generated_Source\PSoC4/ADC_1.c **** * Parameters:
 712:Generated_Source\PSoC4/ADC_1.c **** *  chan: ADC channel number.
 713:Generated_Source\PSoC4/ADC_1.c **** *  adcGain: ADC gain in counts per 10 volts.
 714:Generated_Source\PSoC4/ADC_1.c **** *
 715:Generated_Source\PSoC4/ADC_1.c **** * Return:
 716:Generated_Source\PSoC4/ADC_1.c **** *  None.
 717:Generated_Source\PSoC4/ADC_1.c **** *
 718:Generated_Source\PSoC4/ADC_1.c **** * Global variables:
 719:Generated_Source\PSoC4/ADC_1.c **** *  ADC_1_CountsPer10Volt:  modified to set the ADC gain in counts
 720:Generated_Source\PSoC4/ADC_1.c **** *   per 10 volt.
ARM GAS  C:\Users\Jeremias\AppData\Local\Temp\ccMyQl1F.s 			page 26


 721:Generated_Source\PSoC4/ADC_1.c **** *
 722:Generated_Source\PSoC4/ADC_1.c **** *******************************************************************************/
 723:Generated_Source\PSoC4/ADC_1.c **** void ADC_1_SetGain(uint32 chan, int32 adcGain)
 724:Generated_Source\PSoC4/ADC_1.c **** {
 695              		.loc 1 724 0
 696              		.cfi_startproc
 697              		@ args = 0, pretend = 0, frame = 0
 698              		@ frame_needed = 0, uses_anonymous_args = 0
 699              	.LVL42:
 700 0000 70B5     		push	{r4, r5, r6, lr}
 701              		.cfi_def_cfa_offset 16
 702              		.cfi_offset 4, -16
 703              		.cfi_offset 5, -12
 704              		.cfi_offset 6, -8
 705              		.cfi_offset 14, -4
 706 0002 0400     		movs	r4, r0
 707 0004 0D00     		movs	r5, r1
 725:Generated_Source\PSoC4/ADC_1.c ****     /* Halt CPU in debug mode if channel is out of valid range */
 726:Generated_Source\PSoC4/ADC_1.c ****     CYASSERT(chan < ADC_1_TOTAL_CHANNELS_NUM);
 708              		.loc 1 726 0
 709 0006 0028     		cmp	r0, #0
 710 0008 02D0     		beq	.L58
 711              		.loc 1 726 0 is_stmt 0 discriminator 1
 712 000a 0020     		movs	r0, #0
 713              	.LVL43:
 714 000c FFF7FEFF 		bl	CyHalt
 715              	.LVL44:
 716              	.L58:
 727:Generated_Source\PSoC4/ADC_1.c **** 
 728:Generated_Source\PSoC4/ADC_1.c ****     ADC_1_countsPer10Volt[chan] = adcGain;
 717              		.loc 1 728 0 is_stmt 1
 718 0010 A400     		lsls	r4, r4, #2
 719              	.LVL45:
 720 0012 014B     		ldr	r3, .L59
 721 0014 E550     		str	r5, [r4, r3]
 729:Generated_Source\PSoC4/ADC_1.c **** }
 722              		.loc 1 729 0
 723              		@ sp needed
 724              	.LVL46:
 725 0016 70BD     		pop	{r4, r5, r6, pc}
 726              	.L60:
 727              		.align	2
 728              	.L59:
 729 0018 00000000 		.word	ADC_1_countsPer10Volt
 730              		.cfi_endproc
 731              	.LFE14:
 732              		.size	ADC_1_SetGain, .-ADC_1_SetGain
 733              		.global	__aeabi_idiv
 734              		.section	.text.ADC_1_CountsTo_mVolts,"ax",%progbits
 735              		.align	2
 736              		.global	ADC_1_CountsTo_mVolts
 737              		.code	16
 738              		.thumb_func
 739              		.type	ADC_1_CountsTo_mVolts, %function
 740              	ADC_1_CountsTo_mVolts:
 741              	.LFB15:
 730:Generated_Source\PSoC4/ADC_1.c **** 
ARM GAS  C:\Users\Jeremias\AppData\Local\Temp\ccMyQl1F.s 			page 27


 731:Generated_Source\PSoC4/ADC_1.c **** 
 732:Generated_Source\PSoC4/ADC_1.c **** #if(ADC_1_DEFAULT_JUSTIFICATION_SEL == ADC_1__RIGHT)
 733:Generated_Source\PSoC4/ADC_1.c **** 
 734:Generated_Source\PSoC4/ADC_1.c **** 
 735:Generated_Source\PSoC4/ADC_1.c ****     /*******************************************************************************
 736:Generated_Source\PSoC4/ADC_1.c ****     * Function Name: ADC_1_CountsTo_mVolts
 737:Generated_Source\PSoC4/ADC_1.c ****     ********************************************************************************
 738:Generated_Source\PSoC4/ADC_1.c ****     *
 739:Generated_Source\PSoC4/ADC_1.c ****     * Summary:
 740:Generated_Source\PSoC4/ADC_1.c ****     *  This function converts ADC counts to mVolts
 741:Generated_Source\PSoC4/ADC_1.c ****     *  This function is not available when left data format justification selected.
 742:Generated_Source\PSoC4/ADC_1.c ****     *
 743:Generated_Source\PSoC4/ADC_1.c ****     * Parameters:
 744:Generated_Source\PSoC4/ADC_1.c ****     *  chan: The ADC channel number.
 745:Generated_Source\PSoC4/ADC_1.c ****     *  adcCounts: Result from the ADC conversion
 746:Generated_Source\PSoC4/ADC_1.c ****     *
 747:Generated_Source\PSoC4/ADC_1.c ****     * Return:
 748:Generated_Source\PSoC4/ADC_1.c ****     *  Results in mVolts
 749:Generated_Source\PSoC4/ADC_1.c ****     *
 750:Generated_Source\PSoC4/ADC_1.c ****     * Global variables:
 751:Generated_Source\PSoC4/ADC_1.c ****     *  ADC_1_countsPer10Volt:  used to convert ADC counts to mVolts.
 752:Generated_Source\PSoC4/ADC_1.c ****     *  ADC_1_Offset:  Used as the offset while converting ADC counts
 753:Generated_Source\PSoC4/ADC_1.c ****     *   to mVolts.
 754:Generated_Source\PSoC4/ADC_1.c ****     *
 755:Generated_Source\PSoC4/ADC_1.c ****     *******************************************************************************/
 756:Generated_Source\PSoC4/ADC_1.c ****     int16 ADC_1_CountsTo_mVolts(uint32 chan, int16 adcCounts)
 757:Generated_Source\PSoC4/ADC_1.c ****     {
 742              		.loc 1 757 0
 743              		.cfi_startproc
 744              		@ args = 0, pretend = 0, frame = 0
 745              		@ frame_needed = 0, uses_anonymous_args = 0
 746              	.LVL47:
 747 0000 70B5     		push	{r4, r5, r6, lr}
 748              		.cfi_def_cfa_offset 16
 749              		.cfi_offset 4, -16
 750              		.cfi_offset 5, -12
 751              		.cfi_offset 6, -8
 752              		.cfi_offset 14, -4
 753 0002 0400     		movs	r4, r0
 754 0004 0D00     		movs	r5, r1
 758:Generated_Source\PSoC4/ADC_1.c ****         int16 mVolts;
 759:Generated_Source\PSoC4/ADC_1.c **** 
 760:Generated_Source\PSoC4/ADC_1.c ****         /* Halt CPU in debug mode if channel is out of valid range */
 761:Generated_Source\PSoC4/ADC_1.c ****         CYASSERT(chan < ADC_1_TOTAL_CHANNELS_NUM);
 755              		.loc 1 761 0
 756 0006 0028     		cmp	r0, #0
 757 0008 02D0     		beq	.L62
 758              		.loc 1 761 0 is_stmt 0 discriminator 1
 759 000a 0020     		movs	r0, #0
 760              	.LVL48:
 761 000c FFF7FEFF 		bl	CyHalt
 762              	.LVL49:
 763              	.L62:
 762:Generated_Source\PSoC4/ADC_1.c **** 
 763:Generated_Source\PSoC4/ADC_1.c ****         /* Divide the adcCount when accumulate averaging mode selected */
 764:Generated_Source\PSoC4/ADC_1.c ****         #if(ADC_1_DEFAULT_AVG_MODE == ADC_1__ACCUMULATE)
 765:Generated_Source\PSoC4/ADC_1.c ****             if((ADC_1_channelsConfig[chan] & ADC_1_AVERAGING_EN) != 0u)
ARM GAS  C:\Users\Jeremias\AppData\Local\Temp\ccMyQl1F.s 			page 28


 766:Generated_Source\PSoC4/ADC_1.c ****             {
 767:Generated_Source\PSoC4/ADC_1.c ****                 adcCounts /= ADC_1_DEFAULT_AVG_SAMPLES_DIV;
 768:Generated_Source\PSoC4/ADC_1.c ****             }
 769:Generated_Source\PSoC4/ADC_1.c ****         #endif /* ADC_1_DEFAULT_AVG_MODE == ADC_1__ACCUMULATE */
 770:Generated_Source\PSoC4/ADC_1.c **** 
 771:Generated_Source\PSoC4/ADC_1.c ****         /* Subtract ADC offset */
 772:Generated_Source\PSoC4/ADC_1.c ****         adcCounts -= ADC_1_offset[chan];
 764              		.loc 1 772 0 is_stmt 1
 765 0010 6300     		lsls	r3, r4, #1
 766 0012 0F4A     		ldr	r2, .L65
 767 0014 995A     		ldrh	r1, [r3, r2]
 768 0016 09B2     		sxth	r1, r1
 769 0018 691A     		subs	r1, r5, r1
 770 001a 09B2     		sxth	r1, r1
 771              	.LVL50:
 773:Generated_Source\PSoC4/ADC_1.c **** 
 774:Generated_Source\PSoC4/ADC_1.c ****         mVolts = (int16)((((int32)adcCounts * ADC_1_10MV_COUNTS) + ( (adcCounts > 0) ?
 772              		.loc 1 774 0
 773 001c 0D48     		ldr	r0, .L65+4
 774 001e 4843     		muls	r0, r1
 775:Generated_Source\PSoC4/ADC_1.c ****                  (ADC_1_countsPer10Volt[chan] / 2) : (-(ADC_1_countsPer10Volt[chan] / 2)) ))
 775              		.loc 1 775 0
 776 0020 0029     		cmp	r1, #0
 777 0022 06DD     		ble	.L63
 778              		.loc 1 775 0 is_stmt 0 discriminator 1
 779 0024 A300     		lsls	r3, r4, #2
 780 0026 0C4A     		ldr	r2, .L65+8
 781 0028 9A58     		ldr	r2, [r3, r2]
 782 002a D30F     		lsrs	r3, r2, #31
 783 002c 9A18     		adds	r2, r3, r2
 784 002e 5310     		asrs	r3, r2, #1
 785 0030 06E0     		b	.L64
 786              	.L63:
 787              		.loc 1 775 0 discriminator 2
 788 0032 A300     		lsls	r3, r4, #2
 789 0034 084A     		ldr	r2, .L65+8
 790 0036 9A58     		ldr	r2, [r3, r2]
 791 0038 D30F     		lsrs	r3, r2, #31
 792 003a 9A18     		adds	r2, r3, r2
 793 003c 5210     		asrs	r2, r2, #1
 794 003e 5342     		rsbs	r3, r2, #0
 795              	.L64:
 774:Generated_Source\PSoC4/ADC_1.c ****                  (ADC_1_countsPer10Volt[chan] / 2) : (-(ADC_1_countsPer10Volt[chan] / 2)) ))
 796              		.loc 1 774 0 is_stmt 1
 797 0040 1818     		adds	r0, r3, r0
 776:Generated_Source\PSoC4/ADC_1.c ****                  / ADC_1_countsPer10Volt[chan]);
 798              		.loc 1 776 0
 799 0042 A400     		lsls	r4, r4, #2
 800              	.LVL51:
 801 0044 044B     		ldr	r3, .L65+8
 802 0046 E158     		ldr	r1, [r4, r3]
 803              	.LVL52:
 804 0048 FFF7FEFF 		bl	__aeabi_idiv
 805              	.LVL53:
 774:Generated_Source\PSoC4/ADC_1.c ****                  (ADC_1_countsPer10Volt[chan] / 2) : (-(ADC_1_countsPer10Volt[chan] / 2)) ))
 806              		.loc 1 774 0
 807 004c 00B2     		sxth	r0, r0
ARM GAS  C:\Users\Jeremias\AppData\Local\Temp\ccMyQl1F.s 			page 29


 808              	.LVL54:
 777:Generated_Source\PSoC4/ADC_1.c **** 
 778:Generated_Source\PSoC4/ADC_1.c ****         return( mVolts );
 779:Generated_Source\PSoC4/ADC_1.c ****     }
 809              		.loc 1 779 0
 810              		@ sp needed
 811 004e 70BD     		pop	{r4, r5, r6, pc}
 812              	.L66:
 813              		.align	2
 814              	.L65:
 815 0050 00000000 		.word	ADC_1_offset
 816 0054 10270000 		.word	10000
 817 0058 00000000 		.word	ADC_1_countsPer10Volt
 818              		.cfi_endproc
 819              	.LFE15:
 820              		.size	ADC_1_CountsTo_mVolts, .-ADC_1_CountsTo_mVolts
 821              		.global	__aeabi_lmul
 822              		.global	__aeabi_ldivmod
 823              		.section	.text.ADC_1_CountsTo_uVolts,"ax",%progbits
 824              		.align	2
 825              		.global	ADC_1_CountsTo_uVolts
 826              		.code	16
 827              		.thumb_func
 828              		.type	ADC_1_CountsTo_uVolts, %function
 829              	ADC_1_CountsTo_uVolts:
 830              	.LFB16:
 780:Generated_Source\PSoC4/ADC_1.c **** 
 781:Generated_Source\PSoC4/ADC_1.c **** 
 782:Generated_Source\PSoC4/ADC_1.c ****     /*******************************************************************************
 783:Generated_Source\PSoC4/ADC_1.c ****     * Function Name: ADC_1_CountsTo_uVolts
 784:Generated_Source\PSoC4/ADC_1.c ****     ********************************************************************************
 785:Generated_Source\PSoC4/ADC_1.c ****     *
 786:Generated_Source\PSoC4/ADC_1.c ****     * Summary:
 787:Generated_Source\PSoC4/ADC_1.c ****     *  This function converts ADC counts to micro Volts
 788:Generated_Source\PSoC4/ADC_1.c ****     *  This function is not available when left data format justification selected.
 789:Generated_Source\PSoC4/ADC_1.c ****     *
 790:Generated_Source\PSoC4/ADC_1.c ****     * Parameters:
 791:Generated_Source\PSoC4/ADC_1.c ****     *  chan: The ADC channel number.
 792:Generated_Source\PSoC4/ADC_1.c ****     *  adcCounts: Result from the ADC conversion
 793:Generated_Source\PSoC4/ADC_1.c ****     *
 794:Generated_Source\PSoC4/ADC_1.c ****     * Return:
 795:Generated_Source\PSoC4/ADC_1.c ****     *  Results in uVolts
 796:Generated_Source\PSoC4/ADC_1.c ****     *
 797:Generated_Source\PSoC4/ADC_1.c ****     * Global variables:
 798:Generated_Source\PSoC4/ADC_1.c ****     *  ADC_1_countsPer10Volt:  used to convert ADC counts to uVolts.
 799:Generated_Source\PSoC4/ADC_1.c ****     *  ADC_1_Offset:  Used as the offset while converting ADC counts
 800:Generated_Source\PSoC4/ADC_1.c ****     *   to mVolts.
 801:Generated_Source\PSoC4/ADC_1.c ****     *
 802:Generated_Source\PSoC4/ADC_1.c ****     * Theory:
 803:Generated_Source\PSoC4/ADC_1.c ****     *  Care must be taken to not exceed the maximum value for a 31 bit signed
 804:Generated_Source\PSoC4/ADC_1.c ****     *  number in the conversion to uVolts and at the same time not loose
 805:Generated_Source\PSoC4/ADC_1.c ****     *  resolution.
 806:Generated_Source\PSoC4/ADC_1.c ****     *  To convert adcCounts to microVolts it is required to be multiplied
 807:Generated_Source\PSoC4/ADC_1.c ****     *  on 10 million and later divide on gain in counts per 10V.
 808:Generated_Source\PSoC4/ADC_1.c ****     *
 809:Generated_Source\PSoC4/ADC_1.c ****     *******************************************************************************/
 810:Generated_Source\PSoC4/ADC_1.c ****     int32 ADC_1_CountsTo_uVolts(uint32 chan, int16 adcCounts)
ARM GAS  C:\Users\Jeremias\AppData\Local\Temp\ccMyQl1F.s 			page 30


 811:Generated_Source\PSoC4/ADC_1.c ****     {
 831              		.loc 1 811 0
 832              		.cfi_startproc
 833              		@ args = 0, pretend = 0, frame = 0
 834              		@ frame_needed = 0, uses_anonymous_args = 0
 835              	.LVL55:
 836 0000 70B5     		push	{r4, r5, r6, lr}
 837              		.cfi_def_cfa_offset 16
 838              		.cfi_offset 4, -16
 839              		.cfi_offset 5, -12
 840              		.cfi_offset 6, -8
 841              		.cfi_offset 14, -4
 842 0002 0500     		movs	r5, r0
 843 0004 0C00     		movs	r4, r1
 812:Generated_Source\PSoC4/ADC_1.c ****         int64 uVolts;
 813:Generated_Source\PSoC4/ADC_1.c **** 
 814:Generated_Source\PSoC4/ADC_1.c ****         /* Halt CPU in debug mode if channel is out of valid range */
 815:Generated_Source\PSoC4/ADC_1.c ****         CYASSERT(chan < ADC_1_TOTAL_CHANNELS_NUM);
 844              		.loc 1 815 0
 845 0006 0028     		cmp	r0, #0
 846 0008 02D0     		beq	.L68
 847              		.loc 1 815 0 is_stmt 0 discriminator 1
 848 000a 0020     		movs	r0, #0
 849              	.LVL56:
 850 000c FFF7FEFF 		bl	CyHalt
 851              	.LVL57:
 852              	.L68:
 816:Generated_Source\PSoC4/ADC_1.c **** 
 817:Generated_Source\PSoC4/ADC_1.c ****         /* Divide the adcCount when accumulate averaging mode selected */
 818:Generated_Source\PSoC4/ADC_1.c ****         #if(ADC_1_DEFAULT_AVG_MODE == ADC_1__ACCUMULATE)
 819:Generated_Source\PSoC4/ADC_1.c ****             if((ADC_1_channelsConfig[chan] & ADC_1_AVERAGING_EN) != 0u)
 820:Generated_Source\PSoC4/ADC_1.c ****             {
 821:Generated_Source\PSoC4/ADC_1.c ****                 adcCounts /= ADC_1_DEFAULT_AVG_SAMPLES_DIV;
 822:Generated_Source\PSoC4/ADC_1.c ****             }
 823:Generated_Source\PSoC4/ADC_1.c ****         #endif /* ADC_1_DEFAULT_AVG_MODE == ADC_1__ACCUMULATE */
 824:Generated_Source\PSoC4/ADC_1.c **** 
 825:Generated_Source\PSoC4/ADC_1.c ****         /* Subtract ADC offset */
 826:Generated_Source\PSoC4/ADC_1.c ****         adcCounts -= ADC_1_offset[chan];
 853              		.loc 1 826 0 is_stmt 1
 854 0010 6A00     		lsls	r2, r5, #1
 855 0012 084B     		ldr	r3, .L69
 856 0014 D05A     		ldrh	r0, [r2, r3]
 857 0016 00B2     		sxth	r0, r0
 858 0018 201A     		subs	r0, r4, r0
 859 001a 00B2     		sxth	r0, r0
 860              	.LVL58:
 827:Generated_Source\PSoC4/ADC_1.c **** 
 828:Generated_Source\PSoC4/ADC_1.c ****         uVolts = ((int64)adcCounts * ADC_1_10UV_COUNTS) / ADC_1_countsPer10Volt[chan];
 861              		.loc 1 828 0
 862 001c C117     		asrs	r1, r0, #31
 863 001e 064A     		ldr	r2, .L69+4
 864 0020 0023     		movs	r3, #0
 865 0022 FFF7FEFF 		bl	__aeabi_lmul
 866              	.LVL59:
 867 0026 AD00     		lsls	r5, r5, #2
 868              	.LVL60:
 869 0028 044B     		ldr	r3, .L69+8
ARM GAS  C:\Users\Jeremias\AppData\Local\Temp\ccMyQl1F.s 			page 31


 870 002a EA58     		ldr	r2, [r5, r3]
 871 002c D317     		asrs	r3, r2, #31
 872 002e FFF7FEFF 		bl	__aeabi_ldivmod
 873              	.LVL61:
 829:Generated_Source\PSoC4/ADC_1.c **** 
 830:Generated_Source\PSoC4/ADC_1.c ****         return( (int32)uVolts );
 831:Generated_Source\PSoC4/ADC_1.c ****     }
 874              		.loc 1 831 0
 875              		@ sp needed
 876 0032 70BD     		pop	{r4, r5, r6, pc}
 877              	.L70:
 878              		.align	2
 879              	.L69:
 880 0034 00000000 		.word	ADC_1_offset
 881 0038 80969800 		.word	10000000
 882 003c 00000000 		.word	ADC_1_countsPer10Volt
 883              		.cfi_endproc
 884              	.LFE16:
 885              		.size	ADC_1_CountsTo_uVolts, .-ADC_1_CountsTo_uVolts
 886              		.global	__aeabi_i2f
 887              		.global	__aeabi_fmul
 888              		.global	__aeabi_fdiv
 889              		.section	.text.ADC_1_CountsTo_Volts,"ax",%progbits
 890              		.align	2
 891              		.global	ADC_1_CountsTo_Volts
 892              		.code	16
 893              		.thumb_func
 894              		.type	ADC_1_CountsTo_Volts, %function
 895              	ADC_1_CountsTo_Volts:
 896              	.LFB17:
 832:Generated_Source\PSoC4/ADC_1.c **** 
 833:Generated_Source\PSoC4/ADC_1.c **** 
 834:Generated_Source\PSoC4/ADC_1.c ****     /*******************************************************************************
 835:Generated_Source\PSoC4/ADC_1.c ****     * Function Name: ADC_1_CountsTo_Volts
 836:Generated_Source\PSoC4/ADC_1.c ****     ********************************************************************************
 837:Generated_Source\PSoC4/ADC_1.c ****     *
 838:Generated_Source\PSoC4/ADC_1.c ****     * Summary:
 839:Generated_Source\PSoC4/ADC_1.c ****     *  Converts the ADC output to Volts as a floating point number.
 840:Generated_Source\PSoC4/ADC_1.c ****     *  This function is not available when left data format justification selected.
 841:Generated_Source\PSoC4/ADC_1.c ****     *
 842:Generated_Source\PSoC4/ADC_1.c ****     * Parameters:
 843:Generated_Source\PSoC4/ADC_1.c ****     *  chan: The ADC channel number.
 844:Generated_Source\PSoC4/ADC_1.c ****     *  Result from the ADC conversion
 845:Generated_Source\PSoC4/ADC_1.c ****     *
 846:Generated_Source\PSoC4/ADC_1.c ****     * Return:
 847:Generated_Source\PSoC4/ADC_1.c ****     *  Results in Volts
 848:Generated_Source\PSoC4/ADC_1.c ****     *
 849:Generated_Source\PSoC4/ADC_1.c ****     * Global variables:
 850:Generated_Source\PSoC4/ADC_1.c ****     *  ADC_1_countsPer10Volt:  used to convert ADC counts to Volts.
 851:Generated_Source\PSoC4/ADC_1.c ****     *  ADC_1_Offset:  Used as the offset while converting ADC counts
 852:Generated_Source\PSoC4/ADC_1.c ****     *   to mVolts.
 853:Generated_Source\PSoC4/ADC_1.c ****     *
 854:Generated_Source\PSoC4/ADC_1.c ****     *******************************************************************************/
 855:Generated_Source\PSoC4/ADC_1.c ****     float32 ADC_1_CountsTo_Volts(uint32 chan, int16 adcCounts)
 856:Generated_Source\PSoC4/ADC_1.c ****     {
 897              		.loc 1 856 0
 898              		.cfi_startproc
ARM GAS  C:\Users\Jeremias\AppData\Local\Temp\ccMyQl1F.s 			page 32


 899              		@ args = 0, pretend = 0, frame = 0
 900              		@ frame_needed = 0, uses_anonymous_args = 0
 901              	.LVL62:
 902 0000 70B5     		push	{r4, r5, r6, lr}
 903              		.cfi_def_cfa_offset 16
 904              		.cfi_offset 4, -16
 905              		.cfi_offset 5, -12
 906              		.cfi_offset 6, -8
 907              		.cfi_offset 14, -4
 908 0002 0400     		movs	r4, r0
 909 0004 0D00     		movs	r5, r1
 857:Generated_Source\PSoC4/ADC_1.c ****         float32 volts;
 858:Generated_Source\PSoC4/ADC_1.c **** 
 859:Generated_Source\PSoC4/ADC_1.c ****         /* Halt CPU in debug mode if channel is out of valid range */
 860:Generated_Source\PSoC4/ADC_1.c ****         CYASSERT(chan < ADC_1_TOTAL_CHANNELS_NUM);
 910              		.loc 1 860 0
 911 0006 0028     		cmp	r0, #0
 912 0008 02D0     		beq	.L72
 913              		.loc 1 860 0 is_stmt 0 discriminator 1
 914 000a 0020     		movs	r0, #0
 915              	.LVL63:
 916 000c FFF7FEFF 		bl	CyHalt
 917              	.LVL64:
 918              	.L72:
 861:Generated_Source\PSoC4/ADC_1.c **** 
 862:Generated_Source\PSoC4/ADC_1.c ****         /* Divide the adcCount when accumulate averaging mode selected */
 863:Generated_Source\PSoC4/ADC_1.c ****         #if(ADC_1_DEFAULT_AVG_MODE == ADC_1__ACCUMULATE)
 864:Generated_Source\PSoC4/ADC_1.c ****             if((ADC_1_channelsConfig[chan] & ADC_1_AVERAGING_EN) != 0u)
 865:Generated_Source\PSoC4/ADC_1.c ****             {
 866:Generated_Source\PSoC4/ADC_1.c ****                 adcCounts /= ADC_1_DEFAULT_AVG_SAMPLES_DIV;
 867:Generated_Source\PSoC4/ADC_1.c ****             }
 868:Generated_Source\PSoC4/ADC_1.c ****         #endif /* ADC_1_DEFAULT_AVG_MODE == ADC_1__ACCUMULATE */
 869:Generated_Source\PSoC4/ADC_1.c **** 
 870:Generated_Source\PSoC4/ADC_1.c ****         /* Subtract ADC offset */
 871:Generated_Source\PSoC4/ADC_1.c ****         adcCounts -= ADC_1_offset[chan];
 919              		.loc 1 871 0 is_stmt 1
 920 0010 6200     		lsls	r2, r4, #1
 921 0012 0A4B     		ldr	r3, .L73
 922 0014 D05A     		ldrh	r0, [r2, r3]
 923 0016 00B2     		sxth	r0, r0
 924 0018 281A     		subs	r0, r5, r0
 925 001a 00B2     		sxth	r0, r0
 926              	.LVL65:
 872:Generated_Source\PSoC4/ADC_1.c **** 
 873:Generated_Source\PSoC4/ADC_1.c ****         volts = ((float32)adcCounts * ADC_1_10V_COUNTS) / (float32)ADC_1_countsPer10Volt[chan];
 927              		.loc 1 873 0
 928 001c FFF7FEFF 		bl	__aeabi_i2f
 929              	.LVL66:
 930 0020 0749     		ldr	r1, .L73+4
 931 0022 FFF7FEFF 		bl	__aeabi_fmul
 932              	.LVL67:
 933 0026 051C     		adds	r5, r0, #0
 934 0028 A400     		lsls	r4, r4, #2
 935              	.LVL68:
 936 002a 064B     		ldr	r3, .L73+8
 937 002c E058     		ldr	r0, [r4, r3]
 938 002e FFF7FEFF 		bl	__aeabi_i2f
ARM GAS  C:\Users\Jeremias\AppData\Local\Temp\ccMyQl1F.s 			page 33


 939              	.LVL69:
 940 0032 011C     		adds	r1, r0, #0
 941 0034 281C     		adds	r0, r5, #0
 942 0036 FFF7FEFF 		bl	__aeabi_fdiv
 943              	.LVL70:
 874:Generated_Source\PSoC4/ADC_1.c **** 
 875:Generated_Source\PSoC4/ADC_1.c ****         return( volts );
 876:Generated_Source\PSoC4/ADC_1.c ****     }
 944              		.loc 1 876 0
 945              		@ sp needed
 946 003a 70BD     		pop	{r4, r5, r6, pc}
 947              	.L74:
 948              		.align	2
 949              	.L73:
 950 003c 00000000 		.word	ADC_1_offset
 951 0040 00002041 		.word	1092616192
 952 0044 00000000 		.word	ADC_1_countsPer10Volt
 953              		.cfi_endproc
 954              	.LFE17:
 955              		.size	ADC_1_CountsTo_Volts, .-ADC_1_CountsTo_Volts
 956              		.comm	ADC_1_countsPer10Volt,4,4
 957              		.comm	ADC_1_offset,2,4
 958              		.global	ADC_1_initVar
 959              		.bss
 960              		.set	.LANCHOR0,. + 0
 961              		.type	ADC_1_initVar, %object
 962              		.size	ADC_1_initVar, 1
 963              	ADC_1_initVar:
 964 0000 00       		.space	1
 965              		.text
 966              	.Letext0:
 967              		.file 2 "Generated_Source\\PSoC4\\cytypes.h"
 968              		.file 3 "Generated_Source\\PSoC4\\CyLib.h"