ARM GAS  C:\Users\Jeremias\AppData\Local\Temp\cc3ZcIGT.s 			page 1


   1              		.syntax unified
   2              		.cpu cortex-m0
   3              		.fpu softvfp
   4              		.eabi_attribute 20, 1
   5              		.eabi_attribute 21, 1
   6              		.eabi_attribute 23, 3
   7              		.eabi_attribute 24, 1
   8              		.eabi_attribute 25, 1
   9              		.eabi_attribute 26, 1
  10              		.eabi_attribute 30, 1
  11              		.eabi_attribute 34, 0
  12              		.eabi_attribute 18, 4
  13              		.thumb
  14              		.syntax unified
  15              		.file	"cyfitter_cfg.c"
  16              		.text
  17              	.Ltext0:
  18              		.cfi_sections	.debug_frame
  19              		.section	.text.cfg_write_bytes32,"ax",%progbits
  20              		.align	2
  21              		.code	16
  22              		.thumb_func
  23              		.type	cfg_write_bytes32, %function
  24              	cfg_write_bytes32:
  25              	.LFB3:
  26              		.file 1 "Generated_Source\\PSoC4\\cyfitter_cfg.c"
   1:Generated_Source\PSoC4/cyfitter_cfg.c **** 
   2:Generated_Source\PSoC4/cyfitter_cfg.c **** /*******************************************************************************
   3:Generated_Source\PSoC4/cyfitter_cfg.c **** * File Name: cyfitter_cfg.c
   4:Generated_Source\PSoC4/cyfitter_cfg.c **** * 
   5:Generated_Source\PSoC4/cyfitter_cfg.c **** * PSoC Creator  4.4
   6:Generated_Source\PSoC4/cyfitter_cfg.c **** *
   7:Generated_Source\PSoC4/cyfitter_cfg.c **** * Description:
   8:Generated_Source\PSoC4/cyfitter_cfg.c **** * This file contains device initialization code.
   9:Generated_Source\PSoC4/cyfitter_cfg.c **** * Except for the user defined sections in CyClockStartupError(), this file should not be modified.
  10:Generated_Source\PSoC4/cyfitter_cfg.c **** * This file is automatically generated by PSoC Creator.
  11:Generated_Source\PSoC4/cyfitter_cfg.c **** *
  12:Generated_Source\PSoC4/cyfitter_cfg.c **** ********************************************************************************
  13:Generated_Source\PSoC4/cyfitter_cfg.c **** * Copyright (c) 2007-2020 Cypress Semiconductor.  All rights reserved.
  14:Generated_Source\PSoC4/cyfitter_cfg.c **** * You may use this file only in accordance with the license, terms, conditions, 
  15:Generated_Source\PSoC4/cyfitter_cfg.c **** * disclaimers, and limitations in the end user license agreement accompanying 
  16:Generated_Source\PSoC4/cyfitter_cfg.c **** * the software package with which this file was provided.
  17:Generated_Source\PSoC4/cyfitter_cfg.c **** ********************************************************************************/
  18:Generated_Source\PSoC4/cyfitter_cfg.c **** 
  19:Generated_Source\PSoC4/cyfitter_cfg.c **** #include <string.h>
  20:Generated_Source\PSoC4/cyfitter_cfg.c **** #include "cytypes.h"
  21:Generated_Source\PSoC4/cyfitter_cfg.c **** #include "cydevice_trm.h"
  22:Generated_Source\PSoC4/cyfitter_cfg.c **** #include "cyfitter.h"
  23:Generated_Source\PSoC4/cyfitter_cfg.c **** #include "CyLib.h"
  24:Generated_Source\PSoC4/cyfitter_cfg.c **** #include "CyLFClk.h"
  25:Generated_Source\PSoC4/cyfitter_cfg.c **** #include "cyfitter_cfg.h"
  26:Generated_Source\PSoC4/cyfitter_cfg.c **** #include "cyapicallbacks.h"
  27:Generated_Source\PSoC4/cyfitter_cfg.c **** 
  28:Generated_Source\PSoC4/cyfitter_cfg.c **** 
  29:Generated_Source\PSoC4/cyfitter_cfg.c **** #if defined(__GNUC__) || defined(__ARMCC_VERSION)
  30:Generated_Source\PSoC4/cyfitter_cfg.c ****     #define CYPACKED 
  31:Generated_Source\PSoC4/cyfitter_cfg.c ****     #define CYPACKED_ATTR __attribute__ ((packed))
ARM GAS  C:\Users\Jeremias\AppData\Local\Temp\cc3ZcIGT.s 			page 2


  32:Generated_Source\PSoC4/cyfitter_cfg.c ****     #define CYALIGNED __attribute__ ((aligned))
  33:Generated_Source\PSoC4/cyfitter_cfg.c ****     #define CY_CFG_UNUSED __attribute__ ((unused))
  34:Generated_Source\PSoC4/cyfitter_cfg.c ****     #ifndef CY_CFG_SECTION
  35:Generated_Source\PSoC4/cyfitter_cfg.c ****         #define CY_CFG_SECTION __attribute__ ((section(".psocinit")))
  36:Generated_Source\PSoC4/cyfitter_cfg.c ****     #endif
  37:Generated_Source\PSoC4/cyfitter_cfg.c ****     
  38:Generated_Source\PSoC4/cyfitter_cfg.c ****     #if defined(__ARMCC_VERSION)
  39:Generated_Source\PSoC4/cyfitter_cfg.c ****         #define CY_CFG_MEMORY_BARRIER() __memory_changed()
  40:Generated_Source\PSoC4/cyfitter_cfg.c ****     #else
  41:Generated_Source\PSoC4/cyfitter_cfg.c ****         #define CY_CFG_MEMORY_BARRIER() __sync_synchronize()
  42:Generated_Source\PSoC4/cyfitter_cfg.c ****     #endif
  43:Generated_Source\PSoC4/cyfitter_cfg.c ****     
  44:Generated_Source\PSoC4/cyfitter_cfg.c **** #elif defined(__ICCARM__)
  45:Generated_Source\PSoC4/cyfitter_cfg.c ****     #include <intrinsics.h>
  46:Generated_Source\PSoC4/cyfitter_cfg.c **** 
  47:Generated_Source\PSoC4/cyfitter_cfg.c ****     #define CYPACKED __packed
  48:Generated_Source\PSoC4/cyfitter_cfg.c ****     #define CYPACKED_ATTR 
  49:Generated_Source\PSoC4/cyfitter_cfg.c ****     #define CYALIGNED _Pragma("data_alignment=4")
  50:Generated_Source\PSoC4/cyfitter_cfg.c ****     #define CY_CFG_UNUSED _Pragma("diag_suppress=Pe177")
  51:Generated_Source\PSoC4/cyfitter_cfg.c ****     #define CY_CFG_SECTION _Pragma("location=\".psocinit\"")
  52:Generated_Source\PSoC4/cyfitter_cfg.c ****     
  53:Generated_Source\PSoC4/cyfitter_cfg.c ****     #define CY_CFG_MEMORY_BARRIER() __DMB()
  54:Generated_Source\PSoC4/cyfitter_cfg.c ****     
  55:Generated_Source\PSoC4/cyfitter_cfg.c **** #else
  56:Generated_Source\PSoC4/cyfitter_cfg.c ****     #error Unsupported toolchain
  57:Generated_Source\PSoC4/cyfitter_cfg.c **** #endif
  58:Generated_Source\PSoC4/cyfitter_cfg.c **** 
  59:Generated_Source\PSoC4/cyfitter_cfg.c **** #ifndef CYCODE
  60:Generated_Source\PSoC4/cyfitter_cfg.c ****     #define CYCODE
  61:Generated_Source\PSoC4/cyfitter_cfg.c **** #endif
  62:Generated_Source\PSoC4/cyfitter_cfg.c **** #ifndef CYDATA
  63:Generated_Source\PSoC4/cyfitter_cfg.c ****     #define CYDATA
  64:Generated_Source\PSoC4/cyfitter_cfg.c **** #endif
  65:Generated_Source\PSoC4/cyfitter_cfg.c **** #ifndef CYFAR
  66:Generated_Source\PSoC4/cyfitter_cfg.c ****     #define CYFAR
  67:Generated_Source\PSoC4/cyfitter_cfg.c **** #endif
  68:Generated_Source\PSoC4/cyfitter_cfg.c **** #ifndef CYXDATA
  69:Generated_Source\PSoC4/cyfitter_cfg.c ****     #define CYXDATA
  70:Generated_Source\PSoC4/cyfitter_cfg.c **** #endif
  71:Generated_Source\PSoC4/cyfitter_cfg.c **** 
  72:Generated_Source\PSoC4/cyfitter_cfg.c **** 
  73:Generated_Source\PSoC4/cyfitter_cfg.c **** CY_CFG_UNUSED
  74:Generated_Source\PSoC4/cyfitter_cfg.c **** static void CYMEMZERO(void *s, size_t n);
  75:Generated_Source\PSoC4/cyfitter_cfg.c **** CY_CFG_UNUSED
  76:Generated_Source\PSoC4/cyfitter_cfg.c **** static void CYMEMZERO(void *s, size_t n)
  77:Generated_Source\PSoC4/cyfitter_cfg.c **** {
  78:Generated_Source\PSoC4/cyfitter_cfg.c **** 	(void)memset(s, 0, n);
  79:Generated_Source\PSoC4/cyfitter_cfg.c **** }
  80:Generated_Source\PSoC4/cyfitter_cfg.c **** CY_CFG_UNUSED
  81:Generated_Source\PSoC4/cyfitter_cfg.c **** static void CYCONFIGCPY(void *dest, const void *src, size_t n);
  82:Generated_Source\PSoC4/cyfitter_cfg.c **** CY_CFG_UNUSED
  83:Generated_Source\PSoC4/cyfitter_cfg.c **** static void CYCONFIGCPY(void *dest, const void *src, size_t n)
  84:Generated_Source\PSoC4/cyfitter_cfg.c **** {
  85:Generated_Source\PSoC4/cyfitter_cfg.c **** 	(void)memcpy(dest, src, n);
  86:Generated_Source\PSoC4/cyfitter_cfg.c **** }
  87:Generated_Source\PSoC4/cyfitter_cfg.c **** CY_CFG_UNUSED
  88:Generated_Source\PSoC4/cyfitter_cfg.c **** static void CYCONFIGCPYCODE(void *dest, const void *src, size_t n);
ARM GAS  C:\Users\Jeremias\AppData\Local\Temp\cc3ZcIGT.s 			page 3


  89:Generated_Source\PSoC4/cyfitter_cfg.c **** CY_CFG_UNUSED
  90:Generated_Source\PSoC4/cyfitter_cfg.c **** static void CYCONFIGCPYCODE(void *dest, const void *src, size_t n)
  91:Generated_Source\PSoC4/cyfitter_cfg.c **** {
  92:Generated_Source\PSoC4/cyfitter_cfg.c **** 	(void)memcpy(dest, src, n);
  93:Generated_Source\PSoC4/cyfitter_cfg.c **** }
  94:Generated_Source\PSoC4/cyfitter_cfg.c **** 
  95:Generated_Source\PSoC4/cyfitter_cfg.c **** 
  96:Generated_Source\PSoC4/cyfitter_cfg.c **** 
  97:Generated_Source\PSoC4/cyfitter_cfg.c **** 
  98:Generated_Source\PSoC4/cyfitter_cfg.c **** /* Clock startup error codes                                                   */
  99:Generated_Source\PSoC4/cyfitter_cfg.c **** #define CYCLOCKSTART_NO_ERROR    0u
 100:Generated_Source\PSoC4/cyfitter_cfg.c **** #define CYCLOCKSTART_XTAL_ERROR  1u
 101:Generated_Source\PSoC4/cyfitter_cfg.c **** #define CYCLOCKSTART_32KHZ_ERROR 2u
 102:Generated_Source\PSoC4/cyfitter_cfg.c **** #define CYCLOCKSTART_PLL_ERROR   3u
 103:Generated_Source\PSoC4/cyfitter_cfg.c **** #define CYCLOCKSTART_FLL_ERROR   4u
 104:Generated_Source\PSoC4/cyfitter_cfg.c **** #define CYCLOCKSTART_WCO_ERROR   5u
 105:Generated_Source\PSoC4/cyfitter_cfg.c **** 
 106:Generated_Source\PSoC4/cyfitter_cfg.c **** 
 107:Generated_Source\PSoC4/cyfitter_cfg.c **** #ifdef CY_NEED_CYCLOCKSTARTUPERROR
 108:Generated_Source\PSoC4/cyfitter_cfg.c **** /*******************************************************************************
 109:Generated_Source\PSoC4/cyfitter_cfg.c **** * Function Name: CyClockStartupError
 110:Generated_Source\PSoC4/cyfitter_cfg.c **** ********************************************************************************
 111:Generated_Source\PSoC4/cyfitter_cfg.c **** * Summary:
 112:Generated_Source\PSoC4/cyfitter_cfg.c **** *  If an error is encountered during clock configuration (crystal startup error,
 113:Generated_Source\PSoC4/cyfitter_cfg.c **** *  PLL lock error, etc.), the system will end up here.  Unless reimplemented by
 114:Generated_Source\PSoC4/cyfitter_cfg.c **** *  the customer, this function will stop in an infinite loop.
 115:Generated_Source\PSoC4/cyfitter_cfg.c **** *
 116:Generated_Source\PSoC4/cyfitter_cfg.c **** * Parameters:
 117:Generated_Source\PSoC4/cyfitter_cfg.c **** *   void
 118:Generated_Source\PSoC4/cyfitter_cfg.c **** *
 119:Generated_Source\PSoC4/cyfitter_cfg.c **** * Return:
 120:Generated_Source\PSoC4/cyfitter_cfg.c **** *   void
 121:Generated_Source\PSoC4/cyfitter_cfg.c **** *
 122:Generated_Source\PSoC4/cyfitter_cfg.c **** *******************************************************************************/
 123:Generated_Source\PSoC4/cyfitter_cfg.c **** CY_CFG_UNUSED
 124:Generated_Source\PSoC4/cyfitter_cfg.c **** static void CyClockStartupError(uint8 errorCode);
 125:Generated_Source\PSoC4/cyfitter_cfg.c **** CY_CFG_UNUSED
 126:Generated_Source\PSoC4/cyfitter_cfg.c **** static void CyClockStartupError(uint8 errorCode)
 127:Generated_Source\PSoC4/cyfitter_cfg.c **** {
 128:Generated_Source\PSoC4/cyfitter_cfg.c ****     /* To remove the compiler warning if errorCode not used.                */
 129:Generated_Source\PSoC4/cyfitter_cfg.c ****     errorCode = errorCode;
 130:Generated_Source\PSoC4/cyfitter_cfg.c **** 
 131:Generated_Source\PSoC4/cyfitter_cfg.c ****     /* If we have a clock startup error (bad MHz crystal, PLL lock, etc.),  */
 132:Generated_Source\PSoC4/cyfitter_cfg.c ****     /* we will end up here to allow the customer to implement something to  */
 133:Generated_Source\PSoC4/cyfitter_cfg.c ****     /* deal with the clock condition.                                       */
 134:Generated_Source\PSoC4/cyfitter_cfg.c **** 
 135:Generated_Source\PSoC4/cyfitter_cfg.c **** #ifdef CY_CFG_CLOCK_STARTUP_ERROR_CALLBACK
 136:Generated_Source\PSoC4/cyfitter_cfg.c ****     CY_CFG_Clock_Startup_ErrorCallback();
 137:Generated_Source\PSoC4/cyfitter_cfg.c **** #else
 138:Generated_Source\PSoC4/cyfitter_cfg.c ****     /*  If not using CY_CFG_CLOCK_STARTUP_ERROR_CALLBACK, place your clock startup code here. */
 139:Generated_Source\PSoC4/cyfitter_cfg.c ****     /* `#START CyClockStartupError` */
 140:Generated_Source\PSoC4/cyfitter_cfg.c **** 
 141:Generated_Source\PSoC4/cyfitter_cfg.c **** 
 142:Generated_Source\PSoC4/cyfitter_cfg.c **** 
 143:Generated_Source\PSoC4/cyfitter_cfg.c ****     /* `#END` */
 144:Generated_Source\PSoC4/cyfitter_cfg.c **** 
 145:Generated_Source\PSoC4/cyfitter_cfg.c ****     while(1) {}
ARM GAS  C:\Users\Jeremias\AppData\Local\Temp\cc3ZcIGT.s 			page 4


 146:Generated_Source\PSoC4/cyfitter_cfg.c **** #endif /* CY_CFG_CLOCK_STARTUP_ERROR_CALLBACK */
 147:Generated_Source\PSoC4/cyfitter_cfg.c **** }
 148:Generated_Source\PSoC4/cyfitter_cfg.c **** #endif
 149:Generated_Source\PSoC4/cyfitter_cfg.c **** 
 150:Generated_Source\PSoC4/cyfitter_cfg.c **** #define CY_CFG_BASE_ADDR_COUNT 7u
 151:Generated_Source\PSoC4/cyfitter_cfg.c **** CYPACKED typedef struct
 152:Generated_Source\PSoC4/cyfitter_cfg.c **** {
 153:Generated_Source\PSoC4/cyfitter_cfg.c **** 	uint8 offset;
 154:Generated_Source\PSoC4/cyfitter_cfg.c **** 	uint8 value;
 155:Generated_Source\PSoC4/cyfitter_cfg.c **** } CYPACKED_ATTR cy_cfg_addrvalue_t;
 156:Generated_Source\PSoC4/cyfitter_cfg.c **** 
 157:Generated_Source\PSoC4/cyfitter_cfg.c **** 
 158:Generated_Source\PSoC4/cyfitter_cfg.c **** 
 159:Generated_Source\PSoC4/cyfitter_cfg.c **** /*******************************************************************************
 160:Generated_Source\PSoC4/cyfitter_cfg.c **** * Function Name: cfg_write_bytes32
 161:Generated_Source\PSoC4/cyfitter_cfg.c **** ********************************************************************************
 162:Generated_Source\PSoC4/cyfitter_cfg.c **** * Summary:
 163:Generated_Source\PSoC4/cyfitter_cfg.c **** *  This function is used for setting up the chip configuration areas that
 164:Generated_Source\PSoC4/cyfitter_cfg.c **** *  contain relatively sparse data.
 165:Generated_Source\PSoC4/cyfitter_cfg.c **** *
 166:Generated_Source\PSoC4/cyfitter_cfg.c **** * Parameters:
 167:Generated_Source\PSoC4/cyfitter_cfg.c **** *   void
 168:Generated_Source\PSoC4/cyfitter_cfg.c **** *
 169:Generated_Source\PSoC4/cyfitter_cfg.c **** * Return:
 170:Generated_Source\PSoC4/cyfitter_cfg.c **** *   void
 171:Generated_Source\PSoC4/cyfitter_cfg.c **** *
 172:Generated_Source\PSoC4/cyfitter_cfg.c **** *******************************************************************************/
 173:Generated_Source\PSoC4/cyfitter_cfg.c **** static void cfg_write_bytes32(const uint32 addr_table[], const cy_cfg_addrvalue_t data_table[]);
 174:Generated_Source\PSoC4/cyfitter_cfg.c **** static void cfg_write_bytes32(const uint32 addr_table[], const cy_cfg_addrvalue_t data_table[])
 175:Generated_Source\PSoC4/cyfitter_cfg.c **** {
  27              		.loc 1 175 0
  28              		.cfi_startproc
  29              		@ args = 0, pretend = 0, frame = 0
  30              		@ frame_needed = 0, uses_anonymous_args = 0
  31              	.LVL0:
  32 0000 F0B5     		push	{r4, r5, r6, r7, lr}
  33              		.cfi_def_cfa_offset 20
  34              		.cfi_offset 4, -20
  35              		.cfi_offset 5, -16
  36              		.cfi_offset 6, -12
  37              		.cfi_offset 7, -8
  38              		.cfi_offset 14, -4
  39              	.LVL1:
 176:Generated_Source\PSoC4/cyfitter_cfg.c **** 	/* For 32-bit little-endian architectures */
 177:Generated_Source\PSoC4/cyfitter_cfg.c **** 	uint32 i, j = 0u;
  40              		.loc 1 177 0
  41 0002 0025     		movs	r5, #0
 178:Generated_Source\PSoC4/cyfitter_cfg.c **** 	for (i = 0u; i < CY_CFG_BASE_ADDR_COUNT; i++)
  42              		.loc 1 178 0
  43 0004 0027     		movs	r7, #0
  44 0006 11E0     		b	.L2
  45              	.LVL2:
  46              	.L5:
  47              	.LBB2:
 179:Generated_Source\PSoC4/cyfitter_cfg.c **** 	{
 180:Generated_Source\PSoC4/cyfitter_cfg.c **** 		uint32 baseAddr = addr_table[i];
  48              		.loc 1 180 0
ARM GAS  C:\Users\Jeremias\AppData\Local\Temp\cc3ZcIGT.s 			page 5


  49 0008 BB00     		lsls	r3, r7, #2
  50 000a C658     		ldr	r6, [r0, r3]
  51              	.LVL3:
 181:Generated_Source\PSoC4/cyfitter_cfg.c **** 		uint8 count = (uint8)baseAddr;
  52              		.loc 1 181 0
  53 000c F3B2     		uxtb	r3, r6
  54              	.LVL4:
 182:Generated_Source\PSoC4/cyfitter_cfg.c **** 		baseAddr &= 0xFFFFFF00u;
  55              		.loc 1 182 0
  56 000e FF22     		movs	r2, #255
  57 0010 9643     		bics	r6, r2
  58              	.LVL5:
 183:Generated_Source\PSoC4/cyfitter_cfg.c **** 		while (count != 0u)
  59              		.loc 1 183 0
  60 0012 08E0     		b	.L3
  61              	.L4:
 184:Generated_Source\PSoC4/cyfitter_cfg.c **** 		{
 185:Generated_Source\PSoC4/cyfitter_cfg.c **** 			CY_SET_REG8((void *)(baseAddr + data_table[j].offset), data_table[j].value);
  62              		.loc 1 185 0
  63 0014 6A00     		lsls	r2, r5, #1
  64 0016 8A18     		adds	r2, r1, r2
  65 0018 1478     		ldrb	r4, [r2]
  66 001a A419     		adds	r4, r4, r6
  67 001c 5278     		ldrb	r2, [r2, #1]
  68 001e 2270     		strb	r2, [r4]
 186:Generated_Source\PSoC4/cyfitter_cfg.c **** 			j++;
  69              		.loc 1 186 0
  70 0020 0135     		adds	r5, r5, #1
  71              	.LVL6:
 187:Generated_Source\PSoC4/cyfitter_cfg.c **** 			count--;
  72              		.loc 1 187 0
  73 0022 013B     		subs	r3, r3, #1
  74              	.LVL7:
  75 0024 DBB2     		uxtb	r3, r3
  76              	.LVL8:
  77              	.L3:
 183:Generated_Source\PSoC4/cyfitter_cfg.c **** 		{
  78              		.loc 1 183 0
  79 0026 002B     		cmp	r3, #0
  80 0028 F4D1     		bne	.L4
  81              	.LBE2:
 178:Generated_Source\PSoC4/cyfitter_cfg.c **** 	{
  82              		.loc 1 178 0 discriminator 2
  83 002a 0137     		adds	r7, r7, #1
  84              	.LVL9:
  85              	.L2:
 178:Generated_Source\PSoC4/cyfitter_cfg.c **** 	{
  86              		.loc 1 178 0 is_stmt 0 discriminator 1
  87 002c 062F     		cmp	r7, #6
  88 002e EBD9     		bls	.L5
 188:Generated_Source\PSoC4/cyfitter_cfg.c **** 		}
 189:Generated_Source\PSoC4/cyfitter_cfg.c **** 	}
 190:Generated_Source\PSoC4/cyfitter_cfg.c **** }
  89              		.loc 1 190 0 is_stmt 1
  90              		@ sp needed
  91              	.LVL10:
  92              	.LVL11:
ARM GAS  C:\Users\Jeremias\AppData\Local\Temp\cc3ZcIGT.s 			page 6


  93 0030 F0BD     		pop	{r4, r5, r6, r7, pc}
  94              		.cfi_endproc
  95              	.LFE3:
  96              		.size	cfg_write_bytes32, .-cfg_write_bytes32
  97 0032 C046     		.section	.text.AnalogSetDefault,"ax",%progbits
  98              		.align	2
  99              		.code	16
 100              		.thumb_func
 101              		.type	AnalogSetDefault, %function
 102              	AnalogSetDefault:
 103              	.LFB5:
 191:Generated_Source\PSoC4/cyfitter_cfg.c **** 
 192:Generated_Source\PSoC4/cyfitter_cfg.c **** 
 193:Generated_Source\PSoC4/cyfitter_cfg.c **** /*******************************************************************************
 194:Generated_Source\PSoC4/cyfitter_cfg.c **** * Function Name: ClockSetup
 195:Generated_Source\PSoC4/cyfitter_cfg.c **** ********************************************************************************
 196:Generated_Source\PSoC4/cyfitter_cfg.c **** *
 197:Generated_Source\PSoC4/cyfitter_cfg.c **** * Summary:
 198:Generated_Source\PSoC4/cyfitter_cfg.c **** *   Performs the initialization of all of the clocks in the device based on the
 199:Generated_Source\PSoC4/cyfitter_cfg.c **** *   settings in the Clock tab of the DWR.  This includes enabling the requested
 200:Generated_Source\PSoC4/cyfitter_cfg.c **** *   clocks and setting the necessary dividers to produce the desired frequency. 
 201:Generated_Source\PSoC4/cyfitter_cfg.c **** *
 202:Generated_Source\PSoC4/cyfitter_cfg.c **** * Parameters:
 203:Generated_Source\PSoC4/cyfitter_cfg.c **** *   void
 204:Generated_Source\PSoC4/cyfitter_cfg.c **** *
 205:Generated_Source\PSoC4/cyfitter_cfg.c **** * Return:
 206:Generated_Source\PSoC4/cyfitter_cfg.c **** *   void
 207:Generated_Source\PSoC4/cyfitter_cfg.c **** *
 208:Generated_Source\PSoC4/cyfitter_cfg.c **** *******************************************************************************/
 209:Generated_Source\PSoC4/cyfitter_cfg.c **** static void ClockSetup(void);
 210:Generated_Source\PSoC4/cyfitter_cfg.c **** CY_CFG_SECTION
 211:Generated_Source\PSoC4/cyfitter_cfg.c **** static void ClockSetup(void)
 212:Generated_Source\PSoC4/cyfitter_cfg.c **** {
 213:Generated_Source\PSoC4/cyfitter_cfg.c **** 	/* Enable HALF_EN before trimming for the flash accelerator. */
 214:Generated_Source\PSoC4/cyfitter_cfg.c **** 	CY_SET_REG32((void CYXDATA *)(CYREG_CLK_SELECT), (CY_GET_REG32((void *)CYREG_CLK_SELECT) | 0x00040
 215:Generated_Source\PSoC4/cyfitter_cfg.c **** 
 216:Generated_Source\PSoC4/cyfitter_cfg.c **** 	/* Setup and trim IMO based on desired frequency. */
 217:Generated_Source\PSoC4/cyfitter_cfg.c **** 	CySysClkWriteImoFreq(48u);
 218:Generated_Source\PSoC4/cyfitter_cfg.c **** 	/* CYDEV_CLK_ILO_CONFIG Starting address: CYDEV_CLK_ILO_CONFIG */
 219:Generated_Source\PSoC4/cyfitter_cfg.c **** 	CY_SET_REG32((void *)(CYREG_CLK_ILO_CONFIG), 0x80000006u);
 220:Generated_Source\PSoC4/cyfitter_cfg.c **** 
 221:Generated_Source\PSoC4/cyfitter_cfg.c **** 
 222:Generated_Source\PSoC4/cyfitter_cfg.c **** 	/* CYDEV_CLK_SELECT00 Starting address: CYDEV_CLK_SELECT00 */
 223:Generated_Source\PSoC4/cyfitter_cfg.c **** 	CY_SET_REG32((void *)(CYREG_CLK_SELECT07), 0x00000010u);
 224:Generated_Source\PSoC4/cyfitter_cfg.c **** 	CY_SET_REG32((void *)(CYREG_CLK_SELECT08), 0x00000020u);
 225:Generated_Source\PSoC4/cyfitter_cfg.c **** 	CY_SET_REG32((void *)(CYREG_CLK_SELECT09), 0x00000020u);
 226:Generated_Source\PSoC4/cyfitter_cfg.c **** 
 227:Generated_Source\PSoC4/cyfitter_cfg.c **** 	/* CYDEV_CLK_IMO_CONFIG Starting address: CYDEV_CLK_IMO_CONFIG */
 228:Generated_Source\PSoC4/cyfitter_cfg.c **** 	CY_SET_REG32((void *)(CYREG_CLK_IMO_CONFIG), 0x82000000u);
 229:Generated_Source\PSoC4/cyfitter_cfg.c **** 
 230:Generated_Source\PSoC4/cyfitter_cfg.c **** 	/* CYDEV_CLK_SELECT Starting address: CYDEV_CLK_SELECT */
 231:Generated_Source\PSoC4/cyfitter_cfg.c **** 	CY_SET_REG32((void *)(CYREG_CLK_SELECT), 0x00040000u);
 232:Generated_Source\PSoC4/cyfitter_cfg.c **** 
 233:Generated_Source\PSoC4/cyfitter_cfg.c **** 	/* CYDEV_CLK_DIVIDER_A00 Starting address: CYDEV_CLK_DIVIDER_A00 */
 234:Generated_Source\PSoC4/cyfitter_cfg.c **** 	CY_SET_REG32((void *)(CYREG_CLK_DIVIDER_A00), 0x8000002Fu);
 235:Generated_Source\PSoC4/cyfitter_cfg.c **** 
 236:Generated_Source\PSoC4/cyfitter_cfg.c **** 	/* CYDEV_CLK_DIVIDER_B00 Starting address: CYDEV_CLK_DIVIDER_B00 */
ARM GAS  C:\Users\Jeremias\AppData\Local\Temp\cc3ZcIGT.s 			page 7


 237:Generated_Source\PSoC4/cyfitter_cfg.c **** 	CY_SET_REG32((void *)(CYREG_CLK_DIVIDER_B00), 0x8000006Au);
 238:Generated_Source\PSoC4/cyfitter_cfg.c **** 
 239:Generated_Source\PSoC4/cyfitter_cfg.c **** 	(void)CyIntSetVector(9u, &CySysWdtIsr);
 240:Generated_Source\PSoC4/cyfitter_cfg.c **** 	CyIntEnable(9u);
 241:Generated_Source\PSoC4/cyfitter_cfg.c **** 	CY_SET_REG32((void *)(CYREG_WDT_CONFIG), 0x00000000u);
 242:Generated_Source\PSoC4/cyfitter_cfg.c **** }
 243:Generated_Source\PSoC4/cyfitter_cfg.c **** 
 244:Generated_Source\PSoC4/cyfitter_cfg.c **** 
 245:Generated_Source\PSoC4/cyfitter_cfg.c **** /* Analog API Functions */
 246:Generated_Source\PSoC4/cyfitter_cfg.c **** 
 247:Generated_Source\PSoC4/cyfitter_cfg.c **** 
 248:Generated_Source\PSoC4/cyfitter_cfg.c **** /*******************************************************************************
 249:Generated_Source\PSoC4/cyfitter_cfg.c **** * Function Name: AnalogSetDefault
 250:Generated_Source\PSoC4/cyfitter_cfg.c **** ********************************************************************************
 251:Generated_Source\PSoC4/cyfitter_cfg.c **** *
 252:Generated_Source\PSoC4/cyfitter_cfg.c **** * Summary:
 253:Generated_Source\PSoC4/cyfitter_cfg.c **** *  Sets up the analog portions of the chip to default values based on chip
 254:Generated_Source\PSoC4/cyfitter_cfg.c **** *  configuration options from the project.
 255:Generated_Source\PSoC4/cyfitter_cfg.c **** *
 256:Generated_Source\PSoC4/cyfitter_cfg.c **** * Parameters:
 257:Generated_Source\PSoC4/cyfitter_cfg.c **** *  void
 258:Generated_Source\PSoC4/cyfitter_cfg.c **** *
 259:Generated_Source\PSoC4/cyfitter_cfg.c **** * Return:
 260:Generated_Source\PSoC4/cyfitter_cfg.c **** *  void
 261:Generated_Source\PSoC4/cyfitter_cfg.c **** *
 262:Generated_Source\PSoC4/cyfitter_cfg.c **** *******************************************************************************/
 263:Generated_Source\PSoC4/cyfitter_cfg.c **** static void AnalogSetDefault(void);
 264:Generated_Source\PSoC4/cyfitter_cfg.c **** static void AnalogSetDefault(void)
 265:Generated_Source\PSoC4/cyfitter_cfg.c **** {
 104              		.loc 1 265 0
 105              		.cfi_startproc
 106              		@ args = 0, pretend = 0, frame = 0
 107              		@ frame_needed = 0, uses_anonymous_args = 0
 108              		@ link register save eliminated.
 266:Generated_Source\PSoC4/cyfitter_cfg.c **** 	CY_SET_XTND_REG32((void CYFAR *)CYREG_SAR_MUX_SWITCH0, 0x00000007u);
 109              		.loc 1 266 0
 110 0000 0723     		movs	r3, #7
 111 0002 024A     		ldr	r2, .L7
 112 0004 1360     		str	r3, [r2]
 267:Generated_Source\PSoC4/cyfitter_cfg.c **** 	CY_SET_XTND_REG32((void CYFAR *)CYREG_SAR_MUX_SWITCH_HW_CTRL, 0x00000007u);
 113              		.loc 1 267 0
 114 0006 024A     		ldr	r2, .L7+4
 115 0008 1360     		str	r3, [r2]
 268:Generated_Source\PSoC4/cyfitter_cfg.c **** 	/* Variable VDDA is selected; no pumps are enabled by default */
 269:Generated_Source\PSoC4/cyfitter_cfg.c **** }
 116              		.loc 1 269 0
 117              		@ sp needed
 118 000a 7047     		bx	lr
 119              	.L8:
 120              		.align	2
 121              	.L7:
 122 000c 00031A40 		.word	1075446528
 123 0010 40031A40 		.word	1075446592
 124              		.cfi_endproc
 125              	.LFE5:
 126              		.size	AnalogSetDefault, .-AnalogSetDefault
 127              		.section	.text.CYMEMZERO,"ax",%progbits
ARM GAS  C:\Users\Jeremias\AppData\Local\Temp\cc3ZcIGT.s 			page 8


 128              		.align	2
 129              		.code	16
 130              		.thumb_func
 131              		.type	CYMEMZERO, %function
 132              	CYMEMZERO:
 133              	.LFB0:
  77:Generated_Source\PSoC4/cyfitter_cfg.c **** 	(void)memset(s, 0, n);
 134              		.loc 1 77 0
 135              		.cfi_startproc
 136              		@ args = 0, pretend = 0, frame = 0
 137              		@ frame_needed = 0, uses_anonymous_args = 0
 138              	.LVL12:
 139 0000 10B5     		push	{r4, lr}
 140              		.cfi_def_cfa_offset 8
 141              		.cfi_offset 4, -8
 142              		.cfi_offset 14, -4
 143 0002 0A00     		movs	r2, r1
  78:Generated_Source\PSoC4/cyfitter_cfg.c **** }
 144              		.loc 1 78 0
 145 0004 0021     		movs	r1, #0
 146              	.LVL13:
 147 0006 FFF7FEFF 		bl	memset
 148              	.LVL14:
  79:Generated_Source\PSoC4/cyfitter_cfg.c **** CY_CFG_UNUSED
 149              		.loc 1 79 0
 150              		@ sp needed
 151 000a 10BD     		pop	{r4, pc}
 152              		.cfi_endproc
 153              	.LFE0:
 154              		.size	CYMEMZERO, .-CYMEMZERO
 155              		.section	.psocinit,"ax",%progbits
 156              		.align	2
 157              		.code	16
 158              		.thumb_func
 159              		.type	ClockSetup, %function
 160              	ClockSetup:
 161              	.LFB4:
 212:Generated_Source\PSoC4/cyfitter_cfg.c **** 	/* Enable HALF_EN before trimming for the flash accelerator. */
 162              		.loc 1 212 0
 163              		.cfi_startproc
 164              		@ args = 0, pretend = 0, frame = 0
 165              		@ frame_needed = 0, uses_anonymous_args = 0
 166 0000 70B5     		push	{r4, r5, r6, lr}
 167              		.cfi_def_cfa_offset 16
 168              		.cfi_offset 4, -16
 169              		.cfi_offset 5, -12
 170              		.cfi_offset 6, -8
 171              		.cfi_offset 14, -4
 214:Generated_Source\PSoC4/cyfitter_cfg.c **** 
 172              		.loc 1 214 0
 173 0002 154C     		ldr	r4, .L11
 174 0004 2368     		ldr	r3, [r4]
 175 0006 8025     		movs	r5, #128
 176 0008 ED02     		lsls	r5, r5, #11
 177 000a 2B43     		orrs	r3, r5
 178 000c 2360     		str	r3, [r4]
 217:Generated_Source\PSoC4/cyfitter_cfg.c **** 	/* CYDEV_CLK_ILO_CONFIG Starting address: CYDEV_CLK_ILO_CONFIG */
ARM GAS  C:\Users\Jeremias\AppData\Local\Temp\cc3ZcIGT.s 			page 9


 179              		.loc 1 217 0
 180 000e 3020     		movs	r0, #48
 181 0010 FFF7FEFF 		bl	CySysClkWriteImoFreq
 182              	.LVL15:
 219:Generated_Source\PSoC4/cyfitter_cfg.c **** 
 183              		.loc 1 219 0
 184 0014 114A     		ldr	r2, .L11+4
 185 0016 124B     		ldr	r3, .L11+8
 186 0018 1A60     		str	r2, [r3]
 223:Generated_Source\PSoC4/cyfitter_cfg.c **** 	CY_SET_REG32((void *)(CYREG_CLK_SELECT08), 0x00000020u);
 187              		.loc 1 223 0
 188 001a 1022     		movs	r2, #16
 189 001c 114B     		ldr	r3, .L11+12
 190 001e 1A60     		str	r2, [r3]
 224:Generated_Source\PSoC4/cyfitter_cfg.c **** 	CY_SET_REG32((void *)(CYREG_CLK_SELECT09), 0x00000020u);
 191              		.loc 1 224 0
 192 0020 2023     		movs	r3, #32
 193 0022 114A     		ldr	r2, .L11+16
 194 0024 1360     		str	r3, [r2]
 225:Generated_Source\PSoC4/cyfitter_cfg.c **** 
 195              		.loc 1 225 0
 196 0026 114A     		ldr	r2, .L11+20
 197 0028 1360     		str	r3, [r2]
 228:Generated_Source\PSoC4/cyfitter_cfg.c **** 
 198              		.loc 1 228 0
 199 002a 8222     		movs	r2, #130
 200 002c 1206     		lsls	r2, r2, #24
 201 002e 104B     		ldr	r3, .L11+24
 202 0030 1A60     		str	r2, [r3]
 231:Generated_Source\PSoC4/cyfitter_cfg.c **** 
 203              		.loc 1 231 0
 204 0032 2560     		str	r5, [r4]
 234:Generated_Source\PSoC4/cyfitter_cfg.c **** 
 205              		.loc 1 234 0
 206 0034 0F4A     		ldr	r2, .L11+28
 207 0036 104B     		ldr	r3, .L11+32
 208 0038 1A60     		str	r2, [r3]
 237:Generated_Source\PSoC4/cyfitter_cfg.c **** 
 209              		.loc 1 237 0
 210 003a 104A     		ldr	r2, .L11+36
 211 003c 104B     		ldr	r3, .L11+40
 212 003e 1A60     		str	r2, [r3]
 239:Generated_Source\PSoC4/cyfitter_cfg.c **** 	CyIntEnable(9u);
 213              		.loc 1 239 0
 214 0040 1049     		ldr	r1, .L11+44
 215 0042 0920     		movs	r0, #9
 216 0044 FFF7FEFF 		bl	CyIntSetVector
 217              	.LVL16:
 240:Generated_Source\PSoC4/cyfitter_cfg.c **** 	CY_SET_REG32((void *)(CYREG_WDT_CONFIG), 0x00000000u);
 218              		.loc 1 240 0
 219 0048 0920     		movs	r0, #9
 220 004a FFF7FEFF 		bl	CyIntEnable
 221              	.LVL17:
 241:Generated_Source\PSoC4/cyfitter_cfg.c **** }
 222              		.loc 1 241 0
 223 004e 0022     		movs	r2, #0
 224 0050 0D4B     		ldr	r3, .L11+48
ARM GAS  C:\Users\Jeremias\AppData\Local\Temp\cc3ZcIGT.s 			page 10


 225 0052 1A60     		str	r2, [r3]
 242:Generated_Source\PSoC4/cyfitter_cfg.c **** 
 226              		.loc 1 242 0
 227              		@ sp needed
 228 0054 70BD     		pop	{r4, r5, r6, pc}
 229              	.L12:
 230 0056 C046     		.align	2
 231              	.L11:
 232 0058 00010B40 		.word	1074462976
 233 005c 06000080 		.word	-2147483642
 234 0060 04010B40 		.word	1074462980
 235 0064 1C020240 		.word	1073873436
 236 0068 20020240 		.word	1073873440
 237 006c 24020240 		.word	1073873444
 238 0070 08010B40 		.word	1074462984
 239 0074 2F000080 		.word	-2147483601
 240 0078 00000240 		.word	1073872896
 241 007c 6A000080 		.word	-2147483542
 242 0080 40000240 		.word	1073872960
 243 0084 00000000 		.word	CySysWdtIsr
 244 0088 0C020B40 		.word	1074463244
 245              		.cfi_endproc
 246              	.LFE4:
 247              		.size	ClockSetup, .-ClockSetup
 248              		.section	.text.SetAnalogRoutingPumps,"ax",%progbits
 249              		.align	2
 250              		.global	SetAnalogRoutingPumps
 251              		.code	16
 252              		.thumb_func
 253              		.type	SetAnalogRoutingPumps, %function
 254              	SetAnalogRoutingPumps:
 255              	.LFB6:
 270:Generated_Source\PSoC4/cyfitter_cfg.c **** 
 271:Generated_Source\PSoC4/cyfitter_cfg.c **** 
 272:Generated_Source\PSoC4/cyfitter_cfg.c **** /*******************************************************************************
 273:Generated_Source\PSoC4/cyfitter_cfg.c **** * Function Name: SetAnalogRoutingPumps
 274:Generated_Source\PSoC4/cyfitter_cfg.c **** ********************************************************************************
 275:Generated_Source\PSoC4/cyfitter_cfg.c **** *
 276:Generated_Source\PSoC4/cyfitter_cfg.c **** * Summary:
 277:Generated_Source\PSoC4/cyfitter_cfg.c **** * Enables or disables the analog pumps feeding analog routing switches.
 278:Generated_Source\PSoC4/cyfitter_cfg.c **** * Intended to be called at startup, based on the Vdda system configuration;
 279:Generated_Source\PSoC4/cyfitter_cfg.c **** * may be called during operation when the user informs us that the Vdda voltage crossed the pump th
 280:Generated_Source\PSoC4/cyfitter_cfg.c **** *
 281:Generated_Source\PSoC4/cyfitter_cfg.c **** * Parameters:
 282:Generated_Source\PSoC4/cyfitter_cfg.c **** *  enabled - 1 to enable the pumps, 0 to disable the pumps
 283:Generated_Source\PSoC4/cyfitter_cfg.c **** *
 284:Generated_Source\PSoC4/cyfitter_cfg.c **** * Return:
 285:Generated_Source\PSoC4/cyfitter_cfg.c **** *  void
 286:Generated_Source\PSoC4/cyfitter_cfg.c **** *
 287:Generated_Source\PSoC4/cyfitter_cfg.c **** *******************************************************************************/
 288:Generated_Source\PSoC4/cyfitter_cfg.c **** void SetAnalogRoutingPumps(uint8 enabled)
 289:Generated_Source\PSoC4/cyfitter_cfg.c **** {
 256              		.loc 1 289 0
 257              		.cfi_startproc
 258              		@ args = 0, pretend = 0, frame = 0
 259              		@ frame_needed = 0, uses_anonymous_args = 0
 260              		@ link register save eliminated.
ARM GAS  C:\Users\Jeremias\AppData\Local\Temp\cc3ZcIGT.s 			page 11


 261              	.LVL18:
 290:Generated_Source\PSoC4/cyfitter_cfg.c **** 	uint32 regValue = CY_GET_XTND_REG32((void *)(CYREG_SAR_PUMP_CTRL));
 262              		.loc 1 290 0
 263 0000 064B     		ldr	r3, .L16
 264 0002 1B68     		ldr	r3, [r3]
 265              	.LVL19:
 291:Generated_Source\PSoC4/cyfitter_cfg.c **** 	if (enabled != 0u)
 266              		.loc 1 291 0
 267 0004 0028     		cmp	r0, #0
 268 0006 03D0     		beq	.L14
 292:Generated_Source\PSoC4/cyfitter_cfg.c **** 	{
 293:Generated_Source\PSoC4/cyfitter_cfg.c **** 		regValue |= 0x80000000u;
 269              		.loc 1 293 0
 270 0008 8022     		movs	r2, #128
 271 000a 1206     		lsls	r2, r2, #24
 272 000c 1343     		orrs	r3, r2
 273              	.LVL20:
 274 000e 01E0     		b	.L15
 275              	.L14:
 294:Generated_Source\PSoC4/cyfitter_cfg.c **** 	}
 295:Generated_Source\PSoC4/cyfitter_cfg.c **** 	else
 296:Generated_Source\PSoC4/cyfitter_cfg.c **** 	{
 297:Generated_Source\PSoC4/cyfitter_cfg.c **** 		regValue &= ~0x80000000u;
 276              		.loc 1 297 0
 277 0010 5B00     		lsls	r3, r3, #1
 278              	.LVL21:
 279 0012 5B08     		lsrs	r3, r3, #1
 280              	.LVL22:
 281              	.L15:
 298:Generated_Source\PSoC4/cyfitter_cfg.c **** 	}
 299:Generated_Source\PSoC4/cyfitter_cfg.c **** 	CY_SET_XTND_REG32((void *)(CYREG_SAR_PUMP_CTRL), regValue);
 282              		.loc 1 299 0
 283 0014 014A     		ldr	r2, .L16
 284 0016 1360     		str	r3, [r2]
 300:Generated_Source\PSoC4/cyfitter_cfg.c **** }
 285              		.loc 1 300 0
 286              		@ sp needed
 287 0018 7047     		bx	lr
 288              	.L17:
 289 001a C046     		.align	2
 290              	.L16:
 291 001c 80031A40 		.word	1075446656
 292              		.cfi_endproc
 293              	.LFE6:
 294              		.size	SetAnalogRoutingPumps, .-SetAnalogRoutingPumps
 295              		.section	.text.AMux_Set,"ax",%progbits
 296              		.align	2
 297              		.global	AMux_Set
 298              		.code	16
 299              		.thumb_func
 300              		.type	AMux_Set, %function
 301              	AMux_Set:
 302              	.LFB7:
 301:Generated_Source\PSoC4/cyfitter_cfg.c **** 
 302:Generated_Source\PSoC4/cyfitter_cfg.c **** 
 303:Generated_Source\PSoC4/cyfitter_cfg.c **** #define CY_AMUX_UNUSED CYREG_CM0_ROM_DWT
 304:Generated_Source\PSoC4/cyfitter_cfg.c **** /*******************************************************************************
ARM GAS  C:\Users\Jeremias\AppData\Local\Temp\cc3ZcIGT.s 			page 12


 305:Generated_Source\PSoC4/cyfitter_cfg.c **** * Function Name: AMux_Set
 306:Generated_Source\PSoC4/cyfitter_cfg.c **** ********************************************************************************
 307:Generated_Source\PSoC4/cyfitter_cfg.c **** * Summary:
 308:Generated_Source\PSoC4/cyfitter_cfg.c **** *  This function is used to set a particular channel as active on the AMux.
 309:Generated_Source\PSoC4/cyfitter_cfg.c **** *
 310:Generated_Source\PSoC4/cyfitter_cfg.c **** * Parameters:  
 311:Generated_Source\PSoC4/cyfitter_cfg.c **** *   channel - The mux channel input to set as active
 312:Generated_Source\PSoC4/cyfitter_cfg.c **** *
 313:Generated_Source\PSoC4/cyfitter_cfg.c **** * Return:
 314:Generated_Source\PSoC4/cyfitter_cfg.c **** *   void
 315:Generated_Source\PSoC4/cyfitter_cfg.c **** *
 316:Generated_Source\PSoC4/cyfitter_cfg.c **** *******************************************************************************/
 317:Generated_Source\PSoC4/cyfitter_cfg.c **** void AMux_Set(uint8 channel)
 318:Generated_Source\PSoC4/cyfitter_cfg.c **** {
 303              		.loc 1 318 0
 304              		.cfi_startproc
 305              		@ args = 0, pretend = 0, frame = 0
 306              		@ frame_needed = 0, uses_anonymous_args = 0
 307              		@ link register save eliminated.
 308              	.LVL23:
 319:Generated_Source\PSoC4/cyfitter_cfg.c **** 	switch (channel) {
 309              		.loc 1 319 0
 310 0000 0028     		cmp	r0, #0
 311 0002 02D0     		beq	.L20
 312 0004 0128     		cmp	r0, #1
 313 0006 07D0     		beq	.L21
 314 0008 0CE0     		b	.L18
 315              	.L20:
 320:Generated_Source\PSoC4/cyfitter_cfg.c **** 		case 0u:
 321:Generated_Source\PSoC4/cyfitter_cfg.c **** 			CY_SET_REG32((void CYXDATA *)CYREG_HSIOM_PORT_SEL1, (CY_GET_REG32((void CYXDATA *)CYREG_HSIOM_PO
 316              		.loc 1 321 0
 317 000a 074A     		ldr	r2, .L22
 318 000c 1368     		ldr	r3, [r2]
 319 000e C021     		movs	r1, #192
 320 0010 C902     		lsls	r1, r1, #11
 321 0012 0B43     		orrs	r3, r1
 322 0014 1360     		str	r3, [r2]
 322:Generated_Source\PSoC4/cyfitter_cfg.c **** 			break;
 323              		.loc 1 322 0
 324 0016 05E0     		b	.L18
 325              	.L21:
 323:Generated_Source\PSoC4/cyfitter_cfg.c **** 		case 1u:
 324:Generated_Source\PSoC4/cyfitter_cfg.c **** 			CY_SET_REG32((void CYXDATA *)CYREG_HSIOM_PORT_SEL1, (CY_GET_REG32((void CYXDATA *)CYREG_HSIOM_PO
 326              		.loc 1 324 0
 327 0018 034A     		ldr	r2, .L22
 328 001a 1368     		ldr	r3, [r2]
 329 001c C021     		movs	r1, #192
 330 001e C900     		lsls	r1, r1, #3
 331 0020 0B43     		orrs	r3, r1
 332 0022 1360     		str	r3, [r2]
 333              	.L18:
 325:Generated_Source\PSoC4/cyfitter_cfg.c **** 			break;
 326:Generated_Source\PSoC4/cyfitter_cfg.c **** 		default:
 327:Generated_Source\PSoC4/cyfitter_cfg.c **** 			break;
 328:Generated_Source\PSoC4/cyfitter_cfg.c **** 	}
 329:Generated_Source\PSoC4/cyfitter_cfg.c **** }
 334              		.loc 1 329 0
ARM GAS  C:\Users\Jeremias\AppData\Local\Temp\cc3ZcIGT.s 			page 13


 335              		@ sp needed
 336 0024 7047     		bx	lr
 337              	.L23:
 338 0026 C046     		.align	2
 339              	.L22:
 340 0028 04000140 		.word	1073807364
 341              		.cfi_endproc
 342              	.LFE7:
 343              		.size	AMux_Set, .-AMux_Set
 344              		.section	.text.AMux_Unset,"ax",%progbits
 345              		.align	2
 346              		.global	AMux_Unset
 347              		.code	16
 348              		.thumb_func
 349              		.type	AMux_Unset, %function
 350              	AMux_Unset:
 351              	.LFB8:
 330:Generated_Source\PSoC4/cyfitter_cfg.c **** 
 331:Generated_Source\PSoC4/cyfitter_cfg.c **** /*******************************************************************************
 332:Generated_Source\PSoC4/cyfitter_cfg.c **** * Function Name: AMux_Unset
 333:Generated_Source\PSoC4/cyfitter_cfg.c **** ********************************************************************************
 334:Generated_Source\PSoC4/cyfitter_cfg.c **** * Summary:
 335:Generated_Source\PSoC4/cyfitter_cfg.c **** *  This function is used to clear a particular channel from being active on the
 336:Generated_Source\PSoC4/cyfitter_cfg.c **** *  AMux.
 337:Generated_Source\PSoC4/cyfitter_cfg.c **** *
 338:Generated_Source\PSoC4/cyfitter_cfg.c **** * Parameters:  
 339:Generated_Source\PSoC4/cyfitter_cfg.c **** *   channel - The mux channel input to mark inactive
 340:Generated_Source\PSoC4/cyfitter_cfg.c **** *
 341:Generated_Source\PSoC4/cyfitter_cfg.c **** * Return:
 342:Generated_Source\PSoC4/cyfitter_cfg.c **** *   void
 343:Generated_Source\PSoC4/cyfitter_cfg.c **** *
 344:Generated_Source\PSoC4/cyfitter_cfg.c **** *******************************************************************************/
 345:Generated_Source\PSoC4/cyfitter_cfg.c **** void AMux_Unset(uint8 channel)
 346:Generated_Source\PSoC4/cyfitter_cfg.c **** {
 352              		.loc 1 346 0
 353              		.cfi_startproc
 354              		@ args = 0, pretend = 0, frame = 0
 355              		@ frame_needed = 0, uses_anonymous_args = 0
 356              		@ link register save eliminated.
 357              	.LVL24:
 347:Generated_Source\PSoC4/cyfitter_cfg.c **** 	switch (channel) {
 358              		.loc 1 347 0
 359 0000 0028     		cmp	r0, #0
 360 0002 02D0     		beq	.L26
 361 0004 0128     		cmp	r0, #1
 362 0006 06D0     		beq	.L27
 363 0008 0AE0     		b	.L24
 364              	.L26:
 348:Generated_Source\PSoC4/cyfitter_cfg.c **** 		case 0u:
 349:Generated_Source\PSoC4/cyfitter_cfg.c **** 			CY_SET_REG32((void CYXDATA *)CYREG_HSIOM_PORT_SEL1, (CY_GET_REG32((void CYXDATA *)CYREG_HSIOM_PO
 365              		.loc 1 349 0
 366 000a 064A     		ldr	r2, .L28
 367 000c 1168     		ldr	r1, [r2]
 368 000e 064B     		ldr	r3, .L28+4
 369 0010 0B40     		ands	r3, r1
 370 0012 1360     		str	r3, [r2]
 350:Generated_Source\PSoC4/cyfitter_cfg.c **** 			break;
ARM GAS  C:\Users\Jeremias\AppData\Local\Temp\cc3ZcIGT.s 			page 14


 371              		.loc 1 350 0
 372 0014 04E0     		b	.L24
 373              	.L27:
 351:Generated_Source\PSoC4/cyfitter_cfg.c **** 		case 1u:
 352:Generated_Source\PSoC4/cyfitter_cfg.c **** 			CY_SET_REG32((void CYXDATA *)CYREG_HSIOM_PORT_SEL1, (CY_GET_REG32((void CYXDATA *)CYREG_HSIOM_PO
 374              		.loc 1 352 0
 375 0016 034A     		ldr	r2, .L28
 376 0018 1168     		ldr	r1, [r2]
 377 001a 044B     		ldr	r3, .L28+8
 378 001c 0B40     		ands	r3, r1
 379 001e 1360     		str	r3, [r2]
 380              	.L24:
 353:Generated_Source\PSoC4/cyfitter_cfg.c **** 			break;
 354:Generated_Source\PSoC4/cyfitter_cfg.c **** 		default:
 355:Generated_Source\PSoC4/cyfitter_cfg.c **** 			break;
 356:Generated_Source\PSoC4/cyfitter_cfg.c **** 	}
 357:Generated_Source\PSoC4/cyfitter_cfg.c **** }
 381              		.loc 1 357 0
 382              		@ sp needed
 383 0020 7047     		bx	lr
 384              	.L29:
 385 0022 C046     		.align	2
 386              	.L28:
 387 0024 04000140 		.word	1073807364
 388 0028 FFFFF9FF 		.word	-393217
 389 002c FFF9FFFF 		.word	-1537
 390              		.cfi_endproc
 391              	.LFE8:
 392              		.size	AMux_Unset, .-AMux_Unset
 393              		.section	.psocinit
 394              		.align	2
 395              		.global	cyfitter_cfg
 396              		.code	16
 397              		.thumb_func
 398              		.type	cyfitter_cfg, %function
 399              	cyfitter_cfg:
 400              	.LFB9:
 358:Generated_Source\PSoC4/cyfitter_cfg.c **** 
 359:Generated_Source\PSoC4/cyfitter_cfg.c **** 
 360:Generated_Source\PSoC4/cyfitter_cfg.c **** 
 361:Generated_Source\PSoC4/cyfitter_cfg.c **** /*******************************************************************************
 362:Generated_Source\PSoC4/cyfitter_cfg.c **** * Function Name: cyfitter_cfg
 363:Generated_Source\PSoC4/cyfitter_cfg.c **** ********************************************************************************
 364:Generated_Source\PSoC4/cyfitter_cfg.c **** * Summary:
 365:Generated_Source\PSoC4/cyfitter_cfg.c **** *  This function is called by the start-up code for the selected device. It
 366:Generated_Source\PSoC4/cyfitter_cfg.c **** *  performs all of the necessary device configuration based on the design
 367:Generated_Source\PSoC4/cyfitter_cfg.c **** *  settings.  This includes settings from the Design Wide Resources (DWR) such
 368:Generated_Source\PSoC4/cyfitter_cfg.c **** *  as Clocks and Pins as well as any component configuration that is necessary.
 369:Generated_Source\PSoC4/cyfitter_cfg.c **** *
 370:Generated_Source\PSoC4/cyfitter_cfg.c **** * Parameters:
 371:Generated_Source\PSoC4/cyfitter_cfg.c **** *   void
 372:Generated_Source\PSoC4/cyfitter_cfg.c **** *
 373:Generated_Source\PSoC4/cyfitter_cfg.c **** * Return:
 374:Generated_Source\PSoC4/cyfitter_cfg.c **** *   void
 375:Generated_Source\PSoC4/cyfitter_cfg.c **** *
 376:Generated_Source\PSoC4/cyfitter_cfg.c **** *******************************************************************************/
 377:Generated_Source\PSoC4/cyfitter_cfg.c **** CY_CFG_SECTION
ARM GAS  C:\Users\Jeremias\AppData\Local\Temp\cc3ZcIGT.s 			page 15


 378:Generated_Source\PSoC4/cyfitter_cfg.c **** void cyfitter_cfg(void)
 379:Generated_Source\PSoC4/cyfitter_cfg.c **** {
 401              		.loc 1 379 0
 402              		.cfi_startproc
 403              		@ args = 0, pretend = 0, frame = 0
 404              		@ frame_needed = 0, uses_anonymous_args = 0
 405 008c 10B5     		push	{r4, lr}
 406              		.cfi_def_cfa_offset 8
 407              		.cfi_offset 4, -8
 408              		.cfi_offset 14, -4
 380:Generated_Source\PSoC4/cyfitter_cfg.c **** 	/* Disable interrupts by default. Let user enable if/when they want. */
 381:Generated_Source\PSoC4/cyfitter_cfg.c **** 	CyGlobalIntDisable;
 409              		.loc 1 381 0
 410              		.syntax divided
 411              	@ 381 "Generated_Source\PSoC4\cyfitter_cfg.c" 1
 412 008e 72B6     		CPSID   i
 413              	@ 0 "" 2
 382:Generated_Source\PSoC4/cyfitter_cfg.c **** 
 383:Generated_Source\PSoC4/cyfitter_cfg.c **** 	/* Enable the clock in the interrupt controller for the routed interrupts */
 384:Generated_Source\PSoC4/cyfitter_cfg.c **** 	CY_SET_REG8((void *)CYREG_UDB_UDBIF_INT_CLK_CTL, 0x01u);
 414              		.loc 1 384 0
 415              		.thumb
 416              		.syntax unified
 417 0090 0122     		movs	r2, #1
 418 0092 304B     		ldr	r3, .L33
 419 0094 1A70     		strb	r2, [r3]
 420              	.LVL25:
 421              	.LBB3:
 385:Generated_Source\PSoC4/cyfitter_cfg.c **** 	{
 386:Generated_Source\PSoC4/cyfitter_cfg.c **** 		static const uint32 CYCODE cy_cfg_addr_table[] = {
 387:Generated_Source\PSoC4/cyfitter_cfg.c **** 			0x400F3004u, /* Base address: 0x400F3000 Count: 4 */
 388:Generated_Source\PSoC4/cyfitter_cfg.c **** 			0x400F3103u, /* Base address: 0x400F3100 Count: 3 */
 389:Generated_Source\PSoC4/cyfitter_cfg.c **** 			0x400F3301u, /* Base address: 0x400F3300 Count: 1 */
 390:Generated_Source\PSoC4/cyfitter_cfg.c **** 			0x400F4006u, /* Base address: 0x400F4000 Count: 6 */
 391:Generated_Source\PSoC4/cyfitter_cfg.c **** 			0x400F4109u, /* Base address: 0x400F4100 Count: 9 */
 392:Generated_Source\PSoC4/cyfitter_cfg.c **** 			0x400F4203u, /* Base address: 0x400F4200 Count: 3 */
 393:Generated_Source\PSoC4/cyfitter_cfg.c **** 			0x400F4303u, /* Base address: 0x400F4300 Count: 3 */
 394:Generated_Source\PSoC4/cyfitter_cfg.c **** 		};
 395:Generated_Source\PSoC4/cyfitter_cfg.c **** 
 396:Generated_Source\PSoC4/cyfitter_cfg.c **** 		static const cy_cfg_addrvalue_t CYCODE cy_cfg_data_table[] = {
 397:Generated_Source\PSoC4/cyfitter_cfg.c **** 			{0x38u, 0x20u},
 398:Generated_Source\PSoC4/cyfitter_cfg.c **** 			{0x3Eu, 0x10u},
 399:Generated_Source\PSoC4/cyfitter_cfg.c **** 			{0x58u, 0x04u},
 400:Generated_Source\PSoC4/cyfitter_cfg.c **** 			{0x5Fu, 0x01u},
 401:Generated_Source\PSoC4/cyfitter_cfg.c **** 			{0x18u, 0x04u},
 402:Generated_Source\PSoC4/cyfitter_cfg.c **** 			{0x80u, 0x04u},
 403:Generated_Source\PSoC4/cyfitter_cfg.c **** 			{0xE0u, 0x04u},
 404:Generated_Source\PSoC4/cyfitter_cfg.c **** 			{0xE2u, 0x01u},
 405:Generated_Source\PSoC4/cyfitter_cfg.c **** 			{0x2Fu, 0x20u},
 406:Generated_Source\PSoC4/cyfitter_cfg.c **** 			{0x6Fu, 0x20u},
 407:Generated_Source\PSoC4/cyfitter_cfg.c **** 			{0x83u, 0x08u},
 408:Generated_Source\PSoC4/cyfitter_cfg.c **** 			{0xCAu, 0x80u},
 409:Generated_Source\PSoC4/cyfitter_cfg.c **** 			{0xDAu, 0x80u},
 410:Generated_Source\PSoC4/cyfitter_cfg.c **** 			{0xE2u, 0x20u},
 411:Generated_Source\PSoC4/cyfitter_cfg.c **** 			{0x56u, 0x40u},
 412:Generated_Source\PSoC4/cyfitter_cfg.c **** 			{0x5Fu, 0x08u},
 413:Generated_Source\PSoC4/cyfitter_cfg.c **** 			{0x60u, 0x01u},
ARM GAS  C:\Users\Jeremias\AppData\Local\Temp\cc3ZcIGT.s 			page 16


 414:Generated_Source\PSoC4/cyfitter_cfg.c **** 			{0x66u, 0x40u},
 415:Generated_Source\PSoC4/cyfitter_cfg.c **** 			{0x80u, 0x01u},
 416:Generated_Source\PSoC4/cyfitter_cfg.c **** 			{0x9Bu, 0x08u},
 417:Generated_Source\PSoC4/cyfitter_cfg.c **** 			{0xD4u, 0x40u},
 418:Generated_Source\PSoC4/cyfitter_cfg.c **** 			{0xD6u, 0xC0u},
 419:Generated_Source\PSoC4/cyfitter_cfg.c **** 			{0xE2u, 0x80u},
 420:Generated_Source\PSoC4/cyfitter_cfg.c **** 			{0x77u, 0x08u},
 421:Generated_Source\PSoC4/cyfitter_cfg.c **** 			{0x83u, 0x08u},
 422:Generated_Source\PSoC4/cyfitter_cfg.c **** 			{0xDCu, 0x02u},
 423:Generated_Source\PSoC4/cyfitter_cfg.c **** 			{0x1Au, 0x10u},
 424:Generated_Source\PSoC4/cyfitter_cfg.c **** 			{0x82u, 0x10u},
 425:Generated_Source\PSoC4/cyfitter_cfg.c **** 			{0xC6u, 0x08u},
 426:Generated_Source\PSoC4/cyfitter_cfg.c **** 		};
 427:Generated_Source\PSoC4/cyfitter_cfg.c **** 
 428:Generated_Source\PSoC4/cyfitter_cfg.c **** 
 429:Generated_Source\PSoC4/cyfitter_cfg.c **** 
 430:Generated_Source\PSoC4/cyfitter_cfg.c **** 		CYPACKED typedef struct {
 431:Generated_Source\PSoC4/cyfitter_cfg.c **** 			void CYFAR *address;
 432:Generated_Source\PSoC4/cyfitter_cfg.c **** 			uint16 size;
 433:Generated_Source\PSoC4/cyfitter_cfg.c **** 		} CYPACKED_ATTR cfg_memset_t;
 434:Generated_Source\PSoC4/cyfitter_cfg.c **** 
 435:Generated_Source\PSoC4/cyfitter_cfg.c **** 		static const cfg_memset_t CYCODE cfg_memset_list[] = {
 436:Generated_Source\PSoC4/cyfitter_cfg.c **** 			/* address, size */
 437:Generated_Source\PSoC4/cyfitter_cfg.c **** 			{(void CYFAR *)(CYDEV_UDB_P0_U0_BASE), 1024u},
 438:Generated_Source\PSoC4/cyfitter_cfg.c **** 			{(void CYFAR *)(CYDEV_UDB_DSI0_BASE), 1024u},
 439:Generated_Source\PSoC4/cyfitter_cfg.c **** 		};
 440:Generated_Source\PSoC4/cyfitter_cfg.c **** 
 441:Generated_Source\PSoC4/cyfitter_cfg.c **** 		uint8 CYDATA i;
 442:Generated_Source\PSoC4/cyfitter_cfg.c **** 
 443:Generated_Source\PSoC4/cyfitter_cfg.c **** 		/* Zero out critical memory blocks before beginning configuration */
 444:Generated_Source\PSoC4/cyfitter_cfg.c **** 		for (i = 0u; i < (sizeof(cfg_memset_list)/sizeof(cfg_memset_list[0])); i++)
 422              		.loc 1 444 0
 423 0096 0024     		movs	r4, #0
 424 0098 0FE0     		b	.L31
 425              	.LVL26:
 426              	.L32:
 427              	.LBB4:
 445:Generated_Source\PSoC4/cyfitter_cfg.c **** 		{
 446:Generated_Source\PSoC4/cyfitter_cfg.c **** 			const cfg_memset_t CYCODE * CYDATA ms = &cfg_memset_list[i];
 447:Generated_Source\PSoC4/cyfitter_cfg.c **** 			CYMEMZERO(ms->address, (size_t)(uint32)(ms->size));
 428              		.loc 1 447 0 discriminator 3
 429 009a 2F48     		ldr	r0, .L33+4
 430 009c 6200     		lsls	r2, r4, #1
 431 009e 1319     		adds	r3, r2, r4
 432 00a0 5900     		lsls	r1, r3, #1
 433 00a2 0B00     		movs	r3, r1
 434 00a4 4118     		adds	r1, r0, r1
 435 00a6 8988     		ldrh	r1, [r1, #4]
 436 00a8 1A5A     		ldrh	r2, [r3, r0]
 437 00aa C318     		adds	r3, r0, r3
 438 00ac 5888     		ldrh	r0, [r3, #2]
 439 00ae 0004     		lsls	r0, r0, #16
 440 00b0 1043     		orrs	r0, r2
 441 00b2 FFF7FEFF 		bl	CYMEMZERO
 442              	.LVL27:
 443              	.LBE4:
 444:Generated_Source\PSoC4/cyfitter_cfg.c **** 		{
ARM GAS  C:\Users\Jeremias\AppData\Local\Temp\cc3ZcIGT.s 			page 17


 444              		.loc 1 444 0 discriminator 3
 445 00b6 0134     		adds	r4, r4, #1
 446              	.LVL28:
 447 00b8 E4B2     		uxtb	r4, r4
 448              	.LVL29:
 449              	.L31:
 444:Generated_Source\PSoC4/cyfitter_cfg.c **** 		{
 450              		.loc 1 444 0 is_stmt 0 discriminator 1
 451 00ba 012C     		cmp	r4, #1
 452 00bc EDD9     		bls	.L32
 448:Generated_Source\PSoC4/cyfitter_cfg.c **** 		}
 449:Generated_Source\PSoC4/cyfitter_cfg.c **** 
 450:Generated_Source\PSoC4/cyfitter_cfg.c **** 		cfg_write_bytes32(cy_cfg_addr_table, cy_cfg_data_table);
 453              		.loc 1 450 0 is_stmt 1
 454 00be 2648     		ldr	r0, .L33+4
 455 00c0 0100     		movs	r1, r0
 456 00c2 0C31     		adds	r1, r1, #12
 457 00c4 4830     		adds	r0, r0, #72
 458 00c6 FFF7FEFF 		bl	cfg_write_bytes32
 459              	.LVL30:
 451:Generated_Source\PSoC4/cyfitter_cfg.c **** 
 452:Generated_Source\PSoC4/cyfitter_cfg.c **** 		/* HSIOM Starting address: CYDEV_HSIOM_BASE */
 453:Generated_Source\PSoC4/cyfitter_cfg.c **** 		CY_SET_REG32((void *)(CYREG_HSIOM_PORT_SEL1), 0x03000000u);
 460              		.loc 1 453 0
 461 00ca C022     		movs	r2, #192
 462 00cc 9204     		lsls	r2, r2, #18
 463 00ce 234B     		ldr	r3, .L33+8
 464 00d0 1A60     		str	r2, [r3]
 454:Generated_Source\PSoC4/cyfitter_cfg.c **** 
 455:Generated_Source\PSoC4/cyfitter_cfg.c **** 		/* FORCED_HSIOM Starting address: CYDEV_HSIOM_PORT_SEL3 */
 456:Generated_Source\PSoC4/cyfitter_cfg.c **** 		CY_SET_REG32((void *)(CYREG_HSIOM_PORT_SEL3), 0x00000000u);
 465              		.loc 1 456 0
 466 00d2 0023     		movs	r3, #0
 467 00d4 224A     		ldr	r2, .L33+12
 468 00d6 1360     		str	r3, [r2]
 457:Generated_Source\PSoC4/cyfitter_cfg.c **** 
 458:Generated_Source\PSoC4/cyfitter_cfg.c **** 		/* IOPINS0_3 Starting address: CYDEV_PRT3_PC */
 459:Generated_Source\PSoC4/cyfitter_cfg.c **** 		CY_SET_REG32((void *)(CYREG_PRT3_PC), 0x00000000u);
 469              		.loc 1 459 0
 470 00d8 224A     		ldr	r2, .L33+16
 471 00da 1360     		str	r3, [r2]
 460:Generated_Source\PSoC4/cyfitter_cfg.c **** 
 461:Generated_Source\PSoC4/cyfitter_cfg.c **** 		/* UDB_PA_0 Starting address: CYDEV_UDB_PA0_BASE */
 462:Generated_Source\PSoC4/cyfitter_cfg.c **** 		CY_SET_REG32((void *)(CYDEV_UDB_PA0_BASE), 0x00990000u);
 472              		.loc 1 462 0
 473 00dc 9923     		movs	r3, #153
 474 00de 1B04     		lsls	r3, r3, #16
 475 00e0 214A     		ldr	r2, .L33+20
 476 00e2 1360     		str	r3, [r2]
 463:Generated_Source\PSoC4/cyfitter_cfg.c **** 
 464:Generated_Source\PSoC4/cyfitter_cfg.c **** 		/* UDB_PA_1 Starting address: CYDEV_UDB_PA1_BASE */
 465:Generated_Source\PSoC4/cyfitter_cfg.c **** 		CY_SET_REG32((void *)(CYDEV_UDB_PA1_BASE), 0x00990000u);
 477              		.loc 1 465 0
 478 00e4 214A     		ldr	r2, .L33+24
 479 00e6 1360     		str	r3, [r2]
 466:Generated_Source\PSoC4/cyfitter_cfg.c **** 		CY_SET_REG32((void *)(CYREG_UDB_PA1_CFG8), 0x89100000u);
 480              		.loc 1 466 0
ARM GAS  C:\Users\Jeremias\AppData\Local\Temp\cc3ZcIGT.s 			page 18


 481 00e8 2149     		ldr	r1, .L33+28
 482 00ea 224A     		ldr	r2, .L33+32
 483 00ec 1160     		str	r1, [r2]
 467:Generated_Source\PSoC4/cyfitter_cfg.c **** 
 468:Generated_Source\PSoC4/cyfitter_cfg.c **** 		/* UDB_PA_2 Starting address: CYDEV_UDB_PA2_BASE */
 469:Generated_Source\PSoC4/cyfitter_cfg.c **** 		CY_SET_REG32((void *)(CYDEV_UDB_PA2_BASE), 0x00990000u);
 484              		.loc 1 469 0
 485 00ee 224A     		ldr	r2, .L33+36
 486 00f0 1360     		str	r3, [r2]
 470:Generated_Source\PSoC4/cyfitter_cfg.c **** 
 471:Generated_Source\PSoC4/cyfitter_cfg.c **** 		/* INT_SELECT Starting address: CYDEV_CPUSS_INTR_SELECT */
 472:Generated_Source\PSoC4/cyfitter_cfg.c **** 		CY_SET_REG32((void *)(CYREG_CPUSS_INTR_SELECT), 0x00000002u);
 487              		.loc 1 472 0
 488 00f2 0223     		movs	r3, #2
 489 00f4 214A     		ldr	r2, .L33+40
 490 00f6 1360     		str	r3, [r2]
 473:Generated_Source\PSoC4/cyfitter_cfg.c **** 
 474:Generated_Source\PSoC4/cyfitter_cfg.c **** 		/* INT_CONFIG Starting address: CYDEV_UDB_INT_CFG */
 475:Generated_Source\PSoC4/cyfitter_cfg.c **** 		CY_SET_REG32((void *)(CYREG_UDB_INT_CFG), 0x00000002u);
 491              		.loc 1 475 0
 492 00f8 214A     		ldr	r2, .L33+44
 493 00fa 1360     		str	r3, [r2]
 476:Generated_Source\PSoC4/cyfitter_cfg.c **** 
 477:Generated_Source\PSoC4/cyfitter_cfg.c **** 		/* Enable UDB array and digital routing */
 478:Generated_Source\PSoC4/cyfitter_cfg.c **** 		CY_SET_XTND_REG8((void *)CYREG_UDB_UDBIF_WAIT_CFG, (uint8)((CY_GET_XTND_REG8((void *)CYREG_UDB_UD
 494              		.loc 1 478 0
 495 00fc 2149     		ldr	r1, .L33+48
 496 00fe 0B78     		ldrb	r3, [r1]
 497 0100 3C22     		movs	r2, #60
 498 0102 9343     		bics	r3, r2
 499 0104 1422     		movs	r2, #20
 500 0106 1343     		orrs	r3, r2
 501 0108 DBB2     		uxtb	r3, r3
 502 010a 0B70     		strb	r3, [r1]
 479:Generated_Source\PSoC4/cyfitter_cfg.c **** 		CY_SET_XTND_REG8((void *)CYREG_UDB_UDBIF_BANK_CTL, (uint8)(CY_GET_XTND_REG8((void *)CYREG_UDB_UDB
 503              		.loc 1 479 0
 504 010c 1E4A     		ldr	r2, .L33+52
 505 010e 1178     		ldrb	r1, [r2]
 506 0110 1623     		movs	r3, #22
 507 0112 0B43     		orrs	r3, r1
 508 0114 DBB2     		uxtb	r3, r3
 509 0116 1370     		strb	r3, [r2]
 510              	.LBE3:
 480:Generated_Source\PSoC4/cyfitter_cfg.c **** 	}
 481:Generated_Source\PSoC4/cyfitter_cfg.c **** 
 482:Generated_Source\PSoC4/cyfitter_cfg.c **** 	/* Perform second pass device configuration. These items must be configured in specific order afte
 483:Generated_Source\PSoC4/cyfitter_cfg.c **** 	/* IOPINS0_0 Starting address: CYDEV_PRT0_BASE */
 484:Generated_Source\PSoC4/cyfitter_cfg.c **** 	CY_SET_REG32((void *)(CYDEV_PRT0_BASE), 0x00000080u);
 511              		.loc 1 484 0
 512 0118 8022     		movs	r2, #128
 513 011a 1C4B     		ldr	r3, .L33+56
 514 011c 1A60     		str	r2, [r3]
 485:Generated_Source\PSoC4/cyfitter_cfg.c **** 	CY_SET_REG32((void *)(CYREG_PRT0_PC), 0x005B6DB6u);
 515              		.loc 1 485 0
 516 011e 1C4A     		ldr	r2, .L33+60
 517 0120 1C4B     		ldr	r3, .L33+64
 518 0122 1A60     		str	r2, [r3]
ARM GAS  C:\Users\Jeremias\AppData\Local\Temp\cc3ZcIGT.s 			page 19


 486:Generated_Source\PSoC4/cyfitter_cfg.c **** 	CY_SET_REG32((void *)(CYREG_PRT0_INTCFG), 0x00008000u);
 519              		.loc 1 486 0
 520 0124 8022     		movs	r2, #128
 521 0126 1202     		lsls	r2, r2, #8
 522 0128 1B4B     		ldr	r3, .L33+68
 523 012a 1A60     		str	r2, [r3]
 487:Generated_Source\PSoC4/cyfitter_cfg.c **** 
 488:Generated_Source\PSoC4/cyfitter_cfg.c **** 	/* IOPINS0_1 Starting address: CYDEV_PRT1_BASE */
 489:Generated_Source\PSoC4/cyfitter_cfg.c **** 	CY_SET_REG32((void *)(CYDEV_PRT1_BASE), 0x00000054u);
 524              		.loc 1 489 0
 525 012c 5422     		movs	r2, #84
 526 012e 1B4B     		ldr	r3, .L33+72
 527 0130 1A60     		str	r2, [r3]
 490:Generated_Source\PSoC4/cyfitter_cfg.c **** 	CY_SET_REG32((void *)(CYREG_PRT1_PC), 0x00180000u);
 528              		.loc 1 490 0
 529 0132 C022     		movs	r2, #192
 530 0134 5203     		lsls	r2, r2, #13
 531 0136 1A4B     		ldr	r3, .L33+76
 532 0138 1A60     		str	r2, [r3]
 491:Generated_Source\PSoC4/cyfitter_cfg.c **** 	CY_SET_REG32((void *)(CYREG_PRT1_PC2), 0x00000014u);
 533              		.loc 1 491 0
 534 013a 1A4B     		ldr	r3, .L33+80
 535 013c 1422     		movs	r2, #20
 536 013e 1A60     		str	r2, [r3]
 492:Generated_Source\PSoC4/cyfitter_cfg.c **** 
 493:Generated_Source\PSoC4/cyfitter_cfg.c **** 	/* IOPINS0_2 Starting address: CYDEV_PRT2_BASE */
 494:Generated_Source\PSoC4/cyfitter_cfg.c **** 	CY_SET_REG32((void *)(CYDEV_PRT2_BASE), 0x00000007u);
 537              		.loc 1 494 0
 538 0140 0723     		movs	r3, #7
 539 0142 194A     		ldr	r2, .L33+84
 540 0144 1360     		str	r3, [r2]
 495:Generated_Source\PSoC4/cyfitter_cfg.c **** 	CY_SET_REG32((void *)(CYREG_PRT2_PC2), 0x00000007u);
 541              		.loc 1 495 0
 542 0146 194A     		ldr	r2, .L33+88
 543 0148 1360     		str	r3, [r2]
 496:Generated_Source\PSoC4/cyfitter_cfg.c **** 
 497:Generated_Source\PSoC4/cyfitter_cfg.c **** 
 498:Generated_Source\PSoC4/cyfitter_cfg.c **** 	/* Setup clocks based on selections from Clock DWR */
 499:Generated_Source\PSoC4/cyfitter_cfg.c **** 	ClockSetup();
 544              		.loc 1 499 0
 545 014a FFF759FF 		bl	ClockSetup
 546              	.LVL31:
 500:Generated_Source\PSoC4/cyfitter_cfg.c **** 
 501:Generated_Source\PSoC4/cyfitter_cfg.c **** 	/* Perform basic analog initialization to defaults */
 502:Generated_Source\PSoC4/cyfitter_cfg.c **** 	AnalogSetDefault();
 547              		.loc 1 502 0
 548 014e FFF7FEFF 		bl	AnalogSetDefault
 549              	.LVL32:
 503:Generated_Source\PSoC4/cyfitter_cfg.c **** 
 504:Generated_Source\PSoC4/cyfitter_cfg.c **** }
 550              		.loc 1 504 0
 551              		@ sp needed
 552              	.LVL33:
 553 0152 10BD     		pop	{r4, pc}
 554              	.L34:
 555              		.align	2
 556              	.L33:
ARM GAS  C:\Users\Jeremias\AppData\Local\Temp\cc3ZcIGT.s 			page 20


 557 0154 1C700F40 		.word	1074753564
 558 0158 00000000 		.word	.LANCHOR0
 559 015c 04000140 		.word	1073807364
 560 0160 0C000140 		.word	1073807372
 561 0164 08030440 		.word	1074004744
 562 0168 00500F40 		.word	1074745344
 563 016c 10500F40 		.word	1074745360
 564 0170 00001089 		.word	-1995440128
 565 0174 18500F40 		.word	1074745368
 566 0178 20500F40 		.word	1074745376
 567 017c 20000040 		.word	1073741856
 568 0180 00800F40 		.word	1074757632
 569 0184 01700F40 		.word	1074753537
 570 0188 00700F40 		.word	1074753536
 571 018c 00000440 		.word	1074003968
 572 0190 B66D5B00 		.word	5991862
 573 0194 08000440 		.word	1074003976
 574 0198 0C000440 		.word	1074003980
 575 019c 00010440 		.word	1074004224
 576 01a0 08010440 		.word	1074004232
 577 01a4 18010440 		.word	1074004248
 578 01a8 00020440 		.word	1074004480
 579 01ac 18020440 		.word	1074004504
 580              		.cfi_endproc
 581              	.LFE9:
 582              		.size	cyfitter_cfg, .-cyfitter_cfg
 583              		.section	.rodata
 584              		.align	2
 585              		.set	.LANCHOR0,. + 0
 586              		.type	cfg_memset_list.4894, %object
 587              		.size	cfg_memset_list.4894, 12
 588              	cfg_memset_list.4894:
 589 0000 00300F40 		.word	1074737152
 590 0004 0004     		.short	1024
 591 0006 00400F40 		.4byte	1074741248
 592 000a 0004     		.short	1024
 593              		.type	cy_cfg_data_table.4889, %object
 594              		.size	cy_cfg_data_table.4889, 58
 595              	cy_cfg_data_table.4889:
 596 000c 38       		.byte	56
 597 000d 20       		.byte	32
 598 000e 3E       		.byte	62
 599 000f 10       		.byte	16
 600 0010 58       		.byte	88
 601 0011 04       		.byte	4
 602 0012 5F       		.byte	95
 603 0013 01       		.byte	1
 604 0014 18       		.byte	24
 605 0015 04       		.byte	4
 606 0016 80       		.byte	-128
 607 0017 04       		.byte	4
 608 0018 E0       		.byte	-32
 609 0019 04       		.byte	4
 610 001a E2       		.byte	-30
 611 001b 01       		.byte	1
 612 001c 2F       		.byte	47
 613 001d 20       		.byte	32
ARM GAS  C:\Users\Jeremias\AppData\Local\Temp\cc3ZcIGT.s 			page 21


 614 001e 6F       		.byte	111
 615 001f 20       		.byte	32
 616 0020 83       		.byte	-125
 617 0021 08       		.byte	8
 618 0022 CA       		.byte	-54
 619 0023 80       		.byte	-128
 620 0024 DA       		.byte	-38
 621 0025 80       		.byte	-128
 622 0026 E2       		.byte	-30
 623 0027 20       		.byte	32
 624 0028 56       		.byte	86
 625 0029 40       		.byte	64
 626 002a 5F       		.byte	95
 627 002b 08       		.byte	8
 628 002c 60       		.byte	96
 629 002d 01       		.byte	1
 630 002e 66       		.byte	102
 631 002f 40       		.byte	64
 632 0030 80       		.byte	-128
 633 0031 01       		.byte	1
 634 0032 9B       		.byte	-101
 635 0033 08       		.byte	8
 636 0034 D4       		.byte	-44
 637 0035 40       		.byte	64
 638 0036 D6       		.byte	-42
 639 0037 C0       		.byte	-64
 640 0038 E2       		.byte	-30
 641 0039 80       		.byte	-128
 642 003a 77       		.byte	119
 643 003b 08       		.byte	8
 644 003c 83       		.byte	-125
 645 003d 08       		.byte	8
 646 003e DC       		.byte	-36
 647 003f 02       		.byte	2
 648 0040 1A       		.byte	26
 649 0041 10       		.byte	16
 650 0042 82       		.byte	-126
 651 0043 10       		.byte	16
 652 0044 C6       		.byte	-58
 653 0045 08       		.byte	8
 654 0046 0000     		.space	2
 655              		.type	cy_cfg_addr_table.4888, %object
 656              		.size	cy_cfg_addr_table.4888, 28
 657              	cy_cfg_addr_table.4888:
 658 0048 04300F40 		.word	1074737156
 659 004c 03310F40 		.word	1074737411
 660 0050 01330F40 		.word	1074737921
 661 0054 06400F40 		.word	1074741254
 662 0058 09410F40 		.word	1074741513
 663 005c 03420F40 		.word	1074741763
 664 0060 03430F40 		.word	1074742019
 665              		.text
 666              	.Letext0:
 667              		.file 2 "c:\\program files (x86)\\cypress\\psoc creator\\4.4\\psoc creator\\import\\gnu\\arm\\5.4.
 668              		.file 3 "Generated_Source\\PSoC4\\cytypes.h"
 669              		.file 4 "Generated_Source\\PSoC4\\CyLib.h"