ARM GAS  C:\Users\Jeremias\AppData\Local\Temp\ccMvYsAi.s 			page 1


   1              		.syntax unified
   2              		.cpu cortex-m0
   3              		.fpu softvfp
   4              		.eabi_attribute 20, 1
   5              		.eabi_attribute 21, 1
   6              		.eabi_attribute 23, 3
   7              		.eabi_attribute 24, 1
   8              		.eabi_attribute 25, 1
   9              		.eabi_attribute 26, 1
  10              		.eabi_attribute 30, 1
  11              		.eabi_attribute 34, 0
  12              		.eabi_attribute 18, 4
  13              		.thumb
  14              		.syntax unified
  15              		.file	"main.c"
  16              		.text
  17              	.Ltext0:
  18              		.cfi_sections	.debug_frame
  19              		.section	.text.VAR_IDAC_Handler,"ax",%progbits
  20              		.align	2
  21              		.global	VAR_IDAC_Handler
  22              		.code	16
  23              		.thumb_func
  24              		.type	VAR_IDAC_Handler, %function
  25              	VAR_IDAC_Handler:
  26              	.LFB32:
  27              		.file 1 "main.c"
   1:main.c        **** /* ========================================
   2:main.c        ****  *
   3:main.c        **** Prueba de modulo IDAC
   4:main.c        ****  *
   5:main.c        ****  * ========================================*/
   6:main.c        **** #include "project.h"
   7:main.c        **** 
   8:main.c        **** uint8 I_OUT=0;
   9:main.c        **** CY_ISR(VAR_IDAC_Handler)
  10:main.c        **** {
  28              		.loc 1 10 0
  29              		.cfi_startproc
  30              		@ args = 0, pretend = 0, frame = 0
  31              		@ frame_needed = 0, uses_anonymous_args = 0
  32 0000 10B5     		push	{r4, lr}
  33              		.cfi_def_cfa_offset 8
  34              		.cfi_offset 4, -8
  35              		.cfi_offset 14, -4
  11:main.c        ****     if(I_OUT>=255)
  36              		.loc 1 11 0
  37 0002 094B     		ldr	r3, .L4
  38 0004 1B78     		ldrb	r3, [r3]
  39 0006 FF2B     		cmp	r3, #255
  40 0008 03D1     		bne	.L2
  12:main.c        ****      I_OUT=0;
  41              		.loc 1 12 0
  42 000a 0022     		movs	r2, #0
  43 000c 064B     		ldr	r3, .L4
  44 000e 1A70     		strb	r2, [r3]
  45 0010 02E0     		b	.L3
ARM GAS  C:\Users\Jeremias\AppData\Local\Temp\ccMvYsAi.s 			page 2


  46              	.L2:
  13:main.c        ****     else
  14:main.c        ****      I_OUT=I_OUT+5;
  47              		.loc 1 14 0
  48 0012 0533     		adds	r3, r3, #5
  49 0014 044A     		ldr	r2, .L4
  50 0016 1370     		strb	r3, [r2]
  51              	.L3:
  15:main.c        ****     IDAC_1_SetValue(I_OUT);
  52              		.loc 1 15 0
  53 0018 034B     		ldr	r3, .L4
  54 001a 1878     		ldrb	r0, [r3]
  55 001c FFF7FEFF 		bl	IDAC_1_SetValue
  56              	.LVL0:
  16:main.c        ****     SW1_IDAC_ClearInterrupt();
  57              		.loc 1 16 0
  58 0020 FFF7FEFF 		bl	SW1_IDAC_ClearInterrupt
  59              	.LVL1:
  17:main.c        **** }
  60              		.loc 1 17 0
  61              		@ sp needed
  62 0024 10BD     		pop	{r4, pc}
  63              	.L5:
  64 0026 C046     		.align	2
  65              	.L4:
  66 0028 00000000 		.word	.LANCHOR0
  67              		.cfi_endproc
  68              	.LFE32:
  69              		.size	VAR_IDAC_Handler, .-VAR_IDAC_Handler
  70              		.section	.text.main,"ax",%progbits
  71              		.align	2
  72              		.global	main
  73              		.code	16
  74              		.thumb_func
  75              		.type	main, %function
  76              	main:
  77              	.LFB33:
  18:main.c        **** 
  19:main.c        **** int main()
  20:main.c        **** {
  78              		.loc 1 20 0
  79              		.cfi_startproc
  80              		@ Volatile: function does not return.
  81              		@ args = 0, pretend = 0, frame = 0
  82              		@ frame_needed = 0, uses_anonymous_args = 0
  83 0000 10B5     		push	{r4, lr}
  84              		.cfi_def_cfa_offset 8
  85              		.cfi_offset 4, -8
  86              		.cfi_offset 14, -4
  21:main.c        ****     CyGlobalIntEnable;
  87              		.loc 1 21 0
  88              		.syntax divided
  89              	@ 21 "main.c" 1
  90 0002 62B6     		CPSIE   i
  91              	@ 0 "" 2
  22:main.c        ****     IDAC_1_Start();
  92              		.loc 1 22 0
ARM GAS  C:\Users\Jeremias\AppData\Local\Temp\ccMvYsAi.s 			page 3


  93              		.thumb
  94              		.syntax unified
  95 0004 FFF7FEFF 		bl	IDAC_1_Start
  96              	.LVL2:
  23:main.c        ****     VAR_IDAC_StartEx(VAR_IDAC_Handler);
  97              		.loc 1 23 0
  98 0008 0148     		ldr	r0, .L8
  99 000a FFF7FEFF 		bl	VAR_IDAC_StartEx
 100              	.LVL3:
 101              	.L7:
 102 000e FEE7     		b	.L7
 103              	.L9:
 104              		.align	2
 105              	.L8:
 106 0010 00000000 		.word	VAR_IDAC_Handler
 107              		.cfi_endproc
 108              	.LFE33:
 109              		.size	main, .-main
 110              		.global	I_OUT
 111              		.bss
 112              		.set	.LANCHOR0,. + 0
 113              		.type	I_OUT, %object
 114              		.size	I_OUT, 1
 115              	I_OUT:
 116 0000 00       		.space	1
 117              		.text
 118              	.Letext0:
 119              		.file 2 "Generated_Source\\PSoC4/IDAC_1.h"
 120              		.file 3 "Generated_Source\\PSoC4/SW1_IDAC.h"
 121              		.file 4 "Generated_Source\\PSoC4/VAR_IDAC.h"
 122              		.file 5 "Generated_Source\\PSoC4/cytypes.h"