ARM GAS  C:\Users\Jeremias\AppData\Local\Temp\cc8IqgbX.s 			page 1


   1              		.syntax unified
   2              		.cpu cortex-m0
   3              		.fpu softvfp
   4              		.eabi_attribute 20, 1
   5              		.eabi_attribute 21, 1
   6              		.eabi_attribute 23, 3
   7              		.eabi_attribute 24, 1
   8              		.eabi_attribute 25, 1
   9              		.eabi_attribute 26, 1
  10              		.eabi_attribute 30, 1
  11              		.eabi_attribute 34, 0
  12              		.eabi_attribute 18, 4
  13              		.thumb
  14              		.syntax unified
  15              		.file	"Comp_1_PM.c"
  16              		.text
  17              	.Ltext0:
  18              		.cfi_sections	.debug_frame
  19              		.section	.text.Comp_1_SaveConfig,"ax",%progbits
  20              		.align	2
  21              		.global	Comp_1_SaveConfig
  22              		.code	16
  23              		.thumb_func
  24              		.type	Comp_1_SaveConfig, %function
  25              	Comp_1_SaveConfig:
  26              	.LFB0:
  27              		.file 1 "Generated_Source\\PSoC4\\Comp_1_PM.c"
   1:Generated_Source\PSoC4/Comp_1_PM.c **** /*******************************************************************************
   2:Generated_Source\PSoC4/Comp_1_PM.c **** * File Name: Comp_1_PM.c
   3:Generated_Source\PSoC4/Comp_1_PM.c **** * Version 1.20
   4:Generated_Source\PSoC4/Comp_1_PM.c **** *
   5:Generated_Source\PSoC4/Comp_1_PM.c **** * Description:
   6:Generated_Source\PSoC4/Comp_1_PM.c **** *  This file provides the power management source code APIs for the
   7:Generated_Source\PSoC4/Comp_1_PM.c **** *  Comparator.
   8:Generated_Source\PSoC4/Comp_1_PM.c **** *
   9:Generated_Source\PSoC4/Comp_1_PM.c **** * Note:
  10:Generated_Source\PSoC4/Comp_1_PM.c **** *  None
  11:Generated_Source\PSoC4/Comp_1_PM.c **** *
  12:Generated_Source\PSoC4/Comp_1_PM.c **** ********************************************************************************
  13:Generated_Source\PSoC4/Comp_1_PM.c **** * Copyright 2013-2015, Cypress Semiconductor Corporation.  All rights reserved.
  14:Generated_Source\PSoC4/Comp_1_PM.c **** * You may use this file only in accordance with the license, terms, conditions,
  15:Generated_Source\PSoC4/Comp_1_PM.c **** * disclaimers, and limitations in the end user license agreement accompanying
  16:Generated_Source\PSoC4/Comp_1_PM.c **** * the software package with which this file was provided.
  17:Generated_Source\PSoC4/Comp_1_PM.c **** *******************************************************************************/
  18:Generated_Source\PSoC4/Comp_1_PM.c **** 
  19:Generated_Source\PSoC4/Comp_1_PM.c **** #include "Comp_1.h"
  20:Generated_Source\PSoC4/Comp_1_PM.c **** 
  21:Generated_Source\PSoC4/Comp_1_PM.c **** #if(!Comp_1_CHECK_DEEPSLEEP_SUPPORT)
  22:Generated_Source\PSoC4/Comp_1_PM.c ****     static Comp_1_BACKUP_STRUCT Comp_1_backup =
  23:Generated_Source\PSoC4/Comp_1_PM.c ****     {
  24:Generated_Source\PSoC4/Comp_1_PM.c ****         0u, /* enableState */
  25:Generated_Source\PSoC4/Comp_1_PM.c ****     };
  26:Generated_Source\PSoC4/Comp_1_PM.c **** #endif /* (Comp_1_CHECK_DEEPSLEEP_SUPPORT) */
  27:Generated_Source\PSoC4/Comp_1_PM.c **** 
  28:Generated_Source\PSoC4/Comp_1_PM.c **** 
  29:Generated_Source\PSoC4/Comp_1_PM.c **** /*******************************************************************************
  30:Generated_Source\PSoC4/Comp_1_PM.c **** * Function Name: Comp_1_SaveConfig
ARM GAS  C:\Users\Jeremias\AppData\Local\Temp\cc8IqgbX.s 			page 2


  31:Generated_Source\PSoC4/Comp_1_PM.c **** ********************************************************************************
  32:Generated_Source\PSoC4/Comp_1_PM.c **** *
  33:Generated_Source\PSoC4/Comp_1_PM.c **** * Summary:
  34:Generated_Source\PSoC4/Comp_1_PM.c **** *  Empty function. Included for consistency with other components.
  35:Generated_Source\PSoC4/Comp_1_PM.c **** *
  36:Generated_Source\PSoC4/Comp_1_PM.c **** * Parameters:
  37:Generated_Source\PSoC4/Comp_1_PM.c **** *  None
  38:Generated_Source\PSoC4/Comp_1_PM.c **** *
  39:Generated_Source\PSoC4/Comp_1_PM.c **** * Return:
  40:Generated_Source\PSoC4/Comp_1_PM.c **** *  None
  41:Generated_Source\PSoC4/Comp_1_PM.c **** *
  42:Generated_Source\PSoC4/Comp_1_PM.c **** *******************************************************************************/
  43:Generated_Source\PSoC4/Comp_1_PM.c **** void Comp_1_SaveConfig(void)
  44:Generated_Source\PSoC4/Comp_1_PM.c **** {
  28              		.loc 1 44 0
  29              		.cfi_startproc
  30              		@ args = 0, pretend = 0, frame = 0
  31              		@ frame_needed = 0, uses_anonymous_args = 0
  32              		@ link register save eliminated.
  45:Generated_Source\PSoC4/Comp_1_PM.c **** 
  46:Generated_Source\PSoC4/Comp_1_PM.c **** }
  33              		.loc 1 46 0
  34              		@ sp needed
  35 0000 7047     		bx	lr
  36              		.cfi_endproc
  37              	.LFE0:
  38              		.size	Comp_1_SaveConfig, .-Comp_1_SaveConfig
  39 0002 C046     		.section	.text.Comp_1_RestoreConfig,"ax",%progbits
  40              		.align	2
  41              		.global	Comp_1_RestoreConfig
  42              		.code	16
  43              		.thumb_func
  44              		.type	Comp_1_RestoreConfig, %function
  45              	Comp_1_RestoreConfig:
  46              	.LFB1:
  47:Generated_Source\PSoC4/Comp_1_PM.c **** 
  48:Generated_Source\PSoC4/Comp_1_PM.c **** 
  49:Generated_Source\PSoC4/Comp_1_PM.c **** /*******************************************************************************
  50:Generated_Source\PSoC4/Comp_1_PM.c **** * Function Name: Comp_1_RestoreConfig
  51:Generated_Source\PSoC4/Comp_1_PM.c **** ********************************************************************************
  52:Generated_Source\PSoC4/Comp_1_PM.c **** *
  53:Generated_Source\PSoC4/Comp_1_PM.c **** * Summary:
  54:Generated_Source\PSoC4/Comp_1_PM.c **** *  Empty function. Included for consistency with other components.
  55:Generated_Source\PSoC4/Comp_1_PM.c **** *
  56:Generated_Source\PSoC4/Comp_1_PM.c **** * Parameters:
  57:Generated_Source\PSoC4/Comp_1_PM.c **** *  None
  58:Generated_Source\PSoC4/Comp_1_PM.c **** *
  59:Generated_Source\PSoC4/Comp_1_PM.c **** * Return:
  60:Generated_Source\PSoC4/Comp_1_PM.c **** *  None
  61:Generated_Source\PSoC4/Comp_1_PM.c **** *
  62:Generated_Source\PSoC4/Comp_1_PM.c **** ********************************************************************************/
  63:Generated_Source\PSoC4/Comp_1_PM.c **** void Comp_1_RestoreConfig(void)
  64:Generated_Source\PSoC4/Comp_1_PM.c **** {
  47              		.loc 1 64 0
  48              		.cfi_startproc
  49              		@ args = 0, pretend = 0, frame = 0
  50              		@ frame_needed = 0, uses_anonymous_args = 0
ARM GAS  C:\Users\Jeremias\AppData\Local\Temp\cc8IqgbX.s 			page 3


  51              		@ link register save eliminated.
  65:Generated_Source\PSoC4/Comp_1_PM.c **** 
  66:Generated_Source\PSoC4/Comp_1_PM.c **** }
  52              		.loc 1 66 0
  53              		@ sp needed
  54 0000 7047     		bx	lr
  55              		.cfi_endproc
  56              	.LFE1:
  57              		.size	Comp_1_RestoreConfig, .-Comp_1_RestoreConfig
  58 0002 C046     		.section	.text.Comp_1_Sleep,"ax",%progbits
  59              		.align	2
  60              		.global	Comp_1_Sleep
  61              		.code	16
  62              		.thumb_func
  63              		.type	Comp_1_Sleep, %function
  64              	Comp_1_Sleep:
  65              	.LFB2:
  67:Generated_Source\PSoC4/Comp_1_PM.c **** 
  68:Generated_Source\PSoC4/Comp_1_PM.c **** 
  69:Generated_Source\PSoC4/Comp_1_PM.c **** /*******************************************************************************
  70:Generated_Source\PSoC4/Comp_1_PM.c **** * Function Name: Comp_1_Sleep
  71:Generated_Source\PSoC4/Comp_1_PM.c **** ********************************************************************************
  72:Generated_Source\PSoC4/Comp_1_PM.c **** *
  73:Generated_Source\PSoC4/Comp_1_PM.c **** * Summary:
  74:Generated_Source\PSoC4/Comp_1_PM.c **** *  This is the preferred API to prepare the component for sleep. The Sleep() API 
  75:Generated_Source\PSoC4/Comp_1_PM.c **** *  saves the current component state. Call the Comp_Sleep() function before 
  76:Generated_Source\PSoC4/Comp_1_PM.c **** *  calling the CySysPmDeepSleep() or the CySysPmHibernate() functions.
  77:Generated_Source\PSoC4/Comp_1_PM.c **** *  The "Deep sleep operation" option has an influence on this function
  78:Generated_Source\PSoC4/Comp_1_PM.c **** *  implementation.
  79:Generated_Source\PSoC4/Comp_1_PM.c **** *
  80:Generated_Source\PSoC4/Comp_1_PM.c **** * Parameters:
  81:Generated_Source\PSoC4/Comp_1_PM.c **** *  None
  82:Generated_Source\PSoC4/Comp_1_PM.c **** *
  83:Generated_Source\PSoC4/Comp_1_PM.c **** * Return:
  84:Generated_Source\PSoC4/Comp_1_PM.c **** *  None
  85:Generated_Source\PSoC4/Comp_1_PM.c **** *
  86:Generated_Source\PSoC4/Comp_1_PM.c **** *******************************************************************************/
  87:Generated_Source\PSoC4/Comp_1_PM.c **** void Comp_1_Sleep(void)
  88:Generated_Source\PSoC4/Comp_1_PM.c **** {
  66              		.loc 1 88 0
  67              		.cfi_startproc
  68              		@ args = 0, pretend = 0, frame = 0
  69              		@ frame_needed = 0, uses_anonymous_args = 0
  70 0000 10B5     		push	{r4, lr}
  71              		.cfi_def_cfa_offset 8
  72              		.cfi_offset 4, -8
  73              		.cfi_offset 14, -4
  89:Generated_Source\PSoC4/Comp_1_PM.c **** #if(!Comp_1_CHECK_DEEPSLEEP_SUPPORT)
  90:Generated_Source\PSoC4/Comp_1_PM.c ****     if(Comp_1_CHECK_PWR_MODE_OFF)
  74              		.loc 1 90 0
  75 0002 074B     		ldr	r3, .L6
  76 0004 1B68     		ldr	r3, [r3]
  77 0006 9B07     		lsls	r3, r3, #30
  78 0008 05D0     		beq	.L4
  91:Generated_Source\PSoC4/Comp_1_PM.c ****     {
  92:Generated_Source\PSoC4/Comp_1_PM.c ****         Comp_1_backup.enableState = 1u;
  79              		.loc 1 92 0
ARM GAS  C:\Users\Jeremias\AppData\Local\Temp\cc8IqgbX.s 			page 4


  80 000a 0122     		movs	r2, #1
  81 000c 054B     		ldr	r3, .L6+4
  82 000e 1A70     		strb	r2, [r3]
  93:Generated_Source\PSoC4/Comp_1_PM.c ****         Comp_1_Stop();
  83              		.loc 1 93 0
  84 0010 FFF7FEFF 		bl	Comp_1_Stop
  85              	.LVL0:
  86 0014 02E0     		b	.L3
  87              	.L4:
  94:Generated_Source\PSoC4/Comp_1_PM.c ****     }
  95:Generated_Source\PSoC4/Comp_1_PM.c ****     else /* Component is disabled */
  96:Generated_Source\PSoC4/Comp_1_PM.c ****     {
  97:Generated_Source\PSoC4/Comp_1_PM.c ****         Comp_1_backup.enableState = 0u;
  88              		.loc 1 97 0
  89 0016 0022     		movs	r2, #0
  90 0018 024B     		ldr	r3, .L6+4
  91 001a 1A70     		strb	r2, [r3]
  92              	.L3:
  98:Generated_Source\PSoC4/Comp_1_PM.c ****     }
  99:Generated_Source\PSoC4/Comp_1_PM.c **** #endif /* (Comp_1_CHECK_DEEPSLEEP_SUPPORT) */
 100:Generated_Source\PSoC4/Comp_1_PM.c **** }
  93              		.loc 1 100 0
  94              		@ sp needed
  95 001c 10BD     		pop	{r4, pc}
  96              	.L7:
  97 001e C046     		.align	2
  98              	.L6:
  99 0020 04001040 		.word	1074790404
 100 0024 00000000 		.word	.LANCHOR0
 101              		.cfi_endproc
 102              	.LFE2:
 103              		.size	Comp_1_Sleep, .-Comp_1_Sleep
 104              		.section	.text.Comp_1_Wakeup,"ax",%progbits
 105              		.align	2
 106              		.global	Comp_1_Wakeup
 107              		.code	16
 108              		.thumb_func
 109              		.type	Comp_1_Wakeup, %function
 110              	Comp_1_Wakeup:
 111              	.LFB3:
 101:Generated_Source\PSoC4/Comp_1_PM.c **** 
 102:Generated_Source\PSoC4/Comp_1_PM.c **** 
 103:Generated_Source\PSoC4/Comp_1_PM.c **** /*******************************************************************************
 104:Generated_Source\PSoC4/Comp_1_PM.c **** * Function Name: Comp_1_Wakeup
 105:Generated_Source\PSoC4/Comp_1_PM.c **** ********************************************************************************
 106:Generated_Source\PSoC4/Comp_1_PM.c **** *
 107:Generated_Source\PSoC4/Comp_1_PM.c **** * Summary:
 108:Generated_Source\PSoC4/Comp_1_PM.c **** *  This is the preferred API to restore the component to the state when Sleep() 
 109:Generated_Source\PSoC4/Comp_1_PM.c **** *  was called. The Wakeup() function will also re-enable the component. 
 110:Generated_Source\PSoC4/Comp_1_PM.c **** *  The "Deep sleep operation" option has an influence on this function
 111:Generated_Source\PSoC4/Comp_1_PM.c **** *  implementation.
 112:Generated_Source\PSoC4/Comp_1_PM.c **** *
 113:Generated_Source\PSoC4/Comp_1_PM.c **** * Parameters:
 114:Generated_Source\PSoC4/Comp_1_PM.c **** *  None
 115:Generated_Source\PSoC4/Comp_1_PM.c **** *
 116:Generated_Source\PSoC4/Comp_1_PM.c **** * Return:
 117:Generated_Source\PSoC4/Comp_1_PM.c **** *  None
ARM GAS  C:\Users\Jeremias\AppData\Local\Temp\cc8IqgbX.s 			page 5


 118:Generated_Source\PSoC4/Comp_1_PM.c **** *
 119:Generated_Source\PSoC4/Comp_1_PM.c **** *******************************************************************************/
 120:Generated_Source\PSoC4/Comp_1_PM.c **** void Comp_1_Wakeup(void)
 121:Generated_Source\PSoC4/Comp_1_PM.c **** {
 112              		.loc 1 121 0
 113              		.cfi_startproc
 114              		@ args = 0, pretend = 0, frame = 0
 115              		@ frame_needed = 0, uses_anonymous_args = 0
 116 0000 10B5     		push	{r4, lr}
 117              		.cfi_def_cfa_offset 8
 118              		.cfi_offset 4, -8
 119              		.cfi_offset 14, -4
 122:Generated_Source\PSoC4/Comp_1_PM.c **** #if(!Comp_1_CHECK_DEEPSLEEP_SUPPORT)
 123:Generated_Source\PSoC4/Comp_1_PM.c ****     if(0u != Comp_1_backup.enableState)
 120              		.loc 1 123 0
 121 0002 034B     		ldr	r3, .L10
 122 0004 1B78     		ldrb	r3, [r3]
 123 0006 002B     		cmp	r3, #0
 124 0008 01D0     		beq	.L8
 124:Generated_Source\PSoC4/Comp_1_PM.c ****     {
 125:Generated_Source\PSoC4/Comp_1_PM.c ****         /* Enable Comp's operation */
 126:Generated_Source\PSoC4/Comp_1_PM.c ****         Comp_1_Enable();
 125              		.loc 1 126 0
 126 000a FFF7FEFF 		bl	Comp_1_Enable
 127              	.LVL1:
 128              	.L8:
 127:Generated_Source\PSoC4/Comp_1_PM.c ****     } /* Do nothing if Comp was disabled before */
 128:Generated_Source\PSoC4/Comp_1_PM.c **** #endif /* (Comp_1_CHECK_DEEPSLEEP_SUPPORT) */
 129:Generated_Source\PSoC4/Comp_1_PM.c **** }
 129              		.loc 1 129 0
 130              		@ sp needed
 131 000e 10BD     		pop	{r4, pc}
 132              	.L11:
 133              		.align	2
 134              	.L10:
 135 0010 00000000 		.word	.LANCHOR0
 136              		.cfi_endproc
 137              	.LFE3:
 138              		.size	Comp_1_Wakeup, .-Comp_1_Wakeup
 139              		.bss
 140              		.align	2
 141              		.set	.LANCHOR0,. + 0
 142              		.type	Comp_1_backup, %object
 143              		.size	Comp_1_backup, 1
 144              	Comp_1_backup:
 145 0000 00       		.space	1
 146              		.text
 147              	.Letext0:
 148              		.file 2 "Generated_Source\\PSoC4\\cytypes.h"
 149              		.file 3 "Generated_Source\\PSoC4\\Comp_1.h"