ARM GAS  C:\Users\Jeremias\AppData\Local\Temp\ccO14tv7.s 			page 1


   1              		.syntax unified
   2              		.cpu cortex-m0
   3              		.fpu softvfp
   4              		.eabi_attribute 20, 1
   5              		.eabi_attribute 21, 1
   6              		.eabi_attribute 23, 3
   7              		.eabi_attribute 24, 1
   8              		.eabi_attribute 25, 1
   9              		.eabi_attribute 26, 1
  10              		.eabi_attribute 30, 1
  11              		.eabi_attribute 34, 0
  12              		.eabi_attribute 18, 4
  13              		.thumb
  14              		.syntax unified
  15              		.file	"cyfitter_cfg.c"
  16              		.text
  17              	.Ltext0:
  18              		.cfi_sections	.debug_frame
  19              		.section	.text.cfg_write_bytes32,"ax",%progbits
  20              		.align	2
  21              		.code	16
  22              		.thumb_func
  23              		.type	cfg_write_bytes32, %function
  24              	cfg_write_bytes32:
  25              	.LFB3:
  26              		.file 1 "Generated_Source\\PSoC4\\cyfitter_cfg.c"
   1:Generated_Source\PSoC4/cyfitter_cfg.c **** 
   2:Generated_Source\PSoC4/cyfitter_cfg.c **** /*******************************************************************************
   3:Generated_Source\PSoC4/cyfitter_cfg.c **** * File Name: cyfitter_cfg.c
   4:Generated_Source\PSoC4/cyfitter_cfg.c **** * 
   5:Generated_Source\PSoC4/cyfitter_cfg.c **** * PSoC Creator  4.4
   6:Generated_Source\PSoC4/cyfitter_cfg.c **** *
   7:Generated_Source\PSoC4/cyfitter_cfg.c **** * Description:
   8:Generated_Source\PSoC4/cyfitter_cfg.c **** * This file contains device initialization code.
   9:Generated_Source\PSoC4/cyfitter_cfg.c **** * Except for the user defined sections in CyClockStartupError(), this file should not be modified.
  10:Generated_Source\PSoC4/cyfitter_cfg.c **** * This file is automatically generated by PSoC Creator.
  11:Generated_Source\PSoC4/cyfitter_cfg.c **** *
  12:Generated_Source\PSoC4/cyfitter_cfg.c **** ********************************************************************************
  13:Generated_Source\PSoC4/cyfitter_cfg.c **** * Copyright (c) 2007-2020 Cypress Semiconductor.  All rights reserved.
  14:Generated_Source\PSoC4/cyfitter_cfg.c **** * You may use this file only in accordance with the license, terms, conditions, 
  15:Generated_Source\PSoC4/cyfitter_cfg.c **** * disclaimers, and limitations in the end user license agreement accompanying 
  16:Generated_Source\PSoC4/cyfitter_cfg.c **** * the software package with which this file was provided.
  17:Generated_Source\PSoC4/cyfitter_cfg.c **** ********************************************************************************/
  18:Generated_Source\PSoC4/cyfitter_cfg.c **** 
  19:Generated_Source\PSoC4/cyfitter_cfg.c **** #include <string.h>
  20:Generated_Source\PSoC4/cyfitter_cfg.c **** #include "cytypes.h"
  21:Generated_Source\PSoC4/cyfitter_cfg.c **** #include "cydevice_trm.h"
  22:Generated_Source\PSoC4/cyfitter_cfg.c **** #include "cyfitter.h"
  23:Generated_Source\PSoC4/cyfitter_cfg.c **** #include "CyLib.h"
  24:Generated_Source\PSoC4/cyfitter_cfg.c **** #include "CyLFClk.h"
  25:Generated_Source\PSoC4/cyfitter_cfg.c **** #include "cyfitter_cfg.h"
  26:Generated_Source\PSoC4/cyfitter_cfg.c **** #include "cyapicallbacks.h"
  27:Generated_Source\PSoC4/cyfitter_cfg.c **** 
  28:Generated_Source\PSoC4/cyfitter_cfg.c **** 
  29:Generated_Source\PSoC4/cyfitter_cfg.c **** #if defined(__GNUC__) || defined(__ARMCC_VERSION)
  30:Generated_Source\PSoC4/cyfitter_cfg.c ****     #define CYPACKED 
  31:Generated_Source\PSoC4/cyfitter_cfg.c ****     #define CYPACKED_ATTR __attribute__ ((packed))
ARM GAS  C:\Users\Jeremias\AppData\Local\Temp\ccO14tv7.s 			page 2


  32:Generated_Source\PSoC4/cyfitter_cfg.c ****     #define CYALIGNED __attribute__ ((aligned))
  33:Generated_Source\PSoC4/cyfitter_cfg.c ****     #define CY_CFG_UNUSED __attribute__ ((unused))
  34:Generated_Source\PSoC4/cyfitter_cfg.c ****     #ifndef CY_CFG_SECTION
  35:Generated_Source\PSoC4/cyfitter_cfg.c ****         #define CY_CFG_SECTION __attribute__ ((section(".psocinit")))
  36:Generated_Source\PSoC4/cyfitter_cfg.c ****     #endif
  37:Generated_Source\PSoC4/cyfitter_cfg.c ****     
  38:Generated_Source\PSoC4/cyfitter_cfg.c ****     #if defined(__ARMCC_VERSION)
  39:Generated_Source\PSoC4/cyfitter_cfg.c ****         #define CY_CFG_MEMORY_BARRIER() __memory_changed()
  40:Generated_Source\PSoC4/cyfitter_cfg.c ****     #else
  41:Generated_Source\PSoC4/cyfitter_cfg.c ****         #define CY_CFG_MEMORY_BARRIER() __sync_synchronize()
  42:Generated_Source\PSoC4/cyfitter_cfg.c ****     #endif
  43:Generated_Source\PSoC4/cyfitter_cfg.c ****     
  44:Generated_Source\PSoC4/cyfitter_cfg.c **** #elif defined(__ICCARM__)
  45:Generated_Source\PSoC4/cyfitter_cfg.c ****     #include <intrinsics.h>
  46:Generated_Source\PSoC4/cyfitter_cfg.c **** 
  47:Generated_Source\PSoC4/cyfitter_cfg.c ****     #define CYPACKED __packed
  48:Generated_Source\PSoC4/cyfitter_cfg.c ****     #define CYPACKED_ATTR 
  49:Generated_Source\PSoC4/cyfitter_cfg.c ****     #define CYALIGNED _Pragma("data_alignment=4")
  50:Generated_Source\PSoC4/cyfitter_cfg.c ****     #define CY_CFG_UNUSED _Pragma("diag_suppress=Pe177")
  51:Generated_Source\PSoC4/cyfitter_cfg.c ****     #define CY_CFG_SECTION _Pragma("location=\".psocinit\"")
  52:Generated_Source\PSoC4/cyfitter_cfg.c ****     
  53:Generated_Source\PSoC4/cyfitter_cfg.c ****     #define CY_CFG_MEMORY_BARRIER() __DMB()
  54:Generated_Source\PSoC4/cyfitter_cfg.c ****     
  55:Generated_Source\PSoC4/cyfitter_cfg.c **** #else
  56:Generated_Source\PSoC4/cyfitter_cfg.c ****     #error Unsupported toolchain
  57:Generated_Source\PSoC4/cyfitter_cfg.c **** #endif
  58:Generated_Source\PSoC4/cyfitter_cfg.c **** 
  59:Generated_Source\PSoC4/cyfitter_cfg.c **** #ifndef CYCODE
  60:Generated_Source\PSoC4/cyfitter_cfg.c ****     #define CYCODE
  61:Generated_Source\PSoC4/cyfitter_cfg.c **** #endif
  62:Generated_Source\PSoC4/cyfitter_cfg.c **** #ifndef CYDATA
  63:Generated_Source\PSoC4/cyfitter_cfg.c ****     #define CYDATA
  64:Generated_Source\PSoC4/cyfitter_cfg.c **** #endif
  65:Generated_Source\PSoC4/cyfitter_cfg.c **** #ifndef CYFAR
  66:Generated_Source\PSoC4/cyfitter_cfg.c ****     #define CYFAR
  67:Generated_Source\PSoC4/cyfitter_cfg.c **** #endif
  68:Generated_Source\PSoC4/cyfitter_cfg.c **** #ifndef CYXDATA
  69:Generated_Source\PSoC4/cyfitter_cfg.c ****     #define CYXDATA
  70:Generated_Source\PSoC4/cyfitter_cfg.c **** #endif
  71:Generated_Source\PSoC4/cyfitter_cfg.c **** 
  72:Generated_Source\PSoC4/cyfitter_cfg.c **** 
  73:Generated_Source\PSoC4/cyfitter_cfg.c **** CY_CFG_UNUSED
  74:Generated_Source\PSoC4/cyfitter_cfg.c **** static void CYMEMZERO(void *s, size_t n);
  75:Generated_Source\PSoC4/cyfitter_cfg.c **** CY_CFG_UNUSED
  76:Generated_Source\PSoC4/cyfitter_cfg.c **** static void CYMEMZERO(void *s, size_t n)
  77:Generated_Source\PSoC4/cyfitter_cfg.c **** {
  78:Generated_Source\PSoC4/cyfitter_cfg.c **** 	(void)memset(s, 0, n);
  79:Generated_Source\PSoC4/cyfitter_cfg.c **** }
  80:Generated_Source\PSoC4/cyfitter_cfg.c **** CY_CFG_UNUSED
  81:Generated_Source\PSoC4/cyfitter_cfg.c **** static void CYCONFIGCPY(void *dest, const void *src, size_t n);
  82:Generated_Source\PSoC4/cyfitter_cfg.c **** CY_CFG_UNUSED
  83:Generated_Source\PSoC4/cyfitter_cfg.c **** static void CYCONFIGCPY(void *dest, const void *src, size_t n)
  84:Generated_Source\PSoC4/cyfitter_cfg.c **** {
  85:Generated_Source\PSoC4/cyfitter_cfg.c **** 	(void)memcpy(dest, src, n);
  86:Generated_Source\PSoC4/cyfitter_cfg.c **** }
  87:Generated_Source\PSoC4/cyfitter_cfg.c **** CY_CFG_UNUSED
  88:Generated_Source\PSoC4/cyfitter_cfg.c **** static void CYCONFIGCPYCODE(void *dest, const void *src, size_t n);
ARM GAS  C:\Users\Jeremias\AppData\Local\Temp\ccO14tv7.s 			page 3


  89:Generated_Source\PSoC4/cyfitter_cfg.c **** CY_CFG_UNUSED
  90:Generated_Source\PSoC4/cyfitter_cfg.c **** static void CYCONFIGCPYCODE(void *dest, const void *src, size_t n)
  91:Generated_Source\PSoC4/cyfitter_cfg.c **** {
  92:Generated_Source\PSoC4/cyfitter_cfg.c **** 	(void)memcpy(dest, src, n);
  93:Generated_Source\PSoC4/cyfitter_cfg.c **** }
  94:Generated_Source\PSoC4/cyfitter_cfg.c **** 
  95:Generated_Source\PSoC4/cyfitter_cfg.c **** 
  96:Generated_Source\PSoC4/cyfitter_cfg.c **** 
  97:Generated_Source\PSoC4/cyfitter_cfg.c **** 
  98:Generated_Source\PSoC4/cyfitter_cfg.c **** /* Clock startup error codes                                                   */
  99:Generated_Source\PSoC4/cyfitter_cfg.c **** #define CYCLOCKSTART_NO_ERROR    0u
 100:Generated_Source\PSoC4/cyfitter_cfg.c **** #define CYCLOCKSTART_XTAL_ERROR  1u
 101:Generated_Source\PSoC4/cyfitter_cfg.c **** #define CYCLOCKSTART_32KHZ_ERROR 2u
 102:Generated_Source\PSoC4/cyfitter_cfg.c **** #define CYCLOCKSTART_PLL_ERROR   3u
 103:Generated_Source\PSoC4/cyfitter_cfg.c **** #define CYCLOCKSTART_FLL_ERROR   4u
 104:Generated_Source\PSoC4/cyfitter_cfg.c **** #define CYCLOCKSTART_WCO_ERROR   5u
 105:Generated_Source\PSoC4/cyfitter_cfg.c **** 
 106:Generated_Source\PSoC4/cyfitter_cfg.c **** 
 107:Generated_Source\PSoC4/cyfitter_cfg.c **** #ifdef CY_NEED_CYCLOCKSTARTUPERROR
 108:Generated_Source\PSoC4/cyfitter_cfg.c **** /*******************************************************************************
 109:Generated_Source\PSoC4/cyfitter_cfg.c **** * Function Name: CyClockStartupError
 110:Generated_Source\PSoC4/cyfitter_cfg.c **** ********************************************************************************
 111:Generated_Source\PSoC4/cyfitter_cfg.c **** * Summary:
 112:Generated_Source\PSoC4/cyfitter_cfg.c **** *  If an error is encountered during clock configuration (crystal startup error,
 113:Generated_Source\PSoC4/cyfitter_cfg.c **** *  PLL lock error, etc.), the system will end up here.  Unless reimplemented by
 114:Generated_Source\PSoC4/cyfitter_cfg.c **** *  the customer, this function will stop in an infinite loop.
 115:Generated_Source\PSoC4/cyfitter_cfg.c **** *
 116:Generated_Source\PSoC4/cyfitter_cfg.c **** * Parameters:
 117:Generated_Source\PSoC4/cyfitter_cfg.c **** *   void
 118:Generated_Source\PSoC4/cyfitter_cfg.c **** *
 119:Generated_Source\PSoC4/cyfitter_cfg.c **** * Return:
 120:Generated_Source\PSoC4/cyfitter_cfg.c **** *   void
 121:Generated_Source\PSoC4/cyfitter_cfg.c **** *
 122:Generated_Source\PSoC4/cyfitter_cfg.c **** *******************************************************************************/
 123:Generated_Source\PSoC4/cyfitter_cfg.c **** CY_CFG_UNUSED
 124:Generated_Source\PSoC4/cyfitter_cfg.c **** static void CyClockStartupError(uint8 errorCode);
 125:Generated_Source\PSoC4/cyfitter_cfg.c **** CY_CFG_UNUSED
 126:Generated_Source\PSoC4/cyfitter_cfg.c **** static void CyClockStartupError(uint8 errorCode)
 127:Generated_Source\PSoC4/cyfitter_cfg.c **** {
 128:Generated_Source\PSoC4/cyfitter_cfg.c ****     /* To remove the compiler warning if errorCode not used.                */
 129:Generated_Source\PSoC4/cyfitter_cfg.c ****     errorCode = errorCode;
 130:Generated_Source\PSoC4/cyfitter_cfg.c **** 
 131:Generated_Source\PSoC4/cyfitter_cfg.c ****     /* If we have a clock startup error (bad MHz crystal, PLL lock, etc.),  */
 132:Generated_Source\PSoC4/cyfitter_cfg.c ****     /* we will end up here to allow the customer to implement something to  */
 133:Generated_Source\PSoC4/cyfitter_cfg.c ****     /* deal with the clock condition.                                       */
 134:Generated_Source\PSoC4/cyfitter_cfg.c **** 
 135:Generated_Source\PSoC4/cyfitter_cfg.c **** #ifdef CY_CFG_CLOCK_STARTUP_ERROR_CALLBACK
 136:Generated_Source\PSoC4/cyfitter_cfg.c ****     CY_CFG_Clock_Startup_ErrorCallback();
 137:Generated_Source\PSoC4/cyfitter_cfg.c **** #else
 138:Generated_Source\PSoC4/cyfitter_cfg.c ****     /*  If not using CY_CFG_CLOCK_STARTUP_ERROR_CALLBACK, place your clock startup code here. */
 139:Generated_Source\PSoC4/cyfitter_cfg.c ****     /* `#START CyClockStartupError` */
 140:Generated_Source\PSoC4/cyfitter_cfg.c **** 
 141:Generated_Source\PSoC4/cyfitter_cfg.c **** 
 142:Generated_Source\PSoC4/cyfitter_cfg.c **** 
 143:Generated_Source\PSoC4/cyfitter_cfg.c ****     /* `#END` */
 144:Generated_Source\PSoC4/cyfitter_cfg.c **** 
 145:Generated_Source\PSoC4/cyfitter_cfg.c ****     while(1) {}
ARM GAS  C:\Users\Jeremias\AppData\Local\Temp\ccO14tv7.s 			page 4


 146:Generated_Source\PSoC4/cyfitter_cfg.c **** #endif /* CY_CFG_CLOCK_STARTUP_ERROR_CALLBACK */
 147:Generated_Source\PSoC4/cyfitter_cfg.c **** }
 148:Generated_Source\PSoC4/cyfitter_cfg.c **** #endif
 149:Generated_Source\PSoC4/cyfitter_cfg.c **** 
 150:Generated_Source\PSoC4/cyfitter_cfg.c **** #define CY_CFG_BASE_ADDR_COUNT 6u
 151:Generated_Source\PSoC4/cyfitter_cfg.c **** CYPACKED typedef struct
 152:Generated_Source\PSoC4/cyfitter_cfg.c **** {
 153:Generated_Source\PSoC4/cyfitter_cfg.c **** 	uint8 offset;
 154:Generated_Source\PSoC4/cyfitter_cfg.c **** 	uint8 value;
 155:Generated_Source\PSoC4/cyfitter_cfg.c **** } CYPACKED_ATTR cy_cfg_addrvalue_t;
 156:Generated_Source\PSoC4/cyfitter_cfg.c **** 
 157:Generated_Source\PSoC4/cyfitter_cfg.c **** 
 158:Generated_Source\PSoC4/cyfitter_cfg.c **** 
 159:Generated_Source\PSoC4/cyfitter_cfg.c **** /*******************************************************************************
 160:Generated_Source\PSoC4/cyfitter_cfg.c **** * Function Name: cfg_write_bytes32
 161:Generated_Source\PSoC4/cyfitter_cfg.c **** ********************************************************************************
 162:Generated_Source\PSoC4/cyfitter_cfg.c **** * Summary:
 163:Generated_Source\PSoC4/cyfitter_cfg.c **** *  This function is used for setting up the chip configuration areas that
 164:Generated_Source\PSoC4/cyfitter_cfg.c **** *  contain relatively sparse data.
 165:Generated_Source\PSoC4/cyfitter_cfg.c **** *
 166:Generated_Source\PSoC4/cyfitter_cfg.c **** * Parameters:
 167:Generated_Source\PSoC4/cyfitter_cfg.c **** *   void
 168:Generated_Source\PSoC4/cyfitter_cfg.c **** *
 169:Generated_Source\PSoC4/cyfitter_cfg.c **** * Return:
 170:Generated_Source\PSoC4/cyfitter_cfg.c **** *   void
 171:Generated_Source\PSoC4/cyfitter_cfg.c **** *
 172:Generated_Source\PSoC4/cyfitter_cfg.c **** *******************************************************************************/
 173:Generated_Source\PSoC4/cyfitter_cfg.c **** static void cfg_write_bytes32(const uint32 addr_table[], const cy_cfg_addrvalue_t data_table[]);
 174:Generated_Source\PSoC4/cyfitter_cfg.c **** static void cfg_write_bytes32(const uint32 addr_table[], const cy_cfg_addrvalue_t data_table[])
 175:Generated_Source\PSoC4/cyfitter_cfg.c **** {
  27              		.loc 1 175 0
  28              		.cfi_startproc
  29              		@ args = 0, pretend = 0, frame = 0
  30              		@ frame_needed = 0, uses_anonymous_args = 0
  31              	.LVL0:
  32 0000 F0B5     		push	{r4, r5, r6, r7, lr}
  33              		.cfi_def_cfa_offset 20
  34              		.cfi_offset 4, -20
  35              		.cfi_offset 5, -16
  36              		.cfi_offset 6, -12
  37              		.cfi_offset 7, -8
  38              		.cfi_offset 14, -4
  39              	.LVL1:
 176:Generated_Source\PSoC4/cyfitter_cfg.c **** 	/* For 32-bit little-endian architectures */
 177:Generated_Source\PSoC4/cyfitter_cfg.c **** 	uint32 i, j = 0u;
  40              		.loc 1 177 0
  41 0002 0025     		movs	r5, #0
 178:Generated_Source\PSoC4/cyfitter_cfg.c **** 	for (i = 0u; i < CY_CFG_BASE_ADDR_COUNT; i++)
  42              		.loc 1 178 0
  43 0004 0027     		movs	r7, #0
  44 0006 11E0     		b	.L2
  45              	.LVL2:
  46              	.L5:
  47              	.LBB2:
 179:Generated_Source\PSoC4/cyfitter_cfg.c **** 	{
 180:Generated_Source\PSoC4/cyfitter_cfg.c **** 		uint32 baseAddr = addr_table[i];
  48              		.loc 1 180 0
ARM GAS  C:\Users\Jeremias\AppData\Local\Temp\ccO14tv7.s 			page 5


  49 0008 BB00     		lsls	r3, r7, #2
  50 000a C658     		ldr	r6, [r0, r3]
  51              	.LVL3:
 181:Generated_Source\PSoC4/cyfitter_cfg.c **** 		uint8 count = (uint8)baseAddr;
  52              		.loc 1 181 0
  53 000c F3B2     		uxtb	r3, r6
  54              	.LVL4:
 182:Generated_Source\PSoC4/cyfitter_cfg.c **** 		baseAddr &= 0xFFFFFF00u;
  55              		.loc 1 182 0
  56 000e FF22     		movs	r2, #255
  57 0010 9643     		bics	r6, r2
  58              	.LVL5:
 183:Generated_Source\PSoC4/cyfitter_cfg.c **** 		while (count != 0u)
  59              		.loc 1 183 0
  60 0012 08E0     		b	.L3
  61              	.L4:
 184:Generated_Source\PSoC4/cyfitter_cfg.c **** 		{
 185:Generated_Source\PSoC4/cyfitter_cfg.c **** 			CY_SET_REG8((void *)(baseAddr + data_table[j].offset), data_table[j].value);
  62              		.loc 1 185 0
  63 0014 6A00     		lsls	r2, r5, #1
  64 0016 8A18     		adds	r2, r1, r2
  65 0018 1478     		ldrb	r4, [r2]
  66 001a A419     		adds	r4, r4, r6
  67 001c 5278     		ldrb	r2, [r2, #1]
  68 001e 2270     		strb	r2, [r4]
 186:Generated_Source\PSoC4/cyfitter_cfg.c **** 			j++;
  69              		.loc 1 186 0
  70 0020 0135     		adds	r5, r5, #1
  71              	.LVL6:
 187:Generated_Source\PSoC4/cyfitter_cfg.c **** 			count--;
  72              		.loc 1 187 0
  73 0022 013B     		subs	r3, r3, #1
  74              	.LVL7:
  75 0024 DBB2     		uxtb	r3, r3
  76              	.LVL8:
  77              	.L3:
 183:Generated_Source\PSoC4/cyfitter_cfg.c **** 		{
  78              		.loc 1 183 0
  79 0026 002B     		cmp	r3, #0
  80 0028 F4D1     		bne	.L4
  81              	.LBE2:
 178:Generated_Source\PSoC4/cyfitter_cfg.c **** 	{
  82              		.loc 1 178 0 discriminator 2
  83 002a 0137     		adds	r7, r7, #1
  84              	.LVL9:
  85              	.L2:
 178:Generated_Source\PSoC4/cyfitter_cfg.c **** 	{
  86              		.loc 1 178 0 is_stmt 0 discriminator 1
  87 002c 052F     		cmp	r7, #5
  88 002e EBD9     		bls	.L5
 188:Generated_Source\PSoC4/cyfitter_cfg.c **** 		}
 189:Generated_Source\PSoC4/cyfitter_cfg.c **** 	}
 190:Generated_Source\PSoC4/cyfitter_cfg.c **** }
  89              		.loc 1 190 0 is_stmt 1
  90              		@ sp needed
  91              	.LVL10:
  92              	.LVL11:
ARM GAS  C:\Users\Jeremias\AppData\Local\Temp\ccO14tv7.s 			page 6


  93 0030 F0BD     		pop	{r4, r5, r6, r7, pc}
  94              		.cfi_endproc
  95              	.LFE3:
  96              		.size	cfg_write_bytes32, .-cfg_write_bytes32
  97 0032 C046     		.section	.text.CYMEMZERO,"ax",%progbits
  98              		.align	2
  99              		.code	16
 100              		.thumb_func
 101              		.type	CYMEMZERO, %function
 102              	CYMEMZERO:
 103              	.LFB0:
  77:Generated_Source\PSoC4/cyfitter_cfg.c **** 	(void)memset(s, 0, n);
 104              		.loc 1 77 0
 105              		.cfi_startproc
 106              		@ args = 0, pretend = 0, frame = 0
 107              		@ frame_needed = 0, uses_anonymous_args = 0
 108              	.LVL12:
 109 0000 10B5     		push	{r4, lr}
 110              		.cfi_def_cfa_offset 8
 111              		.cfi_offset 4, -8
 112              		.cfi_offset 14, -4
 113 0002 0A00     		movs	r2, r1
  78:Generated_Source\PSoC4/cyfitter_cfg.c **** }
 114              		.loc 1 78 0
 115 0004 0021     		movs	r1, #0
 116              	.LVL13:
 117 0006 FFF7FEFF 		bl	memset
 118              	.LVL14:
  79:Generated_Source\PSoC4/cyfitter_cfg.c **** CY_CFG_UNUSED
 119              		.loc 1 79 0
 120              		@ sp needed
 121 000a 10BD     		pop	{r4, pc}
 122              		.cfi_endproc
 123              	.LFE0:
 124              		.size	CYMEMZERO, .-CYMEMZERO
 125              		.section	.psocinit,"ax",%progbits
 126              		.align	2
 127              		.code	16
 128              		.thumb_func
 129              		.type	ClockSetup, %function
 130              	ClockSetup:
 131              	.LFB4:
 191:Generated_Source\PSoC4/cyfitter_cfg.c **** 
 192:Generated_Source\PSoC4/cyfitter_cfg.c **** 
 193:Generated_Source\PSoC4/cyfitter_cfg.c **** /*******************************************************************************
 194:Generated_Source\PSoC4/cyfitter_cfg.c **** * Function Name: ClockSetup
 195:Generated_Source\PSoC4/cyfitter_cfg.c **** ********************************************************************************
 196:Generated_Source\PSoC4/cyfitter_cfg.c **** *
 197:Generated_Source\PSoC4/cyfitter_cfg.c **** * Summary:
 198:Generated_Source\PSoC4/cyfitter_cfg.c **** *   Performs the initialization of all of the clocks in the device based on the
 199:Generated_Source\PSoC4/cyfitter_cfg.c **** *   settings in the Clock tab of the DWR.  This includes enabling the requested
 200:Generated_Source\PSoC4/cyfitter_cfg.c **** *   clocks and setting the necessary dividers to produce the desired frequency. 
 201:Generated_Source\PSoC4/cyfitter_cfg.c **** *
 202:Generated_Source\PSoC4/cyfitter_cfg.c **** * Parameters:
 203:Generated_Source\PSoC4/cyfitter_cfg.c **** *   void
 204:Generated_Source\PSoC4/cyfitter_cfg.c **** *
 205:Generated_Source\PSoC4/cyfitter_cfg.c **** * Return:
ARM GAS  C:\Users\Jeremias\AppData\Local\Temp\ccO14tv7.s 			page 7


 206:Generated_Source\PSoC4/cyfitter_cfg.c **** *   void
 207:Generated_Source\PSoC4/cyfitter_cfg.c **** *
 208:Generated_Source\PSoC4/cyfitter_cfg.c **** *******************************************************************************/
 209:Generated_Source\PSoC4/cyfitter_cfg.c **** static void ClockSetup(void);
 210:Generated_Source\PSoC4/cyfitter_cfg.c **** CY_CFG_SECTION
 211:Generated_Source\PSoC4/cyfitter_cfg.c **** static void ClockSetup(void)
 212:Generated_Source\PSoC4/cyfitter_cfg.c **** {
 132              		.loc 1 212 0
 133              		.cfi_startproc
 134              		@ args = 0, pretend = 0, frame = 0
 135              		@ frame_needed = 0, uses_anonymous_args = 0
 136 0000 70B5     		push	{r4, r5, r6, lr}
 137              		.cfi_def_cfa_offset 16
 138              		.cfi_offset 4, -16
 139              		.cfi_offset 5, -12
 140              		.cfi_offset 6, -8
 141              		.cfi_offset 14, -4
 213:Generated_Source\PSoC4/cyfitter_cfg.c **** 	/* Enable HALF_EN before trimming for the flash accelerator. */
 214:Generated_Source\PSoC4/cyfitter_cfg.c **** 	CY_SET_REG32((void CYXDATA *)(CYREG_CLK_SELECT), (CY_GET_REG32((void *)CYREG_CLK_SELECT) | 0x00040
 142              		.loc 1 214 0
 143 0002 0D4C     		ldr	r4, .L8
 144 0004 2368     		ldr	r3, [r4]
 145 0006 8025     		movs	r5, #128
 146 0008 ED02     		lsls	r5, r5, #11
 147 000a 2B43     		orrs	r3, r5
 148 000c 2360     		str	r3, [r4]
 215:Generated_Source\PSoC4/cyfitter_cfg.c **** 
 216:Generated_Source\PSoC4/cyfitter_cfg.c **** 	/* Setup and trim IMO based on desired frequency. */
 217:Generated_Source\PSoC4/cyfitter_cfg.c **** 	CySysClkWriteImoFreq(48u);
 149              		.loc 1 217 0
 150 000e 3020     		movs	r0, #48
 151 0010 FFF7FEFF 		bl	CySysClkWriteImoFreq
 152              	.LVL15:
 218:Generated_Source\PSoC4/cyfitter_cfg.c **** 	/* CYDEV_CLK_ILO_CONFIG Starting address: CYDEV_CLK_ILO_CONFIG */
 219:Generated_Source\PSoC4/cyfitter_cfg.c **** 	CY_SET_REG32((void *)(CYREG_CLK_ILO_CONFIG), 0x80000006u);
 153              		.loc 1 219 0
 154 0014 094A     		ldr	r2, .L8+4
 155 0016 0A4B     		ldr	r3, .L8+8
 156 0018 1A60     		str	r2, [r3]
 220:Generated_Source\PSoC4/cyfitter_cfg.c **** 
 221:Generated_Source\PSoC4/cyfitter_cfg.c **** 
 222:Generated_Source\PSoC4/cyfitter_cfg.c **** 	/* CYDEV_CLK_IMO_CONFIG Starting address: CYDEV_CLK_IMO_CONFIG */
 223:Generated_Source\PSoC4/cyfitter_cfg.c **** 	CY_SET_REG32((void *)(CYREG_CLK_IMO_CONFIG), 0x80000000u);
 157              		.loc 1 223 0
 158 001a 063A     		subs	r2, r2, #6
 159 001c 094B     		ldr	r3, .L8+12
 160 001e 1A60     		str	r2, [r3]
 224:Generated_Source\PSoC4/cyfitter_cfg.c **** 
 225:Generated_Source\PSoC4/cyfitter_cfg.c **** 	/* CYDEV_CLK_SELECT Starting address: CYDEV_CLK_SELECT */
 226:Generated_Source\PSoC4/cyfitter_cfg.c **** 	CY_SET_REG32((void *)(CYREG_CLK_SELECT), 0x00040000u);
 161              		.loc 1 226 0
 162 0020 2560     		str	r5, [r4]
 227:Generated_Source\PSoC4/cyfitter_cfg.c **** 
 228:Generated_Source\PSoC4/cyfitter_cfg.c **** 	(void)CyIntSetVector(9u, &CySysWdtIsr);
 163              		.loc 1 228 0
 164 0022 0949     		ldr	r1, .L8+16
 165 0024 0920     		movs	r0, #9
ARM GAS  C:\Users\Jeremias\AppData\Local\Temp\ccO14tv7.s 			page 8


 166 0026 FFF7FEFF 		bl	CyIntSetVector
 167              	.LVL16:
 229:Generated_Source\PSoC4/cyfitter_cfg.c **** 	CyIntEnable(9u);
 168              		.loc 1 229 0
 169 002a 0920     		movs	r0, #9
 170 002c FFF7FEFF 		bl	CyIntEnable
 171              	.LVL17:
 230:Generated_Source\PSoC4/cyfitter_cfg.c **** 	CY_SET_REG32((void *)(CYREG_WDT_CONFIG), 0x00000000u);
 172              		.loc 1 230 0
 173 0030 0022     		movs	r2, #0
 174 0032 064B     		ldr	r3, .L8+20
 175 0034 1A60     		str	r2, [r3]
 231:Generated_Source\PSoC4/cyfitter_cfg.c **** }
 176              		.loc 1 231 0
 177              		@ sp needed
 178 0036 70BD     		pop	{r4, r5, r6, pc}
 179              	.L9:
 180              		.align	2
 181              	.L8:
 182 0038 00010B40 		.word	1074462976
 183 003c 06000080 		.word	-2147483642
 184 0040 04010B40 		.word	1074462980
 185 0044 08010B40 		.word	1074462984
 186 0048 00000000 		.word	CySysWdtIsr
 187 004c 0C020B40 		.word	1074463244
 188              		.cfi_endproc
 189              	.LFE4:
 190              		.size	ClockSetup, .-ClockSetup
 191              		.section	.text.SetAnalogRoutingPumps,"ax",%progbits
 192              		.align	2
 193              		.global	SetAnalogRoutingPumps
 194              		.code	16
 195              		.thumb_func
 196              		.type	SetAnalogRoutingPumps, %function
 197              	SetAnalogRoutingPumps:
 198              	.LFB6:
 232:Generated_Source\PSoC4/cyfitter_cfg.c **** 
 233:Generated_Source\PSoC4/cyfitter_cfg.c **** 
 234:Generated_Source\PSoC4/cyfitter_cfg.c **** /* Analog API Functions */
 235:Generated_Source\PSoC4/cyfitter_cfg.c **** 
 236:Generated_Source\PSoC4/cyfitter_cfg.c **** 
 237:Generated_Source\PSoC4/cyfitter_cfg.c **** /*******************************************************************************
 238:Generated_Source\PSoC4/cyfitter_cfg.c **** * Function Name: AnalogSetDefault
 239:Generated_Source\PSoC4/cyfitter_cfg.c **** ********************************************************************************
 240:Generated_Source\PSoC4/cyfitter_cfg.c **** *
 241:Generated_Source\PSoC4/cyfitter_cfg.c **** * Summary:
 242:Generated_Source\PSoC4/cyfitter_cfg.c **** *  Sets up the analog portions of the chip to default values based on chip
 243:Generated_Source\PSoC4/cyfitter_cfg.c **** *  configuration options from the project.
 244:Generated_Source\PSoC4/cyfitter_cfg.c **** *
 245:Generated_Source\PSoC4/cyfitter_cfg.c **** * Parameters:
 246:Generated_Source\PSoC4/cyfitter_cfg.c **** *  void
 247:Generated_Source\PSoC4/cyfitter_cfg.c **** *
 248:Generated_Source\PSoC4/cyfitter_cfg.c **** * Return:
 249:Generated_Source\PSoC4/cyfitter_cfg.c **** *  void
 250:Generated_Source\PSoC4/cyfitter_cfg.c **** *
 251:Generated_Source\PSoC4/cyfitter_cfg.c **** *******************************************************************************/
 252:Generated_Source\PSoC4/cyfitter_cfg.c **** static void AnalogSetDefault(void);
ARM GAS  C:\Users\Jeremias\AppData\Local\Temp\ccO14tv7.s 			page 9


 253:Generated_Source\PSoC4/cyfitter_cfg.c **** static void AnalogSetDefault(void)
 254:Generated_Source\PSoC4/cyfitter_cfg.c **** {
 255:Generated_Source\PSoC4/cyfitter_cfg.c **** 	SetAnalogRoutingPumps(1);
 256:Generated_Source\PSoC4/cyfitter_cfg.c **** }
 257:Generated_Source\PSoC4/cyfitter_cfg.c **** 
 258:Generated_Source\PSoC4/cyfitter_cfg.c **** 
 259:Generated_Source\PSoC4/cyfitter_cfg.c **** /*******************************************************************************
 260:Generated_Source\PSoC4/cyfitter_cfg.c **** * Function Name: SetAnalogRoutingPumps
 261:Generated_Source\PSoC4/cyfitter_cfg.c **** ********************************************************************************
 262:Generated_Source\PSoC4/cyfitter_cfg.c **** *
 263:Generated_Source\PSoC4/cyfitter_cfg.c **** * Summary:
 264:Generated_Source\PSoC4/cyfitter_cfg.c **** * Enables or disables the analog pumps feeding analog routing switches.
 265:Generated_Source\PSoC4/cyfitter_cfg.c **** * Intended to be called at startup, based on the Vdda system configuration;
 266:Generated_Source\PSoC4/cyfitter_cfg.c **** * may be called during operation when the user informs us that the Vdda voltage crossed the pump th
 267:Generated_Source\PSoC4/cyfitter_cfg.c **** *
 268:Generated_Source\PSoC4/cyfitter_cfg.c **** * Parameters:
 269:Generated_Source\PSoC4/cyfitter_cfg.c **** *  enabled - 1 to enable the pumps, 0 to disable the pumps
 270:Generated_Source\PSoC4/cyfitter_cfg.c **** *
 271:Generated_Source\PSoC4/cyfitter_cfg.c **** * Return:
 272:Generated_Source\PSoC4/cyfitter_cfg.c **** *  void
 273:Generated_Source\PSoC4/cyfitter_cfg.c **** *
 274:Generated_Source\PSoC4/cyfitter_cfg.c **** *******************************************************************************/
 275:Generated_Source\PSoC4/cyfitter_cfg.c **** void SetAnalogRoutingPumps(uint8 enabled)
 276:Generated_Source\PSoC4/cyfitter_cfg.c **** {
 199              		.loc 1 276 0
 200              		.cfi_startproc
 201              		@ args = 0, pretend = 0, frame = 0
 202              		@ frame_needed = 0, uses_anonymous_args = 0
 203              		@ link register save eliminated.
 204              	.LVL18:
 277:Generated_Source\PSoC4/cyfitter_cfg.c **** 	uint32 regValue = CY_GET_XTND_REG32((void *)(CYREG_SAR_PUMP_CTRL));
 205              		.loc 1 277 0
 206 0000 0C4B     		ldr	r3, .L15
 207 0002 1B68     		ldr	r3, [r3]
 208              	.LVL19:
 278:Generated_Source\PSoC4/cyfitter_cfg.c **** 	if (enabled != 0u)
 209              		.loc 1 278 0
 210 0004 0028     		cmp	r0, #0
 211 0006 03D0     		beq	.L11
 279:Generated_Source\PSoC4/cyfitter_cfg.c **** 	{
 280:Generated_Source\PSoC4/cyfitter_cfg.c **** 		regValue |= 0x80000000u;
 212              		.loc 1 280 0
 213 0008 8022     		movs	r2, #128
 214 000a 1206     		lsls	r2, r2, #24
 215 000c 1343     		orrs	r3, r2
 216              	.LVL20:
 217 000e 01E0     		b	.L12
 218              	.L11:
 281:Generated_Source\PSoC4/cyfitter_cfg.c **** 	}
 282:Generated_Source\PSoC4/cyfitter_cfg.c **** 	else
 283:Generated_Source\PSoC4/cyfitter_cfg.c **** 	{
 284:Generated_Source\PSoC4/cyfitter_cfg.c **** 		regValue &= ~0x80000000u;
 219              		.loc 1 284 0
 220 0010 5B00     		lsls	r3, r3, #1
 221              	.LVL21:
 222 0012 5B08     		lsrs	r3, r3, #1
 223              	.LVL22:
ARM GAS  C:\Users\Jeremias\AppData\Local\Temp\ccO14tv7.s 			page 10


 224              	.L12:
 285:Generated_Source\PSoC4/cyfitter_cfg.c **** 	}
 286:Generated_Source\PSoC4/cyfitter_cfg.c **** 	CY_SET_XTND_REG32((void *)(CYREG_SAR_PUMP_CTRL), regValue);
 225              		.loc 1 286 0
 226 0014 074A     		ldr	r2, .L15
 227 0016 1360     		str	r3, [r2]
 287:Generated_Source\PSoC4/cyfitter_cfg.c **** 	regValue = CY_GET_XTND_REG32((void *)(CYREG_CLK_IMO_CONFIG));
 228              		.loc 1 287 0
 229 0018 074B     		ldr	r3, .L15+4
 230              	.LVL23:
 231 001a 1B68     		ldr	r3, [r3]
 232              	.LVL24:
 288:Generated_Source\PSoC4/cyfitter_cfg.c **** 	if (enabled != 0u)
 233              		.loc 1 288 0
 234 001c 0028     		cmp	r0, #0
 235 001e 03D0     		beq	.L13
 289:Generated_Source\PSoC4/cyfitter_cfg.c **** 	{
 290:Generated_Source\PSoC4/cyfitter_cfg.c **** 		regValue |= 0x02000000u;
 236              		.loc 1 290 0
 237 0020 8022     		movs	r2, #128
 238 0022 9204     		lsls	r2, r2, #18
 239 0024 1343     		orrs	r3, r2
 240              	.LVL25:
 241 0026 01E0     		b	.L14
 242              	.L13:
 291:Generated_Source\PSoC4/cyfitter_cfg.c **** 	}
 292:Generated_Source\PSoC4/cyfitter_cfg.c **** 	else
 293:Generated_Source\PSoC4/cyfitter_cfg.c **** 	{
 294:Generated_Source\PSoC4/cyfitter_cfg.c **** 		regValue &= ~0x02000000u;
 243              		.loc 1 294 0
 244 0028 044A     		ldr	r2, .L15+8
 245 002a 1340     		ands	r3, r2
 246              	.LVL26:
 247              	.L14:
 295:Generated_Source\PSoC4/cyfitter_cfg.c **** 	}
 296:Generated_Source\PSoC4/cyfitter_cfg.c **** 	CY_SET_XTND_REG32((void *)(CYREG_CLK_IMO_CONFIG), regValue);
 248              		.loc 1 296 0
 249 002c 024A     		ldr	r2, .L15+4
 250 002e 1360     		str	r3, [r2]
 297:Generated_Source\PSoC4/cyfitter_cfg.c **** }
 251              		.loc 1 297 0
 252              		@ sp needed
 253 0030 7047     		bx	lr
 254              	.L16:
 255 0032 C046     		.align	2
 256              	.L15:
 257 0034 80031A40 		.word	1075446656
 258 0038 08010B40 		.word	1074462984
 259 003c FFFFFFFD 		.word	-33554433
 260              		.cfi_endproc
 261              	.LFE6:
 262              		.size	SetAnalogRoutingPumps, .-SetAnalogRoutingPumps
 263              		.section	.text.AnalogSetDefault,"ax",%progbits
 264              		.align	2
 265              		.code	16
 266              		.thumb_func
 267              		.type	AnalogSetDefault, %function
ARM GAS  C:\Users\Jeremias\AppData\Local\Temp\ccO14tv7.s 			page 11


 268              	AnalogSetDefault:
 269              	.LFB5:
 254:Generated_Source\PSoC4/cyfitter_cfg.c **** 	SetAnalogRoutingPumps(1);
 270              		.loc 1 254 0
 271              		.cfi_startproc
 272              		@ args = 0, pretend = 0, frame = 0
 273              		@ frame_needed = 0, uses_anonymous_args = 0
 274 0000 10B5     		push	{r4, lr}
 275              		.cfi_def_cfa_offset 8
 276              		.cfi_offset 4, -8
 277              		.cfi_offset 14, -4
 255:Generated_Source\PSoC4/cyfitter_cfg.c **** }
 278              		.loc 1 255 0
 279 0002 0120     		movs	r0, #1
 280 0004 FFF7FEFF 		bl	SetAnalogRoutingPumps
 281              	.LVL27:
 256:Generated_Source\PSoC4/cyfitter_cfg.c **** 
 282              		.loc 1 256 0
 283              		@ sp needed
 284 0008 10BD     		pop	{r4, pc}
 285              		.cfi_endproc
 286              	.LFE5:
 287              		.size	AnalogSetDefault, .-AnalogSetDefault
 288              		.section	.text.AMux_1_Set,"ax",%progbits
 289              		.align	2
 290              		.global	AMux_1_Set
 291              		.code	16
 292              		.thumb_func
 293              		.type	AMux_1_Set, %function
 294              	AMux_1_Set:
 295              	.LFB7:
 298:Generated_Source\PSoC4/cyfitter_cfg.c **** 
 299:Generated_Source\PSoC4/cyfitter_cfg.c **** 
 300:Generated_Source\PSoC4/cyfitter_cfg.c **** #define CY_AMUX_UNUSED CYREG_CM0_ROM_DWT
 301:Generated_Source\PSoC4/cyfitter_cfg.c **** /*******************************************************************************
 302:Generated_Source\PSoC4/cyfitter_cfg.c **** * Function Name: AMux_1_Set
 303:Generated_Source\PSoC4/cyfitter_cfg.c **** ********************************************************************************
 304:Generated_Source\PSoC4/cyfitter_cfg.c **** * Summary:
 305:Generated_Source\PSoC4/cyfitter_cfg.c **** *  This function is used to set a particular channel as active on the AMux.
 306:Generated_Source\PSoC4/cyfitter_cfg.c **** *
 307:Generated_Source\PSoC4/cyfitter_cfg.c **** * Parameters:  
 308:Generated_Source\PSoC4/cyfitter_cfg.c **** *   channel - The mux channel input to set as active
 309:Generated_Source\PSoC4/cyfitter_cfg.c **** *
 310:Generated_Source\PSoC4/cyfitter_cfg.c **** * Return:
 311:Generated_Source\PSoC4/cyfitter_cfg.c **** *   void
 312:Generated_Source\PSoC4/cyfitter_cfg.c **** *
 313:Generated_Source\PSoC4/cyfitter_cfg.c **** *******************************************************************************/
 314:Generated_Source\PSoC4/cyfitter_cfg.c **** void AMux_1_Set(uint8 channel)
 315:Generated_Source\PSoC4/cyfitter_cfg.c **** {
 296              		.loc 1 315 0
 297              		.cfi_startproc
 298              		@ args = 0, pretend = 0, frame = 0
 299              		@ frame_needed = 0, uses_anonymous_args = 0
 300              		@ link register save eliminated.
 301              	.LVL28:
 316:Generated_Source\PSoC4/cyfitter_cfg.c **** 	switch (channel) {
 302              		.loc 1 316 0
ARM GAS  C:\Users\Jeremias\AppData\Local\Temp\ccO14tv7.s 			page 12


 303 0000 0028     		cmp	r0, #0
 304 0002 02D0     		beq	.L20
 305 0004 0128     		cmp	r0, #1
 306 0006 07D0     		beq	.L21
 307 0008 0CE0     		b	.L18
 308              	.L20:
 317:Generated_Source\PSoC4/cyfitter_cfg.c **** 		case 0u:
 318:Generated_Source\PSoC4/cyfitter_cfg.c **** 			CY_SET_REG32((void CYXDATA *)CYREG_HSIOM_PORT_SEL1, (CY_GET_REG32((void CYXDATA *)CYREG_HSIOM_PO
 309              		.loc 1 318 0
 310 000a 074A     		ldr	r2, .L22
 311 000c 1368     		ldr	r3, [r2]
 312 000e C021     		movs	r1, #192
 313 0010 C900     		lsls	r1, r1, #3
 314 0012 0B43     		orrs	r3, r1
 315 0014 1360     		str	r3, [r2]
 319:Generated_Source\PSoC4/cyfitter_cfg.c **** 			break;
 316              		.loc 1 319 0
 317 0016 05E0     		b	.L18
 318              	.L21:
 320:Generated_Source\PSoC4/cyfitter_cfg.c **** 		case 1u:
 321:Generated_Source\PSoC4/cyfitter_cfg.c **** 			CY_SET_REG32((void CYXDATA *)CYREG_HSIOM_PORT_SEL1, (CY_GET_REG32((void CYXDATA *)CYREG_HSIOM_PO
 319              		.loc 1 321 0
 320 0018 034A     		ldr	r2, .L22
 321 001a 1368     		ldr	r3, [r2]
 322 001c C021     		movs	r1, #192
 323 001e C902     		lsls	r1, r1, #11
 324 0020 0B43     		orrs	r3, r1
 325 0022 1360     		str	r3, [r2]
 326              	.L18:
 322:Generated_Source\PSoC4/cyfitter_cfg.c **** 			break;
 323:Generated_Source\PSoC4/cyfitter_cfg.c **** 		default:
 324:Generated_Source\PSoC4/cyfitter_cfg.c **** 			break;
 325:Generated_Source\PSoC4/cyfitter_cfg.c **** 	}
 326:Generated_Source\PSoC4/cyfitter_cfg.c **** }
 327              		.loc 1 326 0
 328              		@ sp needed
 329 0024 7047     		bx	lr
 330              	.L23:
 331 0026 C046     		.align	2
 332              	.L22:
 333 0028 04000140 		.word	1073807364
 334              		.cfi_endproc
 335              	.LFE7:
 336              		.size	AMux_1_Set, .-AMux_1_Set
 337              		.section	.text.AMux_1_Unset,"ax",%progbits
 338              		.align	2
 339              		.global	AMux_1_Unset
 340              		.code	16
 341              		.thumb_func
 342              		.type	AMux_1_Unset, %function
 343              	AMux_1_Unset:
 344              	.LFB8:
 327:Generated_Source\PSoC4/cyfitter_cfg.c **** 
 328:Generated_Source\PSoC4/cyfitter_cfg.c **** /*******************************************************************************
 329:Generated_Source\PSoC4/cyfitter_cfg.c **** * Function Name: AMux_1_Unset
 330:Generated_Source\PSoC4/cyfitter_cfg.c **** ********************************************************************************
 331:Generated_Source\PSoC4/cyfitter_cfg.c **** * Summary:
ARM GAS  C:\Users\Jeremias\AppData\Local\Temp\ccO14tv7.s 			page 13


 332:Generated_Source\PSoC4/cyfitter_cfg.c **** *  This function is used to clear a particular channel from being active on the
 333:Generated_Source\PSoC4/cyfitter_cfg.c **** *  AMux.
 334:Generated_Source\PSoC4/cyfitter_cfg.c **** *
 335:Generated_Source\PSoC4/cyfitter_cfg.c **** * Parameters:  
 336:Generated_Source\PSoC4/cyfitter_cfg.c **** *   channel - The mux channel input to mark inactive
 337:Generated_Source\PSoC4/cyfitter_cfg.c **** *
 338:Generated_Source\PSoC4/cyfitter_cfg.c **** * Return:
 339:Generated_Source\PSoC4/cyfitter_cfg.c **** *   void
 340:Generated_Source\PSoC4/cyfitter_cfg.c **** *
 341:Generated_Source\PSoC4/cyfitter_cfg.c **** *******************************************************************************/
 342:Generated_Source\PSoC4/cyfitter_cfg.c **** void AMux_1_Unset(uint8 channel)
 343:Generated_Source\PSoC4/cyfitter_cfg.c **** {
 345              		.loc 1 343 0
 346              		.cfi_startproc
 347              		@ args = 0, pretend = 0, frame = 0
 348              		@ frame_needed = 0, uses_anonymous_args = 0
 349              		@ link register save eliminated.
 350              	.LVL29:
 344:Generated_Source\PSoC4/cyfitter_cfg.c **** 	switch (channel) {
 351              		.loc 1 344 0
 352 0000 0028     		cmp	r0, #0
 353 0002 02D0     		beq	.L26
 354 0004 0128     		cmp	r0, #1
 355 0006 06D0     		beq	.L27
 356 0008 0AE0     		b	.L24
 357              	.L26:
 345:Generated_Source\PSoC4/cyfitter_cfg.c **** 		case 0u:
 346:Generated_Source\PSoC4/cyfitter_cfg.c **** 			CY_SET_REG32((void CYXDATA *)CYREG_HSIOM_PORT_SEL1, (CY_GET_REG32((void CYXDATA *)CYREG_HSIOM_PO
 358              		.loc 1 346 0
 359 000a 064A     		ldr	r2, .L28
 360 000c 1168     		ldr	r1, [r2]
 361 000e 064B     		ldr	r3, .L28+4
 362 0010 0B40     		ands	r3, r1
 363 0012 1360     		str	r3, [r2]
 347:Generated_Source\PSoC4/cyfitter_cfg.c **** 			break;
 364              		.loc 1 347 0
 365 0014 04E0     		b	.L24
 366              	.L27:
 348:Generated_Source\PSoC4/cyfitter_cfg.c **** 		case 1u:
 349:Generated_Source\PSoC4/cyfitter_cfg.c **** 			CY_SET_REG32((void CYXDATA *)CYREG_HSIOM_PORT_SEL1, (CY_GET_REG32((void CYXDATA *)CYREG_HSIOM_PO
 367              		.loc 1 349 0
 368 0016 034A     		ldr	r2, .L28
 369 0018 1168     		ldr	r1, [r2]
 370 001a 044B     		ldr	r3, .L28+8
 371 001c 0B40     		ands	r3, r1
 372 001e 1360     		str	r3, [r2]
 373              	.L24:
 350:Generated_Source\PSoC4/cyfitter_cfg.c **** 			break;
 351:Generated_Source\PSoC4/cyfitter_cfg.c **** 		default:
 352:Generated_Source\PSoC4/cyfitter_cfg.c **** 			break;
 353:Generated_Source\PSoC4/cyfitter_cfg.c **** 	}
 354:Generated_Source\PSoC4/cyfitter_cfg.c **** }
 374              		.loc 1 354 0
 375              		@ sp needed
 376 0020 7047     		bx	lr
 377              	.L29:
 378 0022 C046     		.align	2
ARM GAS  C:\Users\Jeremias\AppData\Local\Temp\ccO14tv7.s 			page 14


 379              	.L28:
 380 0024 04000140 		.word	1073807364
 381 0028 FFF9FFFF 		.word	-1537
 382 002c FFFFF9FF 		.word	-393217
 383              		.cfi_endproc
 384              	.LFE8:
 385              		.size	AMux_1_Unset, .-AMux_1_Unset
 386              		.section	.psocinit
 387              		.align	2
 388              		.global	cyfitter_cfg
 389              		.code	16
 390              		.thumb_func
 391              		.type	cyfitter_cfg, %function
 392              	cyfitter_cfg:
 393              	.LFB9:
 355:Generated_Source\PSoC4/cyfitter_cfg.c **** 
 356:Generated_Source\PSoC4/cyfitter_cfg.c **** 
 357:Generated_Source\PSoC4/cyfitter_cfg.c **** 
 358:Generated_Source\PSoC4/cyfitter_cfg.c **** /*******************************************************************************
 359:Generated_Source\PSoC4/cyfitter_cfg.c **** * Function Name: cyfitter_cfg
 360:Generated_Source\PSoC4/cyfitter_cfg.c **** ********************************************************************************
 361:Generated_Source\PSoC4/cyfitter_cfg.c **** * Summary:
 362:Generated_Source\PSoC4/cyfitter_cfg.c **** *  This function is called by the start-up code for the selected device. It
 363:Generated_Source\PSoC4/cyfitter_cfg.c **** *  performs all of the necessary device configuration based on the design
 364:Generated_Source\PSoC4/cyfitter_cfg.c **** *  settings.  This includes settings from the Design Wide Resources (DWR) such
 365:Generated_Source\PSoC4/cyfitter_cfg.c **** *  as Clocks and Pins as well as any component configuration that is necessary.
 366:Generated_Source\PSoC4/cyfitter_cfg.c **** *
 367:Generated_Source\PSoC4/cyfitter_cfg.c **** * Parameters:
 368:Generated_Source\PSoC4/cyfitter_cfg.c **** *   void
 369:Generated_Source\PSoC4/cyfitter_cfg.c **** *
 370:Generated_Source\PSoC4/cyfitter_cfg.c **** * Return:
 371:Generated_Source\PSoC4/cyfitter_cfg.c **** *   void
 372:Generated_Source\PSoC4/cyfitter_cfg.c **** *
 373:Generated_Source\PSoC4/cyfitter_cfg.c **** *******************************************************************************/
 374:Generated_Source\PSoC4/cyfitter_cfg.c **** CY_CFG_SECTION
 375:Generated_Source\PSoC4/cyfitter_cfg.c **** void cyfitter_cfg(void)
 376:Generated_Source\PSoC4/cyfitter_cfg.c **** {
 394              		.loc 1 376 0
 395              		.cfi_startproc
 396              		@ args = 0, pretend = 0, frame = 0
 397              		@ frame_needed = 0, uses_anonymous_args = 0
 398 0050 10B5     		push	{r4, lr}
 399              		.cfi_def_cfa_offset 8
 400              		.cfi_offset 4, -8
 401              		.cfi_offset 14, -4
 377:Generated_Source\PSoC4/cyfitter_cfg.c **** 	/* Disable interrupts by default. Let user enable if/when they want. */
 378:Generated_Source\PSoC4/cyfitter_cfg.c **** 	CyGlobalIntDisable;
 402              		.loc 1 378 0
 403              		.syntax divided
 404              	@ 378 "Generated_Source\PSoC4\cyfitter_cfg.c" 1
 405 0052 72B6     		CPSID   i
 406              	@ 0 "" 2
 407              	.LVL30:
 408              		.thumb
 409              		.syntax unified
 410              	.LBB3:
 379:Generated_Source\PSoC4/cyfitter_cfg.c **** 
ARM GAS  C:\Users\Jeremias\AppData\Local\Temp\ccO14tv7.s 			page 15


 380:Generated_Source\PSoC4/cyfitter_cfg.c **** 	{
 381:Generated_Source\PSoC4/cyfitter_cfg.c **** 		static const uint32 CYCODE cy_cfg_addr_table[] = {
 382:Generated_Source\PSoC4/cyfitter_cfg.c **** 			0x400F3004u, /* Base address: 0x400F3000 Count: 4 */
 383:Generated_Source\PSoC4/cyfitter_cfg.c **** 			0x400F3103u, /* Base address: 0x400F3100 Count: 3 */
 384:Generated_Source\PSoC4/cyfitter_cfg.c **** 			0x400F3303u, /* Base address: 0x400F3300 Count: 3 */
 385:Generated_Source\PSoC4/cyfitter_cfg.c **** 			0x400F4109u, /* Base address: 0x400F4100 Count: 9 */
 386:Generated_Source\PSoC4/cyfitter_cfg.c **** 			0x400F4202u, /* Base address: 0x400F4200 Count: 2 */
 387:Generated_Source\PSoC4/cyfitter_cfg.c **** 			0x400F4302u, /* Base address: 0x400F4300 Count: 2 */
 388:Generated_Source\PSoC4/cyfitter_cfg.c **** 		};
 389:Generated_Source\PSoC4/cyfitter_cfg.c **** 
 390:Generated_Source\PSoC4/cyfitter_cfg.c **** 		static const cy_cfg_addrvalue_t CYCODE cy_cfg_data_table[] = {
 391:Generated_Source\PSoC4/cyfitter_cfg.c **** 			{0x38u, 0xA2u},
 392:Generated_Source\PSoC4/cyfitter_cfg.c **** 			{0x3Eu, 0x51u},
 393:Generated_Source\PSoC4/cyfitter_cfg.c **** 			{0x58u, 0x04u},
 394:Generated_Source\PSoC4/cyfitter_cfg.c **** 			{0x5Fu, 0x01u},
 395:Generated_Source\PSoC4/cyfitter_cfg.c **** 			{0x18u, 0x01u},
 396:Generated_Source\PSoC4/cyfitter_cfg.c **** 			{0x19u, 0x20u},
 397:Generated_Source\PSoC4/cyfitter_cfg.c **** 			{0x1Au, 0x80u},
 398:Generated_Source\PSoC4/cyfitter_cfg.c **** 			{0xAAu, 0x40u},
 399:Generated_Source\PSoC4/cyfitter_cfg.c **** 			{0xADu, 0x20u},
 400:Generated_Source\PSoC4/cyfitter_cfg.c **** 			{0xB4u, 0x01u},
 401:Generated_Source\PSoC4/cyfitter_cfg.c **** 			{0x5Bu, 0x40u},
 402:Generated_Source\PSoC4/cyfitter_cfg.c **** 			{0x63u, 0x40u},
 403:Generated_Source\PSoC4/cyfitter_cfg.c **** 			{0x93u, 0x40u},
 404:Generated_Source\PSoC4/cyfitter_cfg.c **** 			{0x9Bu, 0x40u},
 405:Generated_Source\PSoC4/cyfitter_cfg.c **** 			{0xABu, 0x40u},
 406:Generated_Source\PSoC4/cyfitter_cfg.c **** 			{0xAFu, 0x40u},
 407:Generated_Source\PSoC4/cyfitter_cfg.c **** 			{0xD4u, 0x80u},
 408:Generated_Source\PSoC4/cyfitter_cfg.c **** 			{0xD8u, 0x40u},
 409:Generated_Source\PSoC4/cyfitter_cfg.c **** 			{0xEEu, 0xC0u},
 410:Generated_Source\PSoC4/cyfitter_cfg.c **** 			{0x6Cu, 0x40u},
 411:Generated_Source\PSoC4/cyfitter_cfg.c **** 			{0xDCu, 0x02u},
 412:Generated_Source\PSoC4/cyfitter_cfg.c **** 			{0xB4u, 0x40u},
 413:Generated_Source\PSoC4/cyfitter_cfg.c **** 			{0xECu, 0x08u},
 414:Generated_Source\PSoC4/cyfitter_cfg.c **** 		};
 415:Generated_Source\PSoC4/cyfitter_cfg.c **** 
 416:Generated_Source\PSoC4/cyfitter_cfg.c **** 
 417:Generated_Source\PSoC4/cyfitter_cfg.c **** 
 418:Generated_Source\PSoC4/cyfitter_cfg.c **** 		CYPACKED typedef struct {
 419:Generated_Source\PSoC4/cyfitter_cfg.c **** 			void CYFAR *address;
 420:Generated_Source\PSoC4/cyfitter_cfg.c **** 			uint16 size;
 421:Generated_Source\PSoC4/cyfitter_cfg.c **** 		} CYPACKED_ATTR cfg_memset_t;
 422:Generated_Source\PSoC4/cyfitter_cfg.c **** 
 423:Generated_Source\PSoC4/cyfitter_cfg.c **** 		static const cfg_memset_t CYCODE cfg_memset_list[] = {
 424:Generated_Source\PSoC4/cyfitter_cfg.c **** 			/* address, size */
 425:Generated_Source\PSoC4/cyfitter_cfg.c **** 			{(void CYFAR *)(CYDEV_UDB_P0_U0_BASE), 1024u},
 426:Generated_Source\PSoC4/cyfitter_cfg.c **** 			{(void CYFAR *)(CYDEV_UDB_DSI0_BASE), 1024u},
 427:Generated_Source\PSoC4/cyfitter_cfg.c **** 		};
 428:Generated_Source\PSoC4/cyfitter_cfg.c **** 
 429:Generated_Source\PSoC4/cyfitter_cfg.c **** 		uint8 CYDATA i;
 430:Generated_Source\PSoC4/cyfitter_cfg.c **** 
 431:Generated_Source\PSoC4/cyfitter_cfg.c **** 		/* Zero out critical memory blocks before beginning configuration */
 432:Generated_Source\PSoC4/cyfitter_cfg.c **** 		for (i = 0u; i < (sizeof(cfg_memset_list)/sizeof(cfg_memset_list[0])); i++)
 411              		.loc 1 432 0
 412 0054 0024     		movs	r4, #0
 413 0056 0FE0     		b	.L31
 414              	.LVL31:
ARM GAS  C:\Users\Jeremias\AppData\Local\Temp\ccO14tv7.s 			page 16


 415              	.L32:
 416              	.LBB4:
 433:Generated_Source\PSoC4/cyfitter_cfg.c **** 		{
 434:Generated_Source\PSoC4/cyfitter_cfg.c **** 			const cfg_memset_t CYCODE * CYDATA ms = &cfg_memset_list[i];
 435:Generated_Source\PSoC4/cyfitter_cfg.c **** 			CYMEMZERO(ms->address, (size_t)(uint32)(ms->size));
 417              		.loc 1 435 0 discriminator 3
 418 0058 2448     		ldr	r0, .L33
 419 005a 6200     		lsls	r2, r4, #1
 420 005c 1319     		adds	r3, r2, r4
 421 005e 5900     		lsls	r1, r3, #1
 422 0060 0B00     		movs	r3, r1
 423 0062 4118     		adds	r1, r0, r1
 424 0064 8988     		ldrh	r1, [r1, #4]
 425 0066 1A5A     		ldrh	r2, [r3, r0]
 426 0068 C318     		adds	r3, r0, r3
 427 006a 5888     		ldrh	r0, [r3, #2]
 428 006c 0004     		lsls	r0, r0, #16
 429 006e 1043     		orrs	r0, r2
 430 0070 FFF7FEFF 		bl	CYMEMZERO
 431              	.LVL32:
 432              	.LBE4:
 432:Generated_Source\PSoC4/cyfitter_cfg.c **** 		{
 433              		.loc 1 432 0 discriminator 3
 434 0074 0134     		adds	r4, r4, #1
 435              	.LVL33:
 436 0076 E4B2     		uxtb	r4, r4
 437              	.LVL34:
 438              	.L31:
 432:Generated_Source\PSoC4/cyfitter_cfg.c **** 		{
 439              		.loc 1 432 0 is_stmt 0 discriminator 1
 440 0078 012C     		cmp	r4, #1
 441 007a EDD9     		bls	.L32
 436:Generated_Source\PSoC4/cyfitter_cfg.c **** 		}
 437:Generated_Source\PSoC4/cyfitter_cfg.c **** 
 438:Generated_Source\PSoC4/cyfitter_cfg.c **** 		cfg_write_bytes32(cy_cfg_addr_table, cy_cfg_data_table);
 442              		.loc 1 438 0 is_stmt 1
 443 007c 1B48     		ldr	r0, .L33
 444 007e 0100     		movs	r1, r0
 445 0080 0C31     		adds	r1, r1, #12
 446 0082 3C30     		adds	r0, r0, #60
 447 0084 FFF7FEFF 		bl	cfg_write_bytes32
 448              	.LVL35:
 439:Generated_Source\PSoC4/cyfitter_cfg.c **** 
 440:Generated_Source\PSoC4/cyfitter_cfg.c **** 		/* FORCED_HSIOM Starting address: CYDEV_HSIOM_PORT_SEL3 */
 441:Generated_Source\PSoC4/cyfitter_cfg.c **** 		CY_SET_REG32((void *)(CYREG_HSIOM_PORT_SEL3), 0x00000000u);
 449              		.loc 1 441 0
 450 0088 0023     		movs	r3, #0
 451 008a 194A     		ldr	r2, .L33+4
 452 008c 1360     		str	r3, [r2]
 442:Generated_Source\PSoC4/cyfitter_cfg.c **** 
 443:Generated_Source\PSoC4/cyfitter_cfg.c **** 		/* IOPINS0_3 Starting address: CYDEV_PRT3_PC */
 444:Generated_Source\PSoC4/cyfitter_cfg.c **** 		CY_SET_REG32((void *)(CYREG_PRT3_PC), 0x00000000u);
 453              		.loc 1 444 0
 454 008e 194A     		ldr	r2, .L33+8
 455 0090 1360     		str	r3, [r2]
 445:Generated_Source\PSoC4/cyfitter_cfg.c **** 
 446:Generated_Source\PSoC4/cyfitter_cfg.c **** 		/* UDB_PA_0 Starting address: CYDEV_UDB_PA0_BASE */
ARM GAS  C:\Users\Jeremias\AppData\Local\Temp\ccO14tv7.s 			page 17


 447:Generated_Source\PSoC4/cyfitter_cfg.c **** 		CY_SET_REG32((void *)(CYDEV_UDB_PA0_BASE), 0x00990000u);
 456              		.loc 1 447 0
 457 0092 9923     		movs	r3, #153
 458 0094 1B04     		lsls	r3, r3, #16
 459 0096 184A     		ldr	r2, .L33+12
 460 0098 1360     		str	r3, [r2]
 448:Generated_Source\PSoC4/cyfitter_cfg.c **** 
 449:Generated_Source\PSoC4/cyfitter_cfg.c **** 		/* UDB_PA_1 Starting address: CYDEV_UDB_PA1_BASE */
 450:Generated_Source\PSoC4/cyfitter_cfg.c **** 		CY_SET_REG32((void *)(CYDEV_UDB_PA1_BASE), 0x00990000u);
 461              		.loc 1 450 0
 462 009a 184A     		ldr	r2, .L33+16
 463 009c 1360     		str	r3, [r2]
 451:Generated_Source\PSoC4/cyfitter_cfg.c **** 		CY_SET_REG32((void *)(CYREG_UDB_PA1_CFG8), 0x02200000u);
 464              		.loc 1 451 0
 465 009e 8822     		movs	r2, #136
 466 00a0 9204     		lsls	r2, r2, #18
 467 00a2 174B     		ldr	r3, .L33+20
 468 00a4 1A60     		str	r2, [r3]
 452:Generated_Source\PSoC4/cyfitter_cfg.c **** 
 453:Generated_Source\PSoC4/cyfitter_cfg.c **** 		/* Enable UDB array and digital routing */
 454:Generated_Source\PSoC4/cyfitter_cfg.c **** 		CY_SET_XTND_REG8((void *)CYREG_UDB_UDBIF_WAIT_CFG, (uint8)((CY_GET_XTND_REG8((void *)CYREG_UDB_UD
 469              		.loc 1 454 0
 470 00a6 1748     		ldr	r0, .L33+24
 471 00a8 0378     		ldrb	r3, [r0]
 472 00aa 3C22     		movs	r2, #60
 473 00ac 9343     		bics	r3, r2
 474 00ae 1421     		movs	r1, #20
 475 00b0 1422     		movs	r2, #20
 476 00b2 1343     		orrs	r3, r2
 477 00b4 DBB2     		uxtb	r3, r3
 478 00b6 0370     		strb	r3, [r0]
 455:Generated_Source\PSoC4/cyfitter_cfg.c **** 		CY_SET_XTND_REG8((void *)CYREG_UDB_UDBIF_BANK_CTL, (uint8)(CY_GET_XTND_REG8((void *)CYREG_UDB_UDB
 479              		.loc 1 455 0
 480 00b8 134A     		ldr	r2, .L33+28
 481 00ba 1078     		ldrb	r0, [r2]
 482 00bc 1623     		movs	r3, #22
 483 00be 0343     		orrs	r3, r0
 484 00c0 DBB2     		uxtb	r3, r3
 485 00c2 1370     		strb	r3, [r2]
 486              	.LBE3:
 456:Generated_Source\PSoC4/cyfitter_cfg.c **** 	}
 457:Generated_Source\PSoC4/cyfitter_cfg.c **** 
 458:Generated_Source\PSoC4/cyfitter_cfg.c **** 	/* Perform second pass device configuration. These items must be configured in specific order afte
 459:Generated_Source\PSoC4/cyfitter_cfg.c **** 	/* IOPINS0_0 Starting address: CYDEV_PRT0_BASE */
 460:Generated_Source\PSoC4/cyfitter_cfg.c **** 	CY_SET_REG32((void *)(CYDEV_PRT0_BASE), 0x00000080u);
 487              		.loc 1 460 0
 488 00c4 8022     		movs	r2, #128
 489 00c6 114B     		ldr	r3, .L33+32
 490 00c8 1A60     		str	r2, [r3]
 461:Generated_Source\PSoC4/cyfitter_cfg.c **** 	CY_SET_REG32((void *)(CYREG_PRT0_PC), 0x00400000u);
 491              		.loc 1 461 0
 492 00ca 8022     		movs	r2, #128
 493 00cc D203     		lsls	r2, r2, #15
 494 00ce 104B     		ldr	r3, .L33+36
 495 00d0 1A60     		str	r2, [r3]
 462:Generated_Source\PSoC4/cyfitter_cfg.c **** 	CY_SET_REG32((void *)(CYREG_PRT0_INTCFG), 0x00008000u);
 496              		.loc 1 462 0
ARM GAS  C:\Users\Jeremias\AppData\Local\Temp\ccO14tv7.s 			page 18


 497 00d2 8022     		movs	r2, #128
 498 00d4 1202     		lsls	r2, r2, #8
 499 00d6 0F4B     		ldr	r3, .L33+40
 500 00d8 1A60     		str	r2, [r3]
 463:Generated_Source\PSoC4/cyfitter_cfg.c **** 
 464:Generated_Source\PSoC4/cyfitter_cfg.c **** 	/* IOPINS0_1 Starting address: CYDEV_PRT1_BASE */
 465:Generated_Source\PSoC4/cyfitter_cfg.c **** 	CY_SET_REG32((void *)(CYDEV_PRT1_BASE), 0x00000014u);
 501              		.loc 1 465 0
 502 00da 0F4B     		ldr	r3, .L33+44
 503 00dc 1960     		str	r1, [r3]
 466:Generated_Source\PSoC4/cyfitter_cfg.c **** 	CY_SET_REG32((void *)(CYREG_PRT1_PC2), 0x00000014u);
 504              		.loc 1 466 0
 505 00de 0F4B     		ldr	r3, .L33+48
 506 00e0 1960     		str	r1, [r3]
 467:Generated_Source\PSoC4/cyfitter_cfg.c **** 
 468:Generated_Source\PSoC4/cyfitter_cfg.c **** 
 469:Generated_Source\PSoC4/cyfitter_cfg.c **** 	/* Setup clocks based on selections from Clock DWR */
 470:Generated_Source\PSoC4/cyfitter_cfg.c **** 	ClockSetup();
 507              		.loc 1 470 0
 508 00e2 FFF78DFF 		bl	ClockSetup
 509              	.LVL36:
 471:Generated_Source\PSoC4/cyfitter_cfg.c **** 
 472:Generated_Source\PSoC4/cyfitter_cfg.c **** 	/* Perform basic analog initialization to defaults */
 473:Generated_Source\PSoC4/cyfitter_cfg.c **** 	AnalogSetDefault();
 510              		.loc 1 473 0
 511 00e6 FFF7FEFF 		bl	AnalogSetDefault
 512              	.LVL37:
 474:Generated_Source\PSoC4/cyfitter_cfg.c **** 
 475:Generated_Source\PSoC4/cyfitter_cfg.c **** }
 513              		.loc 1 475 0
 514              		@ sp needed
 515              	.LVL38:
 516 00ea 10BD     		pop	{r4, pc}
 517              	.L34:
 518              		.align	2
 519              	.L33:
 520 00ec 00000000 		.word	.LANCHOR0
 521 00f0 0C000140 		.word	1073807372
 522 00f4 08030440 		.word	1074004744
 523 00f8 00500F40 		.word	1074745344
 524 00fc 10500F40 		.word	1074745360
 525 0100 18500F40 		.word	1074745368
 526 0104 01700F40 		.word	1074753537
 527 0108 00700F40 		.word	1074753536
 528 010c 00000440 		.word	1074003968
 529 0110 08000440 		.word	1074003976
 530 0114 0C000440 		.word	1074003980
 531 0118 00010440 		.word	1074004224
 532 011c 18010440 		.word	1074004248
 533              		.cfi_endproc
 534              	.LFE9:
 535              		.size	cyfitter_cfg, .-cyfitter_cfg
 536              		.section	.rodata
 537              		.align	2
 538              		.set	.LANCHOR0,. + 0
 539              		.type	cfg_memset_list.4894, %object
 540              		.size	cfg_memset_list.4894, 12
ARM GAS  C:\Users\Jeremias\AppData\Local\Temp\ccO14tv7.s 			page 19


 541              	cfg_memset_list.4894:
 542 0000 00300F40 		.word	1074737152
 543 0004 0004     		.short	1024
 544 0006 00400F40 		.4byte	1074741248
 545 000a 0004     		.short	1024
 546              		.type	cy_cfg_data_table.4889, %object
 547              		.size	cy_cfg_data_table.4889, 46
 548              	cy_cfg_data_table.4889:
 549 000c 38       		.byte	56
 550 000d A2       		.byte	-94
 551 000e 3E       		.byte	62
 552 000f 51       		.byte	81
 553 0010 58       		.byte	88
 554 0011 04       		.byte	4
 555 0012 5F       		.byte	95
 556 0013 01       		.byte	1
 557 0014 18       		.byte	24
 558 0015 01       		.byte	1
 559 0016 19       		.byte	25
 560 0017 20       		.byte	32
 561 0018 1A       		.byte	26
 562 0019 80       		.byte	-128
 563 001a AA       		.byte	-86
 564 001b 40       		.byte	64
 565 001c AD       		.byte	-83
 566 001d 20       		.byte	32
 567 001e B4       		.byte	-76
 568 001f 01       		.byte	1
 569 0020 5B       		.byte	91
 570 0021 40       		.byte	64
 571 0022 63       		.byte	99
 572 0023 40       		.byte	64
 573 0024 93       		.byte	-109
 574 0025 40       		.byte	64
 575 0026 9B       		.byte	-101
 576 0027 40       		.byte	64
 577 0028 AB       		.byte	-85
 578 0029 40       		.byte	64
 579 002a AF       		.byte	-81
 580 002b 40       		.byte	64
 581 002c D4       		.byte	-44
 582 002d 80       		.byte	-128
 583 002e D8       		.byte	-40
 584 002f 40       		.byte	64
 585 0030 EE       		.byte	-18
 586 0031 C0       		.byte	-64
 587 0032 6C       		.byte	108
 588 0033 40       		.byte	64
 589 0034 DC       		.byte	-36
 590 0035 02       		.byte	2
 591 0036 B4       		.byte	-76
 592 0037 40       		.byte	64
 593 0038 EC       		.byte	-20
 594 0039 08       		.byte	8
 595 003a 0000     		.space	2
 596              		.type	cy_cfg_addr_table.4888, %object
 597              		.size	cy_cfg_addr_table.4888, 24
ARM GAS  C:\Users\Jeremias\AppData\Local\Temp\ccO14tv7.s 			page 20


 598              	cy_cfg_addr_table.4888:
 599 003c 04300F40 		.word	1074737156
 600 0040 03310F40 		.word	1074737411
 601 0044 03330F40 		.word	1074737923
 602 0048 09410F40 		.word	1074741513
 603 004c 02420F40 		.word	1074741762
 604 0050 02430F40 		.word	1074742018
 605              		.text
 606              	.Letext0:
 607              		.file 2 "c:\\program files (x86)\\cypress\\psoc creator\\4.4\\psoc creator\\import\\gnu\\arm\\5.4.
 608              		.file 3 "Generated_Source\\PSoC4\\cytypes.h"
 609              		.file 4 "Generated_Source\\PSoC4\\CyLib.h"