ARM GAS  C:\Users\Jeremias\AppData\Local\Temp\ccQgyepU.s 			page 1


   1              		.syntax unified
   2              		.cpu cortex-m0
   3              		.fpu softvfp
   4              		.eabi_attribute 20, 1
   5              		.eabi_attribute 21, 1
   6              		.eabi_attribute 23, 3
   7              		.eabi_attribute 24, 1
   8              		.eabi_attribute 25, 1
   9              		.eabi_attribute 26, 1
  10              		.eabi_attribute 30, 1
  11              		.eabi_attribute 34, 0
  12              		.eabi_attribute 18, 4
  13              		.thumb
  14              		.syntax unified
  15              		.file	"mainIDAC+AMux.c"
  16              		.text
  17              	.Ltext0:
  18              		.cfi_sections	.debug_frame
  19              		.section	.text.VAR_AMux_Handler,"ax",%progbits
  20              		.align	2
  21              		.global	VAR_AMux_Handler
  22              		.code	16
  23              		.thumb_func
  24              		.type	VAR_AMux_Handler, %function
  25              	VAR_AMux_Handler:
  26              	.LFB32:
  27              		.file 1 "mainIDAC+AMux.c"
   1:mainIDAC+AMux.c **** /* ========================================
   2:mainIDAC+AMux.c ****  *
   3:mainIDAC+AMux.c ****         Prueba de modulo IDAC+AMux
   4:mainIDAC+AMux.c ****  * Seteo el IDAC en una valor fijo con con el pulsador hago conmutar el AMux.
   5:mainIDAC+AMux.c ****  * ========================================*/
   6:mainIDAC+AMux.c **** #include "project.h"
   7:mainIDAC+AMux.c **** 
   8:mainIDAC+AMux.c **** uint8 Estado=0;
   9:mainIDAC+AMux.c **** CY_ISR(VAR_AMux_Handler)
  10:mainIDAC+AMux.c **** {
  28              		.loc 1 10 0
  29              		.cfi_startproc
  30              		@ args = 0, pretend = 0, frame = 0
  31              		@ frame_needed = 0, uses_anonymous_args = 0
  32 0000 10B5     		push	{r4, lr}
  33              		.cfi_def_cfa_offset 8
  34              		.cfi_offset 4, -8
  35              		.cfi_offset 14, -4
  11:mainIDAC+AMux.c ****     switch(Estado)
  36              		.loc 1 11 0
  37 0002 104B     		ldr	r3, .L8
  38 0004 1B78     		ldrb	r3, [r3]
  39 0006 012B     		cmp	r3, #1
  40 0008 08D0     		beq	.L3
  41 000a 002B     		cmp	r3, #0
  42 000c 02D0     		beq	.L4
  43 000e 022B     		cmp	r3, #2
  44 0010 08D0     		beq	.L5
  45 0012 09E0     		b	.L2
  46              	.L4:
ARM GAS  C:\Users\Jeremias\AppData\Local\Temp\ccQgyepU.s 			page 2


  12:mainIDAC+AMux.c ****     {
  13:mainIDAC+AMux.c ****      case 0:
  14:mainIDAC+AMux.c ****         AMux_1_Select(0);
  47              		.loc 1 14 0
  48 0014 0020     		movs	r0, #0
  49 0016 FFF7FEFF 		bl	AMux_1_FastSelect
  50              	.LVL0:
  15:mainIDAC+AMux.c ****         break;
  51              		.loc 1 15 0
  52 001a 05E0     		b	.L2
  53              	.L3:
  16:mainIDAC+AMux.c ****      case 1:
  17:mainIDAC+AMux.c ****         AMux_1_Select(1);
  54              		.loc 1 17 0
  55 001c 0120     		movs	r0, #1
  56 001e FFF7FEFF 		bl	AMux_1_FastSelect
  57              	.LVL1:
  18:mainIDAC+AMux.c ****         break;
  58              		.loc 1 18 0
  59 0022 01E0     		b	.L2
  60              	.L5:
  19:mainIDAC+AMux.c ****      case 2:
  20:mainIDAC+AMux.c ****         AMux_1_DisconnectAll();
  61              		.loc 1 20 0
  62 0024 FFF7FEFF 		bl	AMux_1_DisconnectAll
  63              	.LVL2:
  64              	.L2:
  21:mainIDAC+AMux.c ****         break;    
  22:mainIDAC+AMux.c ****     }
  23:mainIDAC+AMux.c ****     if(Estado>=2)
  65              		.loc 1 23 0
  66 0028 064B     		ldr	r3, .L8
  67 002a 1B78     		ldrb	r3, [r3]
  68 002c 012B     		cmp	r3, #1
  69 002e 03D9     		bls	.L6
  24:mainIDAC+AMux.c ****      Estado=0;
  70              		.loc 1 24 0
  71 0030 0022     		movs	r2, #0
  72 0032 044B     		ldr	r3, .L8
  73 0034 1A70     		strb	r2, [r3]
  74 0036 02E0     		b	.L7
  75              	.L6:
  25:mainIDAC+AMux.c ****     else
  26:mainIDAC+AMux.c ****      Estado++;
  76              		.loc 1 26 0
  77 0038 0133     		adds	r3, r3, #1
  78 003a 024A     		ldr	r2, .L8
  79 003c 1370     		strb	r3, [r2]
  80              	.L7:
  27:mainIDAC+AMux.c ****     SW1_AMux_ClearInterrupt();
  81              		.loc 1 27 0
  82 003e FFF7FEFF 		bl	SW1_AMux_ClearInterrupt
  83              	.LVL3:
  28:mainIDAC+AMux.c **** }
  84              		.loc 1 28 0
  85              		@ sp needed
  86 0042 10BD     		pop	{r4, pc}
ARM GAS  C:\Users\Jeremias\AppData\Local\Temp\ccQgyepU.s 			page 3


  87              	.L9:
  88              		.align	2
  89              	.L8:
  90 0044 00000000 		.word	.LANCHOR0
  91              		.cfi_endproc
  92              	.LFE32:
  93              		.size	VAR_AMux_Handler, .-VAR_AMux_Handler
  94              		.section	.text.main,"ax",%progbits
  95              		.align	2
  96              		.global	main
  97              		.code	16
  98              		.thumb_func
  99              		.type	main, %function
 100              	main:
 101              	.LFB33:
  29:mainIDAC+AMux.c **** 
  30:mainIDAC+AMux.c **** int main()
  31:mainIDAC+AMux.c **** {
 102              		.loc 1 31 0
 103              		.cfi_startproc
 104              		@ Volatile: function does not return.
 105              		@ args = 0, pretend = 0, frame = 0
 106              		@ frame_needed = 0, uses_anonymous_args = 0
 107 0000 10B5     		push	{r4, lr}
 108              		.cfi_def_cfa_offset 8
 109              		.cfi_offset 4, -8
 110              		.cfi_offset 14, -4
  32:mainIDAC+AMux.c ****     CyGlobalIntEnable;
 111              		.loc 1 32 0
 112              		.syntax divided
 113              	@ 32 "mainIDAC+AMux.c" 1
 114 0002 62B6     		CPSIE   i
 115              	@ 0 "" 2
  33:mainIDAC+AMux.c ****     IDAC_1_Start();
 116              		.loc 1 33 0
 117              		.thumb
 118              		.syntax unified
 119 0004 FFF7FEFF 		bl	IDAC_1_Start
 120              	.LVL4:
  34:mainIDAC+AMux.c ****     AMux_1_Start();
 121              		.loc 1 34 0
 122 0008 FFF7FEFF 		bl	AMux_1_Start
 123              	.LVL5:
  35:mainIDAC+AMux.c ****     VAR_AMux_StartEx(VAR_AMux_Handler);
 124              		.loc 1 35 0
 125 000c 0148     		ldr	r0, .L12
 126 000e FFF7FEFF 		bl	VAR_AMux_StartEx
 127              	.LVL6:
 128              	.L11:
 129 0012 FEE7     		b	.L11
 130              	.L13:
 131              		.align	2
 132              	.L12:
 133 0014 00000000 		.word	VAR_AMux_Handler
 134              		.cfi_endproc
 135              	.LFE33:
 136              		.size	main, .-main
ARM GAS  C:\Users\Jeremias\AppData\Local\Temp\ccQgyepU.s 			page 4


 137              		.global	Estado
 138              		.bss
 139              		.set	.LANCHOR0,. + 0
 140              		.type	Estado, %object
 141              		.size	Estado, 1
 142              	Estado:
 143 0000 00       		.space	1
 144              		.text
 145              	.Letext0:
 146              		.file 2 "Generated_Source\\PSoC4/AMux_1.h"
 147              		.file 3 "Generated_Source\\PSoC4/SW1_AMux.h"
 148              		.file 4 "Generated_Source\\PSoC4/IDAC_1.h"
 149              		.file 5 "Generated_Source\\PSoC4/VAR_AMux.h"
 150              		.file 6 "Generated_Source\\PSoC4/cytypes.h"